---
triple:          'arm64-apple-darwin'
binary-path:     '/Users/runner/work/llama.cpp/llama.cpp/build-macos/framework/llama.framework/Versions/A/llama'
relocations:
  - { offsetInCU: 0x24848, offset: 0x24848, size: 0x8, addend: 0x0, symName: __ZNSt3__127__tree_balance_after_insertB8ue170006IPNS_16__tree_node_baseIPvEEEEvT_S5_, symObjAddr: 0x2A04, symBinAddr: 0x50C0, symSize: 0x1B4 }
  - { offsetInCU: 0x2683F, offset: 0x2683F, size: 0x8, addend: 0x0, symName: __ZNSt3__120__throw_length_errorB8ue170006EPKc, symObjAddr: 0x2CF4, symBinAddr: 0x53B0, symSize: 0x50 }
  - { offsetInCU: 0x26B9B, offset: 0x26B9B, size: 0x8, addend: 0x0, symName: __ZNSt3__120__throw_out_of_rangeB8ue170006EPKc, symObjAddr: 0x3188, symBinAddr: 0x5844, symSize: 0x50 }
  - { offsetInCU: 0x27272, offset: 0x27272, size: 0x8, addend: 0x0, symName: __ZSt28__throw_bad_array_new_lengthB8ue170006v, symObjAddr: 0x29DC, symBinAddr: 0x5098, symSize: 0x28 }
  - { offsetInCU: 0x300C8, offset: 0x300C8, size: 0x8, addend: 0x0, symName: __ZNK18llama_adapter_cvec10tensor_forEi, symObjAddr: 0x0, symBinAddr: 0x26BC, symSize: 0x40 }
  - { offsetInCU: 0x30133, offset: 0x30133, size: 0x8, addend: 0x0, symName: __ZNK18llama_adapter_cvec8apply_toEP12ggml_contextP11ggml_tensori, symObjAddr: 0x40, symBinAddr: 0x26FC, symSize: 0x50 }
  - { offsetInCU: 0x3019D, offset: 0x3019D, size: 0x8, addend: 0x0, symName: __ZNK18llama_adapter_cvec8apply_toEP12ggml_contextP11ggml_tensori, symObjAddr: 0x40, symBinAddr: 0x26FC, symSize: 0x50 }
  - { offsetInCU: 0x308DE, offset: 0x308DE, size: 0x8, addend: 0x0, symName: __ZN18llama_adapter_cvec4initERK11llama_model, symObjAddr: 0x90, symBinAddr: 0x274C, symSize: 0x5DC }
  - { offsetInCU: 0x32B9A, offset: 0x32B9A, size: 0x8, addend: 0x0, symName: __ZNSt3__16vectorINS_10unique_ptrI12ggml_context20ggml_context_deleterEENS_9allocatorIS4_EEE24__emplace_back_slow_pathIJRPS2_EEEvDpOT_, symObjAddr: 0x2BB8, symBinAddr: 0x5274, symSize: 0x128 }
  - { offsetInCU: 0x3319E, offset: 0x3319E, size: 0x8, addend: 0x0, symName: __ZNSt3__16vectorINS_10unique_ptrI19ggml_backend_buffer27ggml_backend_buffer_deleterEENS_9allocatorIS4_EEE7reserveEm, symObjAddr: 0x66C, symBinAddr: 0x2D28, symSize: 0xE4 }
  - { offsetInCU: 0x33683, offset: 0x33683, size: 0x8, addend: 0x0, symName: __ZNSt3__16vectorINS_10unique_ptrI19ggml_backend_buffer27ggml_backend_buffer_deleterEENS_9allocatorIS4_EEE24__emplace_back_slow_pathIJRPS2_EEEvDpOT_, symObjAddr: 0x4100, symBinAddr: 0x67BC, symSize: 0x128 }
  - { offsetInCU: 0x33CAA, offset: 0x33CAA, size: 0x8, addend: 0x0, symName: __ZNSt3__16__treeINS_12__value_typeIP24ggml_backend_buffer_typeP12ggml_contextEENS_19__map_value_compareIS3_S6_NS_4lessIS3_EELb1EEENS_9allocatorIS6_EEE7destroyEPNS_11__tree_nodeIS6_PvEE, symObjAddr: 0x40AC, symBinAddr: 0x6768, symSize: 0x40 }
  - { offsetInCU: 0x33DE6, offset: 0x33DE6, size: 0x8, addend: 0x0, symName: __ZNKSt3__16vectorIP11ggml_tensorNS_9allocatorIS2_EEE20__throw_length_errorB8ue170006Ev, symObjAddr: 0x40EC, symBinAddr: 0x67A8, symSize: 0x14 }
  - { offsetInCU: 0x33E10, offset: 0x33E10, size: 0x8, addend: 0x0, symName: __ZNSt3__16vectorINS_10unique_ptrI19ggml_backend_buffer27ggml_backend_buffer_deleterEENS_9allocatorIS4_EEE24__emplace_back_slow_pathIJRPS2_EEEvDpOT_, symObjAddr: 0x4100, symBinAddr: 0x67BC, symSize: 0x128 }
  - { offsetInCU: 0x342AF, offset: 0x342AF, size: 0x8, addend: 0x0, symName: __ZNKSt3__16vectorINS_10unique_ptrI19ggml_backend_buffer27ggml_backend_buffer_deleterEENS_9allocatorIS4_EEE20__throw_length_errorB8ue170006Ev, symObjAddr: 0x3F2C, symBinAddr: 0x65E8, symSize: 0x14 }
  - { offsetInCU: 0x342D9, offset: 0x342D9, size: 0x8, addend: 0x0, symName: __ZNKSt3__16vectorIhNS_9allocatorIhEEE20__throw_length_errorB8ue170006Ev, symObjAddr: 0x3F40, symBinAddr: 0x65FC, symSize: 0x14 }
  - { offsetInCU: 0x34308, offset: 0x34308, size: 0x8, addend: 0x0, symName: __ZN18llama_adapter_cvec5applyERK11llama_modelPKfmiii, symObjAddr: 0x750, symBinAddr: 0x2E0C, symSize: 0x124 }
  - { offsetInCU: 0x348C0, offset: 0x348C0, size: 0x8, addend: 0x0, symName: __ZN18llama_adapter_lora10get_weightEP11ggml_tensor, symObjAddr: 0x874, symBinAddr: 0x2F30, symSize: 0xEC }
  - { offsetInCU: 0x34F31, offset: 0x34F31, size: 0x8, addend: 0x0, symName: __ZNSt3__112__hash_tableINS_17__hash_value_typeINS_12basic_stringIcNS_11char_traitsIcEENS_9allocatorIcEEEE25llama_adapter_lora_weightEENS_22__unordered_map_hasherIS7_S9_NS_4hashIS7_EENS_8equal_toIS7_EELb1EEENS_21__unordered_map_equalIS7_S9_SE_SC_Lb1EEENS5_IS9_EEE4findIS7_EENS_15__hash_iteratorIPNS_11__hash_nodeIS9_PvEEEERKT_, symObjAddr: 0x4228, symBinAddr: 0x68E4, symSize: 0x23C }
  - { offsetInCU: 0x351BB, offset: 0x351BB, size: 0x8, addend: 0x0, symName: __ZNKSt3__112basic_stringIcNS_11char_traitsIcEENS_9allocatorIcEEE20__throw_length_errorB8ue170006Ev, symObjAddr: 0x33E0, symBinAddr: 0x5A9C, symSize: 0x14 }
  - { offsetInCU: 0x351E5, offset: 0x351E5, size: 0x8, addend: 0x0, symName: __ZNKSt3__16vectorIP24ggml_backend_buffer_typeNS_9allocatorIS2_EEE20__throw_length_errorB8ue170006Ev, symObjAddr: 0x33F4, symBinAddr: 0x5AB0, symSize: 0x14 }
  - { offsetInCU: 0x351F0, offset: 0x351F0, size: 0x8, addend: 0x0, symName: __ZNSt3__112basic_stringIcNS_11char_traitsIcEENS_9allocatorIcEEEC1B8ue170006ILi0EEEPKc, symObjAddr: 0x960, symBinAddr: 0x301C, symSize: 0xA0 }
  - { offsetInCU: 0x35565, offset: 0x35565, size: 0x8, addend: 0x0, symName: _llama_adapter_lora_init, symObjAddr: 0xA00, symBinAddr: 0x30BC, symSize: 0x1FB4 }
  - { offsetInCU: 0x37406, offset: 0x37406, size: 0x8, addend: 0x0, symName: _llama_adapter_lora_init, symObjAddr: 0xA00, symBinAddr: 0x30BC, symSize: 0x1FB4 }
  - { offsetInCU: 0x3F9FB, offset: 0x3F9FB, size: 0x8, addend: 0x0, symName: __ZNSt3__16__treeINS_12__value_typeINS_12basic_stringIcNS_11char_traitsIcEENS_9allocatorIcEEEE25llama_adapter_lora_weightEENS_19__map_value_compareIS7_S9_NS_4lessIS7_EELb1EEENS5_IS9_EEE25__emplace_unique_key_argsIS7_JRKNS_21piecewise_construct_tENS_5tupleIJRKS7_EEENSK_IJEEEEEENS_4pairINS_15__tree_iteratorIS9_PNS_11__tree_nodeIS9_PvEElEEbEERKT_DpOT0_, symObjAddr: 0x31FC, symBinAddr: 0x58B8, symSize: 0x1E4 }
  - { offsetInCU: 0x4046E, offset: 0x4046E, size: 0x8, addend: 0x0, symName: __ZNSt3__112__hash_tableINS_17__hash_value_typeINS_12basic_stringIcNS_11char_traitsIcEENS_9allocatorIcEEEE25llama_adapter_lora_weightEENS_22__unordered_map_hasherIS7_S9_NS_4hashIS7_EENS_8equal_toIS7_EELb1EEENS_21__unordered_map_equalIS7_S9_SE_SC_Lb1EEENS5_IS9_EEE25__emplace_unique_key_argsIS7_JRKNS_21piecewise_construct_tENS_5tupleIJRKS7_EEENSO_IJEEEEEENS_4pairINS_15__hash_iteratorIPNS_11__hash_nodeIS9_PvEEEEbEERKT_DpOT0_, symObjAddr: 0x3408, symBinAddr: 0x5AC4, symSize: 0x490 }
  - { offsetInCU: 0x40FCA, offset: 0x40FCA, size: 0x8, addend: 0x0, symName: __ZNSt3__16vectorINS_10unique_ptrI12ggml_context20ggml_context_deleterEENS_9allocatorIS4_EEE7reserveEm, symObjAddr: 0x2D9C, symBinAddr: 0x5458, symSize: 0xE4 }
  - { offsetInCU: 0x414A9, offset: 0x414A9, size: 0x8, addend: 0x0, symName: '__ZZL28llama_adapter_lora_init_implR11llama_modelPKcR18llama_adapter_loraENK3$_5clEP11ggml_tensorS7_', symObjAddr: 0x2EB4, symBinAddr: 0x5570, symSize: 0x28C }
  - { offsetInCU: 0x41B11, offset: 0x41B11, size: 0x8, addend: 0x0, symName: __ZNSt3__110unique_ptrI12gguf_context20gguf_context_deleterED1B8ue170006Ev, symObjAddr: 0x3140, symBinAddr: 0x57FC, symSize: 0x34 }
  - { offsetInCU: 0x41B23, offset: 0x41B23, size: 0x8, addend: 0x0, symName: __ZNSt3__16__treeINS_12__value_typeINS_12basic_stringIcNS_11char_traitsIcEENS_9allocatorIcEEEE25llama_adapter_lora_weightEENS_19__map_value_compareIS7_S9_NS_4lessIS7_EELb1EEENS5_IS9_EEE7destroyEPNS_11__tree_nodeIS9_PvEE, symObjAddr: 0x3F54, symBinAddr: 0x6610, symSize: 0x60 }
  - { offsetInCU: 0x41D98, offset: 0x41D98, size: 0x8, addend: 0x0, symName: __ZNKSt3__112basic_stringIcNS_11char_traitsIcEENS_9allocatorIcEEE20__throw_out_of_rangeB8ue170006Ev, symObjAddr: 0x3174, symBinAddr: 0x5830, symSize: 0x14 }
  - { offsetInCU: 0x41DC2, offset: 0x41DC2, size: 0x8, addend: 0x0, symName: __ZNSt3__120__throw_out_of_rangeB8ue170006EPKc, symObjAddr: 0x3188, symBinAddr: 0x5844, symSize: 0x50 }
  - { offsetInCU: 0x41DE3, offset: 0x41DE3, size: 0x8, addend: 0x0, symName: __ZNKSt3__16vectorINS_10unique_ptrI12ggml_context20ggml_context_deleterEENS_9allocatorIS4_EEE20__throw_length_errorB8ue170006Ev, symObjAddr: 0x2CE0, symBinAddr: 0x539C, symSize: 0x14 }
  - { offsetInCU: 0x41E0D, offset: 0x41E0D, size: 0x8, addend: 0x0, symName: __ZNSt3__120__throw_length_errorB8ue170006EPKc, symObjAddr: 0x2CF4, symBinAddr: 0x53B0, symSize: 0x50 }
  - { offsetInCU: 0x41E18, offset: 0x41E18, size: 0x8, addend: 0x0, symName: __ZNKSt3__16vectorIP24ggml_backend_buffer_typeNS_9allocatorIS2_EEE20__throw_length_errorB8ue170006Ev, symObjAddr: 0x33F4, symBinAddr: 0x5AB0, symSize: 0x14 }
  - { offsetInCU: 0x41E42, offset: 0x41E42, size: 0x8, addend: 0x0, symName: __ZNSt3__112__hash_tableINS_17__hash_value_typeINS_12basic_stringIcNS_11char_traitsIcEENS_9allocatorIcEEEE25llama_adapter_lora_weightEENS_22__unordered_map_hasherIS7_S9_NS_4hashIS7_EENS_8equal_toIS7_EELb1EEENS_21__unordered_map_equalIS7_S9_SE_SC_Lb1EEENS5_IS9_EEE25__emplace_unique_key_argsIS7_JRKNS_21piecewise_construct_tENS_5tupleIJRKS7_EEENSO_IJEEEEEENS_4pairINS_15__hash_iteratorIPNS_11__hash_nodeIS9_PvEEEEbEERKT_DpOT0_, symObjAddr: 0x3408, symBinAddr: 0x5AC4, symSize: 0x490 }
  - { offsetInCU: 0x41E4D, offset: 0x41E4D, size: 0x8, addend: 0x0, symName: __ZNSt3__110unique_ptrI19ggml_backend_buffer27ggml_backend_buffer_deleterED1B8ue170006Ev, symObjAddr: 0x2E80, symBinAddr: 0x553C, symSize: 0x34 }
  - { offsetInCU: 0x41EE1, offset: 0x41EE1, size: 0x8, addend: 0x0, symName: __ZNSt3__110unique_ptrI12ggml_context20ggml_context_deleterED1B8ue170006Ev, symObjAddr: 0x2D68, symBinAddr: 0x5424, symSize: 0x34 }
  - { offsetInCU: 0x41F75, offset: 0x41F75, size: 0x8, addend: 0x0, symName: __ZNSt3__110unique_ptrI12gguf_context20gguf_context_deleterED1B8ue170006Ev, symObjAddr: 0x3140, symBinAddr: 0x57FC, symSize: 0x34 }
  - { offsetInCU: 0x42009, offset: 0x42009, size: 0x8, addend: 0x0, symName: __ZN18llama_adapter_loraD2Ev, symObjAddr: 0x3FB4, symBinAddr: 0x6670, symSize: 0xF8 }
  - { offsetInCU: 0x4285A, offset: 0x4285A, size: 0x8, addend: 0x0, symName: _llama_adapter_lora_free, symObjAddr: 0x29C0, symBinAddr: 0x507C, symSize: 0x1C }
  - { offsetInCU: 0x428AC, offset: 0x428AC, size: 0x8, addend: 0x0, symName: __ZNSt12length_errorC1B8ue170006EPKc, symObjAddr: 0x2D44, symBinAddr: 0x5400, symSize: 0x24 }
  - { offsetInCU: 0x42E1D, offset: 0x42E1D, size: 0x8, addend: 0x0, symName: __ZNKSt3__16vectorIhNS_9allocatorIhEEE20__throw_length_errorB8ue170006Ev, symObjAddr: 0x3F40, symBinAddr: 0x65FC, symSize: 0x14 }
  - { offsetInCU: 0x42E47, offset: 0x42E47, size: 0x8, addend: 0x0, symName: __ZNSt3__16__treeINS_12__value_typeINS_12basic_stringIcNS_11char_traitsIcEENS_9allocatorIcEEEE25llama_adapter_lora_weightEENS_19__map_value_compareIS7_S9_NS_4lessIS7_EELb1EEENS5_IS9_EEE7destroyEPNS_11__tree_nodeIS9_PvEE, symObjAddr: 0x3F54, symBinAddr: 0x6610, symSize: 0x60 }
  - { offsetInCU: 0x42E52, offset: 0x42E52, size: 0x8, addend: 0x0, symName: __ZNSt12out_of_rangeC1B8ue170006EPKc, symObjAddr: 0x31D8, symBinAddr: 0x5894, symSize: 0x24 }
  - { offsetInCU: 0x4386E, offset: 0x4386E, size: 0x8, addend: 0x0, symName: __ZNKSt3__121__murmur2_or_cityhashImLm64EEclB8ue170006EPKvm, symObjAddr: 0x38E4, symBinAddr: 0x5FA0, symSize: 0x49C }
  - { offsetInCU: 0x44208, offset: 0x44208, size: 0x8, addend: 0x0, symName: __ZNSt3__112__hash_tableINS_17__hash_value_typeINS_12basic_stringIcNS_11char_traitsIcEENS_9allocatorIcEEEE25llama_adapter_lora_weightEENS_22__unordered_map_hasherIS7_S9_NS_4hashIS7_EENS_8equal_toIS7_EELb1EEENS_21__unordered_map_equalIS7_S9_SE_SC_Lb1EEENS5_IS9_EEE11__do_rehashILb1EEEvm, symObjAddr: 0x3D80, symBinAddr: 0x643C, symSize: 0x1AC }
  - { offsetInCU: 0x44668, offset: 0x44668, size: 0x8, addend: 0x0, symName: __ZNKSt3__16vectorINS_10unique_ptrI19ggml_backend_buffer27ggml_backend_buffer_deleterEENS_9allocatorIS4_EEE20__throw_length_errorB8ue170006Ev, symObjAddr: 0x3F2C, symBinAddr: 0x65E8, symSize: 0x14 }
  - { offsetInCU: 0x4467D, offset: 0x4467D, size: 0x8, addend: 0x0, symName: __ZNSt3__110unique_ptrINS_11__hash_nodeINS_17__hash_value_typeINS_12basic_stringIcNS_11char_traitsIcEENS_9allocatorIcEEEE25llama_adapter_lora_weightEEPvEENS_22__hash_node_destructorINS6_ISC_EEEEED1B8ue170006Ev, symObjAddr: 0x3898, symBinAddr: 0x5F54, symSize: 0x4C }
  - { offsetInCU: 0x52, offset: 0x45102, size: 0x8, addend: 0x0, symName: __MergedGlobals, symObjAddr: 0xC1488, symBinAddr: 0x2D92C0, symSize: 0x0 }
  - { offsetInCU: 0x11B82, offset: 0x56C32, size: 0x8, addend: 0x0, symName: __MergedGlobals, symObjAddr: 0xC1488, symBinAddr: 0x2D92C0, symSize: 0x0 }
  - { offsetInCU: 0x11FDB, offset: 0x5708B, size: 0x8, addend: 0x0, symName: __ZL16LLM_TENSOR_NAMES, symObjAddr: 0xC1470, symBinAddr: 0x2D92A8, symSize: 0x0 }
  - { offsetInCU: 0x12C98, offset: 0x57D48, size: 0x8, addend: 0x0, symName: __MergedGlobals, symObjAddr: 0xC1488, symBinAddr: 0x2D92C0, symSize: 0x0 }
  - { offsetInCU: 0x15128, offset: 0x5A1D8, size: 0x8, addend: 0x0, symName: __ZNSt3__13mapI8llm_archPKcNS_4lessIS1_EENS_9allocatorINS_4pairIKS1_S3_EEEEED1B8ue170006Ev, symObjAddr: 0x0, symBinAddr: 0x6B20, symSize: 0x28 }
  - { offsetInCU: 0x151DC, offset: 0x5A28C, size: 0x8, addend: 0x0, symName: __ZNSt3__16__treeINS_12__value_typeI8llm_archPKcEENS_19__map_value_compareIS2_S5_NS_4lessIS2_EELb1EEENS_9allocatorIS5_EEE7destroyEPNS_11__tree_nodeIS5_PvEE, symObjAddr: 0xD38, symBinAddr: 0x7698, symSize: 0x40 }
  - { offsetInCU: 0x1538A, offset: 0x5A43A, size: 0x8, addend: 0x0, symName: __ZNSt3__13mapI6llm_kvPKcNS_4lessIS1_EENS_9allocatorINS_4pairIKS1_S3_EEEEED1B8ue170006Ev, symObjAddr: 0x28, symBinAddr: 0x6B48, symSize: 0x28 }
  - { offsetInCU: 0x1543E, offset: 0x5A4EE, size: 0x8, addend: 0x0, symName: __ZNSt3__16__treeINS_12__value_typeI6llm_kvPKcEENS_19__map_value_compareIS2_S5_NS_4lessIS2_EELb1EEENS_9allocatorIS5_EEE7destroyEPNS_11__tree_nodeIS5_PvEE, symObjAddr: 0x1010, symBinAddr: 0x7970, symSize: 0x40 }
  - { offsetInCU: 0x158D8, offset: 0x5A988, size: 0x8, addend: 0x0, symName: __ZNSt3__13mapI10llm_tensorPKcNS_4lessIS1_EENS_9allocatorINS_4pairIKS1_S3_EEEEEC2B8ue170006ESt16initializer_listIS9_ERKS5_, symObjAddr: 0x1050, symBinAddr: 0x79B0, symSize: 0xF0 }
  - { offsetInCU: 0x15CB4, offset: 0x5AD64, size: 0x8, addend: 0x0, symName: __ZNSt3__13mapI10llm_tensorPKcNS_4lessIS1_EENS_9allocatorINS_4pairIKS1_S3_EEEEE6insertB8ue170006INS_20__map_const_iteratorINS_21__tree_const_iteratorINS_12__value_typeIS1_S3_EEPNS_11__tree_nodeISG_PvEElEEEEEEvT_SN_, symObjAddr: 0x5EC, symBinAddr: 0x710C, symSize: 0x10C }
  - { offsetInCU: 0x1600E, offset: 0x5B0BE, size: 0x8, addend: 0x0, symName: __ZNSt3__16__treeINS_12__value_typeI8llm_archNS_3mapI10llm_tensorPKcNS_4lessIS4_EENS_9allocatorINS_4pairIKS4_S6_EEEEEEEENS_19__map_value_compareIS2_SF_NS7_IS2_EELb1EEENS9_ISF_EEE30__emplace_hint_unique_key_argsIS2_JRKNSA_IKS2_SE_EEEEENSA_INS_15__tree_iteratorISF_PNS_11__tree_nodeISF_PvEElEEbEENS_21__tree_const_iteratorISF_SU_lEERKT_DpOT0_, symObjAddr: 0x1140, symBinAddr: 0x7AA0, symSize: 0xF8 }
  - { offsetInCU: 0x165EB, offset: 0x5B69B, size: 0x8, addend: 0x0, symName: __ZNSt3__16__treeINS_12__value_typeI10llm_tensorPKcEENS_19__map_value_compareIS2_S5_NS_4lessIS2_EELb1EEENS_9allocatorIS5_EEE7destroyEPNS_11__tree_nodeIS5_PvEE, symObjAddr: 0xA60, symBinAddr: 0x73C0, symSize: 0x40 }
  - { offsetInCU: 0x16727, offset: 0x5B7D7, size: 0x8, addend: 0x0, symName: __ZNSt3__16__treeINS_12__value_typeI8llm_archNS_3mapI10llm_tensorPKcNS_4lessIS4_EENS_9allocatorINS_4pairIKS4_S6_EEEEEEEENS_19__map_value_compareIS2_SF_NS7_IS2_EELb1EEENS9_ISF_EEE7destroyEPNS_11__tree_nodeISF_PvEE, symObjAddr: 0x13E0, symBinAddr: 0x7D40, symSize: 0x4C }
  - { offsetInCU: 0x1697D, offset: 0x5BA2D, size: 0x8, addend: 0x0, symName: __ZNSt3__13mapI8llm_archNS0_I10llm_tensorPKcNS_4lessIS2_EENS_9allocatorINS_4pairIKS2_S4_EEEEEENS5_IS1_EENS7_INS8_IKS1_SC_EEEEED1B8ue170006Ev, symObjAddr: 0x50, symBinAddr: 0x6B70, symSize: 0x28 }
  - { offsetInCU: 0x16AA3, offset: 0x5BB53, size: 0x8, addend: 0x0, symName: __ZNSt3__13mapI10llm_tensor15llm_tensor_infoNS_4lessIS1_EENS_9allocatorINS_4pairIKS1_S2_EEEEED1B8ue170006Ev, symObjAddr: 0x78, symBinAddr: 0x6B98, symSize: 0x28 }
  - { offsetInCU: 0x16B57, offset: 0x5BC07, size: 0x8, addend: 0x0, symName: __ZNSt3__16__treeINS_12__value_typeI10llm_tensor15llm_tensor_infoEENS_19__map_value_compareIS2_S4_NS_4lessIS2_EELb1EEENS_9allocatorIS4_EEE7destroyEPNS_11__tree_nodeIS4_PvEE, symObjAddr: 0x16D0, symBinAddr: 0x8030, symSize: 0x40 }
  - { offsetInCU: 0x16C98, offset: 0x5BD48, size: 0x8, addend: 0x0, symName: __ZN6LLM_KVC2E8llm_archPKc, symObjAddr: 0xA0, symBinAddr: 0x6BC0, symSize: 0xC }
  - { offsetInCU: 0x16D00, offset: 0x5BDB0, size: 0x8, addend: 0x0, symName: __ZN6LLM_KVC1E8llm_archPKc, symObjAddr: 0xAC, symBinAddr: 0x6BCC, symSize: 0xC }
  - { offsetInCU: 0x16D4C, offset: 0x5BDFC, size: 0x8, addend: 0x0, symName: __ZN6LLM_KVC1E8llm_archPKc, symObjAddr: 0xAC, symBinAddr: 0x6BCC, symSize: 0xC }
  - { offsetInCU: 0x170C1, offset: 0x5C171, size: 0x8, addend: 0x0, symName: __ZNK6LLM_KVclE6llm_kv, symObjAddr: 0xB8, symBinAddr: 0x6BD8, symSize: 0xF4 }
  - { offsetInCU: 0x178DD, offset: 0x5C98D, size: 0x8, addend: 0x0, symName: __ZNK11LLM_TN_IMPL3strEv, symObjAddr: 0x1AC, symBinAddr: 0x6CCC, symSize: 0x1D0 }
  - { offsetInCU: 0x182AC, offset: 0x5D35C, size: 0x8, addend: 0x0, symName: __Z13llm_arch_name8llm_arch, symObjAddr: 0x37C, symBinAddr: 0x6E9C, symSize: 0x5C }
  - { offsetInCU: 0x182EF, offset: 0x5D39F, size: 0x8, addend: 0x0, symName: __Z13llm_arch_name8llm_arch, symObjAddr: 0x37C, symBinAddr: 0x6E9C, symSize: 0x5C }
  - { offsetInCU: 0x18304, offset: 0x5D3B4, size: 0x8, addend: 0x0, symName: __Z13llm_arch_name8llm_arch, symObjAddr: 0x37C, symBinAddr: 0x6E9C, symSize: 0x5C }
  - { offsetInCU: 0x18322, offset: 0x5D3D2, size: 0x8, addend: 0x0, symName: __Z13llm_arch_name8llm_arch, symObjAddr: 0x37C, symBinAddr: 0x6E9C, symSize: 0x5C }
  - { offsetInCU: 0x184F9, offset: 0x5D5A9, size: 0x8, addend: 0x0, symName: __Z20llm_arch_from_stringRKNSt3__112basic_stringIcNS_11char_traitsIcEENS_9allocatorIcEEEE, symObjAddr: 0x3D8, symBinAddr: 0x6EF8, symSize: 0x164 }
  - { offsetInCU: 0x18809, offset: 0x5D8B9, size: 0x8, addend: 0x0, symName: __Z19llm_tensor_info_for10llm_tensor, symObjAddr: 0x53C, symBinAddr: 0x705C, symSize: 0x50 }
  - { offsetInCU: 0x188EE, offset: 0x5D99E, size: 0x8, addend: 0x0, symName: __Z21llm_arch_is_recurrentRK8llm_arch, symObjAddr: 0x58C, symBinAddr: 0x70AC, symSize: 0x24 }
  - { offsetInCU: 0x1891E, offset: 0x5D9CE, size: 0x8, addend: 0x0, symName: __Z18llm_arch_is_hybridRK8llm_arch, symObjAddr: 0x5B0, symBinAddr: 0x70D0, symSize: 0x28 }
  - { offsetInCU: 0x1894E, offset: 0x5D9FE, size: 0x8, addend: 0x0, symName: __Z21llm_arch_is_diffusionRK8llm_arch, symObjAddr: 0x5D8, symBinAddr: 0x70F8, symSize: 0x14 }
  - { offsetInCU: 0x18C2A, offset: 0x5DCDA, size: 0x8, addend: 0x0, symName: __ZNSt3__16__treeINS_12__value_typeI10llm_tensorPKcEENS_19__map_value_compareIS2_S5_NS_4lessIS2_EELb1EEENS_9allocatorIS5_EEE12__find_equalIS2_EERPNS_16__tree_node_baseIPvEENS_21__tree_const_iteratorIS5_PNS_11__tree_nodeIS5_SF_EElEERPNS_15__tree_end_nodeISH_EESI_RKT_, symObjAddr: 0x6F8, symBinAddr: 0x7218, symSize: 0x1A8 }
  - { offsetInCU: 0x18C92, offset: 0x5DD42, size: 0x8, addend: 0x0, symName: __ZNSt3__16__treeINS_12__value_typeI10llm_tensorPKcEENS_19__map_value_compareIS2_S5_NS_4lessIS2_EELb1EEENS_9allocatorIS5_EEE12__find_equalIS2_EERPNS_16__tree_node_baseIPvEENS_21__tree_const_iteratorIS5_PNS_11__tree_nodeIS5_SF_EElEERPNS_15__tree_end_nodeISH_EESI_RKT_, symObjAddr: 0x6F8, symBinAddr: 0x7218, symSize: 0x1A8 }
  - { offsetInCU: 0x18CAE, offset: 0x5DD5E, size: 0x8, addend: 0x0, symName: __ZNSt3__16__treeINS_12__value_typeI10llm_tensorPKcEENS_19__map_value_compareIS2_S5_NS_4lessIS2_EELb1EEENS_9allocatorIS5_EEE12__find_equalIS2_EERPNS_16__tree_node_baseIPvEENS_21__tree_const_iteratorIS5_PNS_11__tree_nodeIS5_SF_EElEERPNS_15__tree_end_nodeISH_EESI_RKT_, symObjAddr: 0x6F8, symBinAddr: 0x7218, symSize: 0x1A8 }
  - { offsetInCU: 0x1944A, offset: 0x5E4FA, size: 0x8, addend: 0x0, symName: __ZNSt3__13mapI8llm_archPKcNS_4lessIS1_EENS_9allocatorINS_4pairIKS1_S3_EEEEEC2B8ue170006ESt16initializer_listIS9_ERKS5_, symObjAddr: 0xAA0, symBinAddr: 0x7400, symSize: 0xF0 }
  - { offsetInCU: 0x19826, offset: 0x5E8D6, size: 0x8, addend: 0x0, symName: __ZNSt3__16__treeINS_12__value_typeI8llm_archPKcEENS_19__map_value_compareIS2_S5_NS_4lessIS2_EELb1EEENS_9allocatorIS5_EEE12__find_equalIS2_EERPNS_16__tree_node_baseIPvEENS_21__tree_const_iteratorIS5_PNS_11__tree_nodeIS5_SF_EElEERPNS_15__tree_end_nodeISH_EESI_RKT_, symObjAddr: 0xB90, symBinAddr: 0x74F0, symSize: 0x1A8 }
  - { offsetInCU: 0x1988E, offset: 0x5E93E, size: 0x8, addend: 0x0, symName: __ZNSt3__16__treeINS_12__value_typeI8llm_archPKcEENS_19__map_value_compareIS2_S5_NS_4lessIS2_EELb1EEENS_9allocatorIS5_EEE12__find_equalIS2_EERPNS_16__tree_node_baseIPvEENS_21__tree_const_iteratorIS5_PNS_11__tree_nodeIS5_SF_EElEERPNS_15__tree_end_nodeISH_EESI_RKT_, symObjAddr: 0xB90, symBinAddr: 0x74F0, symSize: 0x1A8 }
  - { offsetInCU: 0x198AA, offset: 0x5E95A, size: 0x8, addend: 0x0, symName: __ZNSt3__16__treeINS_12__value_typeI8llm_archPKcEENS_19__map_value_compareIS2_S5_NS_4lessIS2_EELb1EEENS_9allocatorIS5_EEE12__find_equalIS2_EERPNS_16__tree_node_baseIPvEENS_21__tree_const_iteratorIS5_PNS_11__tree_nodeIS5_SF_EElEERPNS_15__tree_end_nodeISH_EESI_RKT_, symObjAddr: 0xB90, symBinAddr: 0x74F0, symSize: 0x1A8 }
  - { offsetInCU: 0x1A009, offset: 0x5F0B9, size: 0x8, addend: 0x0, symName: __ZNSt3__13mapI6llm_kvPKcNS_4lessIS1_EENS_9allocatorINS_4pairIKS1_S3_EEEEEC2B8ue170006ESt16initializer_listIS9_ERKS5_, symObjAddr: 0xD78, symBinAddr: 0x76D8, symSize: 0xF0 }
  - { offsetInCU: 0x1A3E5, offset: 0x5F495, size: 0x8, addend: 0x0, symName: __ZNSt3__16__treeINS_12__value_typeI6llm_kvPKcEENS_19__map_value_compareIS2_S5_NS_4lessIS2_EELb1EEENS_9allocatorIS5_EEE12__find_equalIS2_EERPNS_16__tree_node_baseIPvEENS_21__tree_const_iteratorIS5_PNS_11__tree_nodeIS5_SF_EElEERPNS_15__tree_end_nodeISH_EESI_RKT_, symObjAddr: 0xE68, symBinAddr: 0x77C8, symSize: 0x1A8 }
  - { offsetInCU: 0x1A44D, offset: 0x5F4FD, size: 0x8, addend: 0x0, symName: __ZNSt3__16__treeINS_12__value_typeI6llm_kvPKcEENS_19__map_value_compareIS2_S5_NS_4lessIS2_EELb1EEENS_9allocatorIS5_EEE12__find_equalIS2_EERPNS_16__tree_node_baseIPvEENS_21__tree_const_iteratorIS5_PNS_11__tree_nodeIS5_SF_EElEERPNS_15__tree_end_nodeISH_EESI_RKT_, symObjAddr: 0xE68, symBinAddr: 0x77C8, symSize: 0x1A8 }
  - { offsetInCU: 0x1A469, offset: 0x5F519, size: 0x8, addend: 0x0, symName: __ZNSt3__16__treeINS_12__value_typeI6llm_kvPKcEENS_19__map_value_compareIS2_S5_NS_4lessIS2_EELb1EEENS_9allocatorIS5_EEE12__find_equalIS2_EERPNS_16__tree_node_baseIPvEENS_21__tree_const_iteratorIS5_PNS_11__tree_nodeIS5_SF_EElEERPNS_15__tree_end_nodeISH_EESI_RKT_, symObjAddr: 0xE68, symBinAddr: 0x77C8, symSize: 0x1A8 }
  - { offsetInCU: 0x1AC45, offset: 0x5FCF5, size: 0x8, addend: 0x0, symName: __ZNSt3__16__treeINS_12__value_typeI8llm_archNS_3mapI10llm_tensorPKcNS_4lessIS4_EENS_9allocatorINS_4pairIKS4_S6_EEEEEEEENS_19__map_value_compareIS2_SF_NS7_IS2_EELb1EEENS9_ISF_EEE12__find_equalIS2_EERPNS_16__tree_node_baseIPvEENS_21__tree_const_iteratorISF_PNS_11__tree_nodeISF_SN_EElEERPNS_15__tree_end_nodeISP_EESQ_RKT_, symObjAddr: 0x1238, symBinAddr: 0x7B98, symSize: 0x1A8 }
  - { offsetInCU: 0x1ACAD, offset: 0x5FD5D, size: 0x8, addend: 0x0, symName: __ZNSt3__16__treeINS_12__value_typeI8llm_archNS_3mapI10llm_tensorPKcNS_4lessIS4_EENS_9allocatorINS_4pairIKS4_S6_EEEEEEEENS_19__map_value_compareIS2_SF_NS7_IS2_EELb1EEENS9_ISF_EEE12__find_equalIS2_EERPNS_16__tree_node_baseIPvEENS_21__tree_const_iteratorISF_PNS_11__tree_nodeISF_SN_EElEERPNS_15__tree_end_nodeISP_EESQ_RKT_, symObjAddr: 0x1238, symBinAddr: 0x7B98, symSize: 0x1A8 }
  - { offsetInCU: 0x1ACC9, offset: 0x5FD79, size: 0x8, addend: 0x0, symName: __ZNSt3__16__treeINS_12__value_typeI8llm_archNS_3mapI10llm_tensorPKcNS_4lessIS4_EENS_9allocatorINS_4pairIKS4_S6_EEEEEEEENS_19__map_value_compareIS2_SF_NS7_IS2_EELb1EEENS9_ISF_EEE12__find_equalIS2_EERPNS_16__tree_node_baseIPvEENS_21__tree_const_iteratorISF_PNS_11__tree_nodeISF_SN_EElEERPNS_15__tree_end_nodeISP_EESQ_RKT_, symObjAddr: 0x1238, symBinAddr: 0x7B98, symSize: 0x1A8 }
  - { offsetInCU: 0x1B440, offset: 0x604F0, size: 0x8, addend: 0x0, symName: __ZNSt3__13mapI10llm_tensor15llm_tensor_infoNS_4lessIS1_EENS_9allocatorINS_4pairIKS1_S2_EEEEEC2B8ue170006ESt16initializer_listIS8_ERKS4_, symObjAddr: 0x142C, symBinAddr: 0x7D8C, symSize: 0xFC }
  - { offsetInCU: 0x1B81C, offset: 0x608CC, size: 0x8, addend: 0x0, symName: __ZNSt3__16__treeINS_12__value_typeI10llm_tensor15llm_tensor_infoEENS_19__map_value_compareIS2_S4_NS_4lessIS2_EELb1EEENS_9allocatorIS4_EEE12__find_equalIS2_EERPNS_16__tree_node_baseIPvEENS_21__tree_const_iteratorIS4_PNS_11__tree_nodeIS4_SE_EElEERPNS_15__tree_end_nodeISG_EESH_RKT_, symObjAddr: 0x1528, symBinAddr: 0x7E88, symSize: 0x1A8 }
  - { offsetInCU: 0x1B884, offset: 0x60934, size: 0x8, addend: 0x0, symName: __ZNSt3__16__treeINS_12__value_typeI10llm_tensor15llm_tensor_infoEENS_19__map_value_compareIS2_S4_NS_4lessIS2_EELb1EEENS_9allocatorIS4_EEE12__find_equalIS2_EERPNS_16__tree_node_baseIPvEENS_21__tree_const_iteratorIS4_PNS_11__tree_nodeIS4_SE_EElEERPNS_15__tree_end_nodeISG_EESH_RKT_, symObjAddr: 0x1528, symBinAddr: 0x7E88, symSize: 0x1A8 }
  - { offsetInCU: 0x1B8A0, offset: 0x60950, size: 0x8, addend: 0x0, symName: __ZNSt3__16__treeINS_12__value_typeI10llm_tensor15llm_tensor_infoEENS_19__map_value_compareIS2_S4_NS_4lessIS2_EELb1EEENS_9allocatorIS4_EEE12__find_equalIS2_EERPNS_16__tree_node_baseIPvEENS_21__tree_const_iteratorIS4_PNS_11__tree_nodeIS4_SE_EElEERPNS_15__tree_end_nodeISG_EESH_RKT_, symObjAddr: 0x1528, symBinAddr: 0x7E88, symSize: 0x1A8 }
  - { offsetInCU: 0x11537, offset: 0x7234D, size: 0x8, addend: 0x0, symName: __ZNSt3__124__put_character_sequenceB8ue170006IcNS_11char_traitsIcEEEERNS_13basic_ostreamIT_T0_EES7_PKS4_m, symObjAddr: 0x5EDC, symBinAddr: 0x12BB0, symSize: 0x164 }
  - { offsetInCU: 0x19FEC, offset: 0x7AE02, size: 0x8, addend: 0x0, symName: __ZNSt3__116__pad_and_outputB8ue170006IcNS_11char_traitsIcEEEENS_19ostreambuf_iteratorIT_T0_EES6_PKS4_S8_S8_RNS_8ios_baseES4_, symObjAddr: 0x6040, symBinAddr: 0x12D14, symSize: 0x194 }
  - { offsetInCU: 0x20031, offset: 0x80E47, size: 0x8, addend: 0x0, symName: __ZN18llama_batch_allocrC2Ej, symObjAddr: 0x0, symBinAddr: 0xCDF0, symSize: 0x2E4 }
  - { offsetInCU: 0x210FB, offset: 0x81F11, size: 0x8, addend: 0x0, symName: __ZNSt3__16vectorINS_3setIiNS_4lessIiEENS_9allocatorIiEEEENS4_IS6_EEE8__appendEm, symObjAddr: 0x4B4C, symBinAddr: 0x11930, symSize: 0x208 }
  - { offsetInCU: 0x21901, offset: 0x82717, size: 0x8, addend: 0x0, symName: __ZNKSt3__16vectorINS_3setIiNS_4lessIiEENS_9allocatorIiEEEENS4_IS6_EEE20__throw_length_errorB8ue170006Ev, symObjAddr: 0x4D54, symBinAddr: 0x11B38, symSize: 0x14 }
  - { offsetInCU: 0x2190C, offset: 0x82722, size: 0x8, addend: 0x0, symName: __ZNSt3__16vectorINS0_IbNS_9allocatorIbEEEENS1_IS3_EEE8__appendEm, symObjAddr: 0x4E04, symBinAddr: 0x11B4C, symSize: 0x1DC }
  - { offsetInCU: 0x21FB2, offset: 0x82DC8, size: 0x8, addend: 0x0, symName: __ZNKSt3__16vectorINS0_IbNS_9allocatorIbEEEENS1_IS3_EEE20__throw_length_errorB8ue170006Ev, symObjAddr: 0x4FE0, symBinAddr: 0x11D28, symSize: 0x14 }
  - { offsetInCU: 0x21FBD, offset: 0x82DD3, size: 0x8, addend: 0x0, symName: __ZNSt3__16vectorIbNS_9allocatorIbEEE6resizeEmb, symObjAddr: 0x2E4, symBinAddr: 0xD0D4, symSize: 0x278 }
  - { offsetInCU: 0x22852, offset: 0x83668, size: 0x8, addend: 0x0, symName: __ZNSt3__16vectorIiNS_9allocatorIiEEE8__appendEmRKi, symObjAddr: 0x5118, symBinAddr: 0x11E60, symSize: 0x268 }
  - { offsetInCU: 0x22D78, offset: 0x83B8E, size: 0x8, addend: 0x0, symName: __ZNKSt3__16vectorIiNS_9allocatorIiEEE20__throw_length_errorB8ue170006Ev, symObjAddr: 0x5380, symBinAddr: 0x120C8, symSize: 0x14 }
  - { offsetInCU: 0x22D83, offset: 0x83B99, size: 0x8, addend: 0x0, symName: __ZNSt3__113unordered_mapINS_6bitsetILm64EEENS_6vectorIiNS_9allocatorIiEEEENS_4hashIS2_EENS_8equal_toIS2_EENS4_INS_4pairIKS2_S6_EEEEED1B8ue170006Ev, symObjAddr: 0x55C, symBinAddr: 0xD34C, symSize: 0x68 }
  - { offsetInCU: 0x231F2, offset: 0x84008, size: 0x8, addend: 0x0, symName: __ZNSt3__16vectorINS0_IbNS_9allocatorIbEEEENS1_IS3_EEED1B8ue170006Ev, symObjAddr: 0x5C4, symBinAddr: 0xD3B4, symSize: 0x68 }
  - { offsetInCU: 0x23498, offset: 0x842AE, size: 0x8, addend: 0x0, symName: __ZNSt3__16vectorINS_3setIiNS_4lessIiEENS_9allocatorIiEEEENS4_IS6_EEED1B8ue170006Ev, symObjAddr: 0x62C, symBinAddr: 0xD41C, symSize: 0x68 }
  - { offsetInCU: 0x238CC, offset: 0x846E2, size: 0x8, addend: 0x0, symName: __ZNSt3__16vectorIbNS_9allocatorIbEEE7reserveEm, symObjAddr: 0x4FF4, symBinAddr: 0x11D3C, symSize: 0x110 }
  - { offsetInCU: 0x23CAF, offset: 0x84AC5, size: 0x8, addend: 0x0, symName: __ZNKSt3__16vectorIbNS_9allocatorIbEEE20__throw_length_errorB8ue170006Ev, symObjAddr: 0x5104, symBinAddr: 0x11E4C, symSize: 0x14 }
  - { offsetInCU: 0x23CC1, offset: 0x84AD7, size: 0x8, addend: 0x0, symName: __ZNKSt3__16vectorIbNS_9allocatorIbEEE20__throw_length_errorB8ue170006Ev, symObjAddr: 0x5104, symBinAddr: 0x11E4C, symSize: 0x14 }
  - { offsetInCU: 0x23CEB, offset: 0x84B01, size: 0x8, addend: 0x0, symName: __ZNSt3__16vectorIiNS_9allocatorIiEEE8__appendEmRKi, symObjAddr: 0x5118, symBinAddr: 0x11E60, symSize: 0x268 }
  - { offsetInCU: 0x24185, offset: 0x84F9B, size: 0x8, addend: 0x0, symName: __ZNSt3__16__treeIiNS_4lessIiEENS_9allocatorIiEEE7destroyEPNS_11__tree_nodeIiPvEE, symObjAddr: 0x4B0C, symBinAddr: 0x118F0, symSize: 0x40 }
  - { offsetInCU: 0x242BF, offset: 0x850D5, size: 0x8, addend: 0x0, symName: __ZN18llama_batch_allocrC1Ej, symObjAddr: 0x694, symBinAddr: 0xD484, symSize: 0x4 }
  - { offsetInCU: 0x242FB, offset: 0x85111, size: 0x8, addend: 0x0, symName: __ZN18llama_batch_allocrC1Ej, symObjAddr: 0x694, symBinAddr: 0xD484, symSize: 0x4 }
  - { offsetInCU: 0x25642, offset: 0x86458, size: 0x8, addend: 0x0, symName: __ZN18llama_batch_allocr4initERK11llama_batchRK11llama_vocabPK14llama_memory_ijjb, symObjAddr: 0x698, symBinAddr: 0xD488, symSize: 0x1710 }
  - { offsetInCU: 0x2829E, offset: 0x890B4, size: 0x8, addend: 0x0, symName: __ZN18llama_batch_allocr5clearEv, symObjAddr: 0x1DA8, symBinAddr: 0xEB98, symSize: 0x1BC }
  - { offsetInCU: 0x28D23, offset: 0x89B39, size: 0x8, addend: 0x0, symName: __ZNSt3__16vectorIiNS_9allocatorIiEEE8__appendEm, symObjAddr: 0x5394, symBinAddr: 0x120DC, symSize: 0x1A4 }
  - { offsetInCU: 0x2919F, offset: 0x89FB5, size: 0x8, addend: 0x0, symName: __ZNSt3__16vectorIPiNS_9allocatorIS1_EEE8__appendEm, symObjAddr: 0x5538, symBinAddr: 0x12280, symSize: 0x11C }
  - { offsetInCU: 0x291AA, offset: 0x89FC0, size: 0x8, addend: 0x0, symName: __ZNSt3__16vectorIPiNS_9allocatorIS1_EEE8__appendEm, symObjAddr: 0x5538, symBinAddr: 0x12280, symSize: 0x11C }
  - { offsetInCU: 0x2963B, offset: 0x8A451, size: 0x8, addend: 0x0, symName: __ZNKSt3__16vectorIPiNS_9allocatorIS1_EEE20__throw_length_errorB8ue170006Ev, symObjAddr: 0x5654, symBinAddr: 0x1239C, symSize: 0x14 }
  - { offsetInCU: 0x29646, offset: 0x8A45C, size: 0x8, addend: 0x0, symName: __ZNSt3__16vectorIaNS_9allocatorIaEEE8__appendEmRKa, symObjAddr: 0x5668, symBinAddr: 0x123B0, symSize: 0x2BC }
  - { offsetInCU: 0x29B51, offset: 0x8A967, size: 0x8, addend: 0x0, symName: __ZNKSt3__16vectorIaNS_9allocatorIaEEE20__throw_length_errorB8ue170006Ev, symObjAddr: 0x5924, symBinAddr: 0x1266C, symSize: 0x14 }
  - { offsetInCU: 0x29B72, offset: 0x8A988, size: 0x8, addend: 0x0, symName: __ZNSt3__112__hash_tableINS_17__hash_value_typeINS_6bitsetILm64EEENS_6vectorIiNS_9allocatorIiEEEEEENS_22__unordered_map_hasherIS3_S8_NS_4hashIS3_EENS_8equal_toIS3_EELb1EEENS_21__unordered_map_equalIS3_S8_SD_SB_Lb1EEENS5_IS8_EEE25__emplace_unique_key_argsIS3_JRKNS_21piecewise_construct_tENS_5tupleIJRKS3_EEENSN_IJEEEEEENS_4pairINS_15__hash_iteratorIPNS_11__hash_nodeIS8_PvEEEEbEERKT_DpOT0_, symObjAddr: 0x59C0, symBinAddr: 0x12694, symSize: 0x324 }
  - { offsetInCU: 0x2A31F, offset: 0x8B135, size: 0x8, addend: 0x0, symName: __ZN18llama_batch_allocr12ubatch_printERK12llama_ubatchi, symObjAddr: 0x1F64, symBinAddr: 0xED54, symSize: 0x850 }
  - { offsetInCU: 0x2B714, offset: 0x8C52A, size: 0x8, addend: 0x0, symName: __ZNSt3__118basic_stringstreamIcNS_11char_traitsIcEENS_9allocatorIcEEEC1B8ue170006Ev, symObjAddr: 0x27B4, symBinAddr: 0xF5A4, symSize: 0x12C }
  - { offsetInCU: 0x2B822, offset: 0x8C638, size: 0x8, addend: 0x0, symName: __ZNKSt3__16vectorINS_6bitsetILm64EEENS_9allocatorIS2_EEE20__throw_length_errorB8ue170006Ev, symObjAddr: 0x59AC, symBinAddr: 0x12680, symSize: 0x14 }
  - { offsetInCU: 0x2B84C, offset: 0x8C662, size: 0x8, addend: 0x0, symName: __ZNSt3__112__hash_tableINS_17__hash_value_typeINS_6bitsetILm64EEENS_6vectorIiNS_9allocatorIiEEEEEENS_22__unordered_map_hasherIS3_S8_NS_4hashIS3_EENS_8equal_toIS3_EELb1EEENS_21__unordered_map_equalIS3_S8_SD_SB_Lb1EEENS5_IS8_EEE25__emplace_unique_key_argsIS3_JRKNS_21piecewise_construct_tENS_5tupleIJRKS3_EEENSN_IJEEEEEENS_4pairINS_15__hash_iteratorIPNS_11__hash_nodeIS8_PvEEEEbEERKT_DpOT0_, symObjAddr: 0x59C0, symBinAddr: 0x12694, symSize: 0x324 }
  - { offsetInCU: 0x2B857, offset: 0x8C66D, size: 0x8, addend: 0x0, symName: __ZNKSt3__16vectorIiNS_9allocatorIiEEE20__throw_length_errorB8ue170006Ev, symObjAddr: 0x5380, symBinAddr: 0x120C8, symSize: 0x14 }
  - { offsetInCU: 0x2B881, offset: 0x8C697, size: 0x8, addend: 0x0, symName: __ZNSt3__16vectorIiNS_9allocatorIiEEE8__appendEm, symObjAddr: 0x5394, symBinAddr: 0x120DC, symSize: 0x1A4 }
  - { offsetInCU: 0x2B8A6, offset: 0x8C6BC, size: 0x8, addend: 0x0, symName: __ZNSt3__118basic_stringstreamIcNS_11char_traitsIcEENS_9allocatorIcEEED1Ev, symObjAddr: 0x2958, symBinAddr: 0xF748, symSize: 0x88 }
  - { offsetInCU: 0x2BA4B, offset: 0x8C861, size: 0x8, addend: 0x0, symName: __ZN12llama_ubatchD1Ev, symObjAddr: 0x29E0, symBinAddr: 0xF7D0, symSize: 0x60 }
  - { offsetInCU: 0x2BFE0, offset: 0x8CDF6, size: 0x8, addend: 0x0, symName: __ZNK18llama_batch_allocr11seq_pos_minEi, symObjAddr: 0x28E0, symBinAddr: 0xF6D0, symSize: 0x28 }
  - { offsetInCU: 0x2C00B, offset: 0x8CE21, size: 0x8, addend: 0x0, symName: __ZNK18llama_batch_allocr11seq_pos_minEi, symObjAddr: 0x28E0, symBinAddr: 0xF6D0, symSize: 0x28 }
  - { offsetInCU: 0x2C080, offset: 0x8CE96, size: 0x8, addend: 0x0, symName: __ZNK18llama_batch_allocr11seq_pos_maxEi, symObjAddr: 0x2908, symBinAddr: 0xF6F8, symSize: 0x50 }
  - { offsetInCU: 0x2C0AB, offset: 0x8CEC1, size: 0x8, addend: 0x0, symName: __ZNK18llama_batch_allocr11seq_pos_maxEi, symObjAddr: 0x2908, symBinAddr: 0xF6F8, symSize: 0x50 }
  - { offsetInCU: 0x2C21C, offset: 0x8D032, size: 0x8, addend: 0x0, symName: __ZN18llama_batch_allocr11split_resetEv, symObjAddr: 0x2A40, symBinAddr: 0xF830, symSize: 0x24 }
  - { offsetInCU: 0x2C240, offset: 0x8D056, size: 0x8, addend: 0x0, symName: __ZN18llama_batch_allocr11split_resetEv, symObjAddr: 0x2A40, symBinAddr: 0xF830, symSize: 0x24 }
  - { offsetInCU: 0x2C265, offset: 0x8D07B, size: 0x8, addend: 0x0, symName: __ZN18llama_batch_allocr11split_resetEv, symObjAddr: 0x2A40, symBinAddr: 0xF830, symSize: 0x24 }
  - { offsetInCU: 0x2C953, offset: 0x8D769, size: 0x8, addend: 0x0, symName: __ZN18llama_batch_allocr14ubatch_reserveEjj, symObjAddr: 0x2A64, symBinAddr: 0xF854, symSize: 0x5A4 }
  - { offsetInCU: 0x2DACB, offset: 0x8E8E1, size: 0x8, addend: 0x0, symName: __ZNSt3__110shared_ptrIN12llama_ubatch6data_tEED1B8ue170006Ev, symObjAddr: 0x3008, symBinAddr: 0xFDF8, symSize: 0x60 }
  - { offsetInCU: 0x2DB62, offset: 0x8E978, size: 0x8, addend: 0x0, symName: __ZNK18llama_batch_allocr9get_batchEv, symObjAddr: 0x3068, symBinAddr: 0xFE58, symSize: 0x4 }
  - { offsetInCU: 0x2DB8A, offset: 0x8E9A0, size: 0x8, addend: 0x0, symName: __ZNK18llama_batch_allocr12get_n_tokensEv, symObjAddr: 0x306C, symBinAddr: 0xFE5C, symSize: 0x8 }
  - { offsetInCU: 0x2DBAC, offset: 0x8E9C2, size: 0x8, addend: 0x0, symName: __ZNK18llama_batch_allocr13get_n_outputsEv, symObjAddr: 0x3074, symBinAddr: 0xFE64, symSize: 0x8 }
  - { offsetInCU: 0x2DBD6, offset: 0x8E9EC, size: 0x8, addend: 0x0, symName: __ZNK18llama_batch_allocr10get_n_usedEv, symObjAddr: 0x307C, symBinAddr: 0xFE6C, symSize: 0x8 }
  - { offsetInCU: 0x2DC00, offset: 0x8EA16, size: 0x8, addend: 0x0, symName: __ZN18llama_batch_allocr11get_out_idsEv, symObjAddr: 0x3084, symBinAddr: 0xFE74, symSize: 0x8 }
  - { offsetInCU: 0x2DC2A, offset: 0x8EA40, size: 0x8, addend: 0x0, symName: __ZN18llama_batch_allocr12split_simpleEj, symObjAddr: 0x308C, symBinAddr: 0xFE7C, symSize: 0x338 }
  - { offsetInCU: 0x2E4CB, offset: 0x8F2E1, size: 0x8, addend: 0x0, symName: __ZN18llama_batch_allocr10ubatch_addERKNSt3__16vectorIiNS0_9allocatorIiEEEEjb, symObjAddr: 0x33C4, symBinAddr: 0x101B4, symSize: 0x944 }
  - { offsetInCU: 0x2FDBD, offset: 0x90BD3, size: 0x8, addend: 0x0, symName: __ZNSt3__16vectorIfNS_9allocatorIfEEE8__appendEm, symObjAddr: 0x6694, symBinAddr: 0x13354, symSize: 0x1A4 }
  - { offsetInCU: 0x30239, offset: 0x9104F, size: 0x8, addend: 0x0, symName: __ZNKSt3__16vectorIfNS_9allocatorIfEEE20__throw_length_errorB8ue170006Ev, symObjAddr: 0x6838, symBinAddr: 0x134F8, symSize: 0x14 }
  - { offsetInCU: 0x3055D, offset: 0x91373, size: 0x8, addend: 0x0, symName: __ZN18llama_batch_allocr11split_equalEjb, symObjAddr: 0x3D08, symBinAddr: 0x10AF8, symSize: 0x7E0 }
  - { offsetInCU: 0x32051, offset: 0x92E67, size: 0x8, addend: 0x0, symName: __ZNSt3__16vectorINS0_IiNS_9allocatorIiEEEENS1_IS3_EEEC1Em, symObjAddr: 0x44E8, symBinAddr: 0x112D8, symSize: 0xCC }
  - { offsetInCU: 0x322BE, offset: 0x930D4, size: 0x8, addend: 0x0, symName: __ZNSt3__16vectorIiNS_9allocatorIiEEE18__insert_with_sizeB8ue170006INS_11__wrap_iterIPiEES7_EES7_NS5_IPKiEET_T0_l, symObjAddr: 0x62E0, symBinAddr: 0x12FA0, symSize: 0x3B4 }
  - { offsetInCU: 0x32F70, offset: 0x93D86, size: 0x8, addend: 0x0, symName: __ZNSt3__16vectorIfNS_9allocatorIfEEE8__appendEm, symObjAddr: 0x6694, symBinAddr: 0x13354, symSize: 0x1A4 }
  - { offsetInCU: 0x32F8D, offset: 0x93DA3, size: 0x8, addend: 0x0, symName: __ZNSt3__16vectorINS0_IiNS_9allocatorIiEEEENS1_IS3_EEED1B8ue170006Ev, symObjAddr: 0x45B4, symBinAddr: 0x113A4, symSize: 0x74 }
  - { offsetInCU: 0x33413, offset: 0x94229, size: 0x8, addend: 0x0, symName: __ZNKSt3__16vectorINS0_IiNS_9allocatorIiEEEENS1_IS3_EEE20__throw_length_errorB8ue170006Ev, symObjAddr: 0x62CC, symBinAddr: 0x12F8C, symSize: 0x14 }
  - { offsetInCU: 0x3343D, offset: 0x94253, size: 0x8, addend: 0x0, symName: __ZNSt3__16vectorIiNS_9allocatorIiEEE18__insert_with_sizeB8ue170006INS_11__wrap_iterIPiEES7_EES7_NS5_IPKiEET_T0_l, symObjAddr: 0x62E0, symBinAddr: 0x12FA0, symSize: 0x3B4 }
  - { offsetInCU: 0x33448, offset: 0x9425E, size: 0x8, addend: 0x0, symName: __ZNSt3__16vectorINS0_IiNS_9allocatorIiEEEENS1_IS3_EEEC1Em.cold.1, symObjAddr: 0x684C, symBinAddr: 0x1FD014, symSize: 0x64 }
  - { offsetInCU: 0x33723, offset: 0x94539, size: 0x8, addend: 0x0, symName: __ZN18llama_batch_allocr9split_seqEj, symObjAddr: 0x4628, symBinAddr: 0x11418, symSize: 0x360 }
  - { offsetInCU: 0x340CC, offset: 0x94EE2, size: 0x8, addend: 0x0, symName: _llama_batch_get_one, symObjAddr: 0x4988, symBinAddr: 0x11778, symSize: 0x1C }
  - { offsetInCU: 0x34106, offset: 0x94F1C, size: 0x8, addend: 0x0, symName: _llama_batch_init, symObjAddr: 0x49A4, symBinAddr: 0x11794, symSize: 0xCC }
  - { offsetInCU: 0x34183, offset: 0x94F99, size: 0x8, addend: 0x0, symName: _llama_batch_free, symObjAddr: 0x4A70, symBinAddr: 0x11860, symSize: 0x90 }
  - { offsetInCU: 0x347FD, offset: 0x95613, size: 0x8, addend: 0x0, symName: __ZNKSt3__16vectorINS_3setIiNS_4lessIiEENS_9allocatorIiEEEENS4_IS6_EEE20__throw_length_errorB8ue170006Ev, symObjAddr: 0x4D54, symBinAddr: 0x11B38, symSize: 0x14 }
  - { offsetInCU: 0x34C5D, offset: 0x95A73, size: 0x8, addend: 0x0, symName: __ZNKSt3__16vectorINS0_IbNS_9allocatorIbEEEENS1_IS3_EEE20__throw_length_errorB8ue170006Ev, symObjAddr: 0x4FE0, symBinAddr: 0x11D28, symSize: 0x14 }
  - { offsetInCU: 0x34C87, offset: 0x95A9D, size: 0x8, addend: 0x0, symName: __ZNSt3__16vectorIbNS_9allocatorIbEEE7reserveEm, symObjAddr: 0x4FF4, symBinAddr: 0x11D3C, symSize: 0x110 }
  - { offsetInCU: 0x3529F, offset: 0x960B5, size: 0x8, addend: 0x0, symName: __ZNKSt3__16vectorIPiNS_9allocatorIS1_EEE20__throw_length_errorB8ue170006Ev, symObjAddr: 0x5654, symBinAddr: 0x1239C, symSize: 0x14 }
  - { offsetInCU: 0x352C9, offset: 0x960DF, size: 0x8, addend: 0x0, symName: __ZNSt3__16vectorIaNS_9allocatorIaEEE8__appendEmRKa, symObjAddr: 0x5668, symBinAddr: 0x123B0, symSize: 0x2BC }
  - { offsetInCU: 0x353E5, offset: 0x961FB, size: 0x8, addend: 0x0, symName: __ZNKSt3__16vectorIaNS_9allocatorIaEEE20__throw_length_errorB8ue170006Ev, symObjAddr: 0x5924, symBinAddr: 0x1266C, symSize: 0x14 }
  - { offsetInCU: 0x35A2D, offset: 0x96843, size: 0x8, addend: 0x0, symName: __ZNSt3__112__hash_tableINS_17__hash_value_typeINS_6bitsetILm64EEENS_6vectorIiNS_9allocatorIiEEEEEENS_22__unordered_map_hasherIS3_S8_NS_4hashIS3_EENS_8equal_toIS3_EELb1EEENS_21__unordered_map_equalIS3_S8_SD_SB_Lb1EEENS5_IS8_EEE11__do_rehashILb1EEEvm, symObjAddr: 0x5D30, symBinAddr: 0x12A04, symSize: 0x1AC }
  - { offsetInCU: 0x35E8D, offset: 0x96CA3, size: 0x8, addend: 0x0, symName: __ZNSt3__124__put_character_sequenceB8ue170006IcNS_11char_traitsIcEEEERNS_13basic_ostreamIT_T0_EES7_PKS4_m, symObjAddr: 0x5EDC, symBinAddr: 0x12BB0, symSize: 0x164 }
  - { offsetInCU: 0x35EA2, offset: 0x96CB8, size: 0x8, addend: 0x0, symName: __ZNSt3__110unique_ptrINS_11__hash_nodeINS_17__hash_value_typeINS_6bitsetILm64EEENS_6vectorIiNS_9allocatorIiEEEEEEPvEENS_22__hash_node_destructorINS6_ISB_EEEEED1B8ue170006Ev, symObjAddr: 0x5CE4, symBinAddr: 0x129B8, symSize: 0x4C }
  - { offsetInCU: 0x3668C, offset: 0x974A2, size: 0x8, addend: 0x0, symName: __ZNSt3__120__shared_ptr_emplaceIN12llama_ubatch6data_tENS_9allocatorIS2_EEED1Ev, symObjAddr: 0x61E8, symBinAddr: 0x12EA8, symSize: 0x14 }
  - { offsetInCU: 0x366B4, offset: 0x974CA, size: 0x8, addend: 0x0, symName: __ZNSt3__120__shared_ptr_emplaceIN12llama_ubatch6data_tENS_9allocatorIS2_EEED1Ev, symObjAddr: 0x61E8, symBinAddr: 0x12EA8, symSize: 0x14 }
  - { offsetInCU: 0x366D6, offset: 0x974EC, size: 0x8, addend: 0x0, symName: __ZNSt3__120__shared_ptr_emplaceIN12llama_ubatch6data_tENS_9allocatorIS2_EEED1Ev, symObjAddr: 0x61E8, symBinAddr: 0x12EA8, symSize: 0x14 }
  - { offsetInCU: 0x3670E, offset: 0x97524, size: 0x8, addend: 0x0, symName: __ZNSt3__120__shared_ptr_emplaceIN12llama_ubatch6data_tENS_9allocatorIS2_EEED0Ev, symObjAddr: 0x61FC, symBinAddr: 0x12EBC, symSize: 0x24 }
  - { offsetInCU: 0x367A6, offset: 0x975BC, size: 0x8, addend: 0x0, symName: __ZNSt3__120__shared_ptr_emplaceIN12llama_ubatch6data_tENS_9allocatorIS2_EEE16__on_zero_sharedEv, symObjAddr: 0x6220, symBinAddr: 0x12EE0, symSize: 0x8 }
  - { offsetInCU: 0x367CF, offset: 0x975E5, size: 0x8, addend: 0x0, symName: __ZNSt3__120__shared_ptr_emplaceIN12llama_ubatch6data_tENS_9allocatorIS2_EEE16__on_zero_sharedEv, symObjAddr: 0x6220, symBinAddr: 0x12EE0, symSize: 0x8 }
  - { offsetInCU: 0x36815, offset: 0x9762B, size: 0x8, addend: 0x0, symName: __ZN12llama_ubatch6data_tD2Ev, symObjAddr: 0x622C, symBinAddr: 0x12EEC, symSize: 0xA0 }
  - { offsetInCU: 0x372CC, offset: 0x980E2, size: 0x8, addend: 0x0, symName: __ZNSt3__120__shared_ptr_emplaceIN12llama_ubatch6data_tENS_9allocatorIS2_EEE21__on_zero_shared_weakEv, symObjAddr: 0x6228, symBinAddr: 0x12EE8, symSize: 0x4 }
  - { offsetInCU: 0x372FF, offset: 0x98115, size: 0x8, addend: 0x0, symName: __ZNSt3__120__shared_ptr_emplaceIN12llama_ubatch6data_tENS_9allocatorIS2_EEE21__on_zero_shared_weakEv, symObjAddr: 0x6228, symBinAddr: 0x12EE8, symSize: 0x4 }
  - { offsetInCU: 0x37322, offset: 0x98138, size: 0x8, addend: 0x0, symName: __ZNSt3__120__shared_ptr_emplaceIN12llama_ubatch6data_tENS_9allocatorIS2_EEE21__on_zero_shared_weakEv, symObjAddr: 0x6228, symBinAddr: 0x12EE8, symSize: 0x4 }
  - { offsetInCU: 0x37345, offset: 0x9815B, size: 0x8, addend: 0x0, symName: __ZNSt3__120__shared_ptr_emplaceIN12llama_ubatch6data_tENS_9allocatorIS2_EEE21__on_zero_shared_weakEv, symObjAddr: 0x6228, symBinAddr: 0x12EE8, symSize: 0x4 }
  - { offsetInCU: 0x37374, offset: 0x9818A, size: 0x8, addend: 0x0, symName: __ZNSt3__120__shared_ptr_emplaceIN12llama_ubatch6data_tENS_9allocatorIS2_EEE21__on_zero_shared_weakEv, symObjAddr: 0x6228, symBinAddr: 0x12EE8, symSize: 0x4 }
  - { offsetInCU: 0x3739C, offset: 0x981B2, size: 0x8, addend: 0x0, symName: __ZNSt3__120__shared_ptr_emplaceIN12llama_ubatch6data_tENS_9allocatorIS2_EEE21__on_zero_shared_weakEv, symObjAddr: 0x6228, symBinAddr: 0x12EE8, symSize: 0x4 }
  - { offsetInCU: 0x37AB0, offset: 0x988C6, size: 0x8, addend: 0x0, symName: __ZNKSt3__16vectorIfNS_9allocatorIfEEE20__throw_length_errorB8ue170006Ev, symObjAddr: 0x6838, symBinAddr: 0x134F8, symSize: 0x14 }
  - { offsetInCU: 0x37ADA, offset: 0x988F0, size: 0x8, addend: 0x0, symName: __ZNSt3__16vectorINS0_IiNS_9allocatorIiEEEENS1_IS3_EEEC1Em.cold.1, symObjAddr: 0x684C, symBinAddr: 0x1FD014, symSize: 0x64 }
  - { offsetInCU: 0x52, offset: 0x98982, size: 0x8, addend: 0x0, symName: __ZL18LLM_CHAT_TEMPLATES, symObjAddr: 0x92878, symBinAddr: 0x2D9308, symSize: 0x0 }
  - { offsetInCU: 0x9090, offset: 0xA19C0, size: 0x8, addend: 0x0, symName: __ZNSt3__1eqB8ue170006IcNS_11char_traitsIcEENS_9allocatorIcEEEEbRKNS_12basic_stringIT_T0_T1_EEPKS6_, symObjAddr: 0x5174, symBinAddr: 0x184B4, symSize: 0x98 }
  - { offsetInCU: 0xC4D1, offset: 0xA4E01, size: 0x8, addend: 0x0, symName: __ZNSt3__13mapINS_12basic_stringIcNS_11char_traitsIcEENS_9allocatorIcEEEE17llm_chat_templateNS_4lessIS6_EENS4_INS_4pairIKS6_S7_EEEEED1B8ue170006Ev, symObjAddr: 0x0, symBinAddr: 0x1350C, symSize: 0x28 }
  - { offsetInCU: 0xC585, offset: 0xA4EB5, size: 0x8, addend: 0x0, symName: __ZNSt3__16__treeINS_12__value_typeINS_12basic_stringIcNS_11char_traitsIcEENS_9allocatorIcEEEE17llm_chat_templateEENS_19__map_value_compareIS7_S9_NS_4lessIS7_EELb1EEENS5_IS9_EEE7destroyEPNS_11__tree_nodeIS9_PvEE, symObjAddr: 0x5CD4, symBinAddr: 0x18CBC, symSize: 0x60 }
  - { offsetInCU: 0xCA57, offset: 0xA5387, size: 0x8, addend: 0x0, symName: __Z26llm_chat_template_from_strRKNSt3__112basic_stringIcNS_11char_traitsIcEENS_9allocatorIcEEEE, symObjAddr: 0x28, symBinAddr: 0x13534, symSize: 0xF0 }
  - { offsetInCU: 0xCCF5, offset: 0xA5625, size: 0x8, addend: 0x0, symName: __Z24llm_chat_detect_templateRKNSt3__112basic_stringIcNS_11char_traitsIcEENS_9allocatorIcEEEE, symObjAddr: 0x118, symBinAddr: 0x13624, symSize: 0x7C8 }
  - { offsetInCU: 0xD2C1, offset: 0xA5BF1, size: 0x8, addend: 0x0, symName: '__ZZ24llm_chat_detect_templateRKNSt3__112basic_stringIcNS_11char_traitsIcEENS_9allocatorIcEEEEENK3$_0clEPKc', symObjAddr: 0x8E0, symBinAddr: 0x13DEC, symSize: 0xE0 }
  - { offsetInCU: 0xD4BB, offset: 0xA5DEB, size: 0x8, addend: 0x0, symName: __ZNKSt3__112basic_stringIcNS_11char_traitsIcEENS_9allocatorIcEEE4findB8ue170006EPKcm, symObjAddr: 0x9C0, symBinAddr: 0x13ECC, symSize: 0xF4 }
  - { offsetInCU: 0xDE64, offset: 0xA6794, size: 0x8, addend: 0x0, symName: __Z23llm_chat_apply_template17llm_chat_templateRKNSt3__16vectorIPK18llama_chat_messageNS0_9allocatorIS4_EEEERNS0_12basic_stringIcNS0_11char_traitsIcEENS5_IcEEEEb, symObjAddr: 0xAB4, symBinAddr: 0x13FC0, symSize: 0x44F4 }
  - { offsetInCU: 0x1E6A8, offset: 0xB6FD8, size: 0x8, addend: 0x0, symName: __ZL4trimRKNSt3__112basic_stringIcNS_11char_traitsIcEENS_9allocatorIcEEEE, symObjAddr: 0x520C, symBinAddr: 0x1854C, symSize: 0x1A8 }
  - { offsetInCU: 0x1EEDC, offset: 0xB780C, size: 0x8, addend: 0x0, symName: __ZNSt3__1eqB8ue170006IcNS_11char_traitsIcEENS_9allocatorIcEEEEbRKNS_12basic_stringIT_T0_T1_EEPKS6_, symObjAddr: 0x5174, symBinAddr: 0x184B4, symSize: 0x98 }
  - { offsetInCU: 0x1F330, offset: 0xB7C60, size: 0x8, addend: 0x0, symName: _llama_chat_builtin_templates, symObjAddr: 0x543C, symBinAddr: 0x186F4, symSize: 0x90 }
  - { offsetInCU: 0x1F848, offset: 0xB8178, size: 0x8, addend: 0x0, symName: __ZNSt3__16__treeINS_12__value_typeINS_12basic_stringIcNS_11char_traitsIcEENS_9allocatorIcEEEE17llm_chat_templateEENS_19__map_value_compareIS7_S9_NS_4lessIS7_EELb1EEENS5_IS9_EEE30__emplace_hint_unique_key_argsIS7_JRKNS_4pairIKS7_S8_EEEEENSH_INS_15__tree_iteratorIS9_PNS_11__tree_nodeIS9_PvEElEEbEENS_21__tree_const_iteratorIS9_SQ_lEERKT_DpOT0_, symObjAddr: 0x55E8, symBinAddr: 0x18784, symSize: 0x140 }
  - { offsetInCU: 0x1FF94, offset: 0xB88C4, size: 0x8, addend: 0x0, symName: __ZNSt3__16__treeINS_12__value_typeINS_12basic_stringIcNS_11char_traitsIcEENS_9allocatorIcEEEE17llm_chat_templateEENS_19__map_value_compareIS7_S9_NS_4lessIS7_EELb1EEENS5_IS9_EEE12__find_equalIS7_EERPNS_16__tree_node_baseIPvEENS_21__tree_const_iteratorIS9_PNS_11__tree_nodeIS9_SI_EElEERPNS_15__tree_end_nodeISK_EESL_RKT_, symObjAddr: 0x5728, symBinAddr: 0x188C4, symSize: 0x3F8 }
  - { offsetInCU: 0x5C, offset: 0xB9947, size: 0x8, addend: 0x0, symName: __ZNSt3__119piecewise_constructE, symObjAddr: 0xC578, symBinAddr: 0x20DA98, symSize: 0x0 }
  - { offsetInCU: 0x2D36C, offset: 0xE6C57, size: 0x8, addend: 0x0, symName: __ZNK13llama_context12graph_get_cbEv, symObjAddr: 0x60DC, symBinAddr: 0x1F898, symSize: 0x14 }
  - { offsetInCU: 0x2D3C8, offset: 0xE6CB3, size: 0x8, addend: 0x0, symName: __ZNK13llama_context12graph_get_cbEv, symObjAddr: 0x60DC, symBinAddr: 0x1F898, symSize: 0x14 }
  - { offsetInCU: 0x2D3EB, offset: 0xE6CD6, size: 0x8, addend: 0x0, symName: __ZNK13llama_context12graph_get_cbEv, symObjAddr: 0x60DC, symBinAddr: 0x1F898, symSize: 0x14 }
  - { offsetInCU: 0x2D40E, offset: 0xE6CF9, size: 0x8, addend: 0x0, symName: __ZNK13llama_context12graph_get_cbEv, symObjAddr: 0x60DC, symBinAddr: 0x1F898, symSize: 0x14 }
  - { offsetInCU: 0x2D42A, offset: 0xE6D15, size: 0x8, addend: 0x0, symName: __ZNK13llama_context12graph_get_cbEv, symObjAddr: 0x60DC, symBinAddr: 0x1F898, symSize: 0x14 }
  - { offsetInCU: 0x2D446, offset: 0xE6D31, size: 0x8, addend: 0x0, symName: __ZNK13llama_context12graph_get_cbEv, symObjAddr: 0x60DC, symBinAddr: 0x1F898, symSize: 0x14 }
  - { offsetInCU: 0x2D462, offset: 0xE6D4D, size: 0x8, addend: 0x0, symName: __ZNK13llama_context12graph_get_cbEv, symObjAddr: 0x60DC, symBinAddr: 0x1F898, symSize: 0x14 }
  - { offsetInCU: 0x2D47E, offset: 0xE6D69, size: 0x8, addend: 0x0, symName: __ZNK13llama_context12graph_get_cbEv, symObjAddr: 0x60DC, symBinAddr: 0x1F898, symSize: 0x14 }
  - { offsetInCU: 0x314BE, offset: 0xEADA9, size: 0x8, addend: 0x0, symName: __ZN13llama_contextC2ERK11llama_model20llama_context_params, symObjAddr: 0x0, symBinAddr: 0x1985C, symSize: 0x1570 }
  - { offsetInCU: 0x34BAE, offset: 0xEE499, size: 0x8, addend: 0x0, symName: __ZNSt3__16vectorINS_10unique_ptrI12ggml_backend20ggml_backend_deleterEENS_9allocatorIS4_EEE24__emplace_back_slow_pathIJRPS2_EEEvDpOT_, symObjAddr: 0xA79C, symBinAddr: 0x23E54, symSize: 0x128 }
  - { offsetInCU: 0x3524B, offset: 0xEEB36, size: 0x8, addend: 0x0, symName: __ZN13llama_context14output_reserveEi, symObjAddr: 0x1614, symBinAddr: 0x1AE70, symSize: 0x1F8 }
  - { offsetInCU: 0x356B6, offset: 0xEEFA1, size: 0x8, addend: 0x0, symName: __ZN13llama_context13graph_reserveEjjjPK22llama_memory_context_i, symObjAddr: 0x1834, symBinAddr: 0x1B090, symSize: 0x334 }
  - { offsetInCU: 0x35F4D, offset: 0xEF838, size: 0x8, addend: 0x0, symName: __ZNKSt3__16vectorINS_4pairIP12ggml_backendPFvS3_iEEENS_9allocatorIS6_EEE20__throw_length_errorB8ue170006Ev, symObjAddr: 0xA8D8, symBinAddr: 0x23F90, symSize: 0x14 }
  - { offsetInCU: 0x35F82, offset: 0xEF86D, size: 0x8, addend: 0x0, symName: __ZNKSt3__16vectorIP12ggml_backendNS_9allocatorIS2_EEE20__throw_length_errorB8ue170006Ev, symObjAddr: 0xA900, symBinAddr: 0x23FA4, symSize: 0x14 }
  - { offsetInCU: 0x35FAC, offset: 0xEF897, size: 0x8, addend: 0x0, symName: __ZNSt3__112__hash_tableINS_17__hash_value_typeIP18llama_adapter_lorafEENS_22__unordered_map_hasherIS3_S4_NS_4hashIS3_EENS_8equal_toIS3_EELb1EEENS_21__unordered_map_equalIS3_S4_S9_S7_Lb1EEENS_9allocatorIS4_EEE25__emplace_unique_key_argsIS3_JRKNS_21piecewise_construct_tENS_5tupleIJRKS3_EEENSK_IJEEEEEENS_4pairINS_15__hash_iteratorIPNS_11__hash_nodeIS4_PvEEEEbEERKT_DpOT0_, symObjAddr: 0xA914, symBinAddr: 0x23FB8, symSize: 0x350 }
  - { offsetInCU: 0x35FCF, offset: 0xEF8BA, size: 0x8, addend: 0x0, symName: __ZNKSt3__16vectorIP12ggml_backendNS_9allocatorIS2_EEE20__throw_length_errorB8ue170006Ev, symObjAddr: 0xA900, symBinAddr: 0x23FA4, symSize: 0x14 }
  - { offsetInCU: 0x3603E, offset: 0xEF929, size: 0x8, addend: 0x0, symName: __ZNSt3__16vectorINS_10unique_ptrI12ggml_backend20ggml_backend_deleterEENS_9allocatorIS4_EEED1B8ue170006Ev, symObjAddr: 0x1B9C, symBinAddr: 0x1B3C4, symSize: 0x70 }
  - { offsetInCU: 0x36240, offset: 0xEFB2B, size: 0x8, addend: 0x0, symName: __ZNSt3__110unique_ptrI18ggml_backend_sched26ggml_backend_sched_deleterED1B8ue170006Ev, symObjAddr: 0x1C0C, symBinAddr: 0x1B434, symSize: 0x34 }
  - { offsetInCU: 0x362D4, offset: 0xEFBBF, size: 0x8, addend: 0x0, symName: __ZNSt3__110unique_ptrI18llama_batch_allocrNS_14default_deleteIS1_EEED1B8ue170006Ev, symObjAddr: 0x1C40, symBinAddr: 0x1B468, symSize: 0x34 }
  - { offsetInCU: 0x3638F, offset: 0xEFC7A, size: 0x8, addend: 0x0, symName: __ZNSt3__16__treeINS_12__value_typeIiNS_6vectorIfNS_9allocatorIfEEEEEENS_19__map_value_compareIiS6_NS_4lessIiEELb1EEENS3_IS6_EEE7destroyEPNS_11__tree_nodeIS6_PvEE, symObjAddr: 0xA74C, symBinAddr: 0x23E04, symSize: 0x50 }
  - { offsetInCU: 0x3666E, offset: 0xEFF59, size: 0x8, addend: 0x0, symName: __ZN11llama_crossD1Ev, symObjAddr: 0x1C74, symBinAddr: 0x1B49C, symSize: 0x78 }
  - { offsetInCU: 0x36A21, offset: 0xF030C, size: 0x8, addend: 0x0, symName: __ZNSt3__113unordered_mapIP18llama_adapter_lorafNS_4hashIS2_EENS_8equal_toIS2_EENS_9allocatorINS_4pairIKS2_fEEEEED1B8ue170006Ev, symObjAddr: 0x1CEC, symBinAddr: 0x1B514, symSize: 0x48 }
  - { offsetInCU: 0x36CF8, offset: 0xF05E3, size: 0x8, addend: 0x0, symName: __ZN18llama_adapter_cvecD2Ev, symObjAddr: 0x9D10, symBinAddr: 0x2348C, symSize: 0xC8 }
  - { offsetInCU: 0x37256, offset: 0xF0B41, size: 0x8, addend: 0x0, symName: _llama_set_abort_callback, symObjAddr: 0x1570, symBinAddr: 0x1ADCC, symSize: 0xA4 }
  - { offsetInCU: 0x377D6, offset: 0xF10C1, size: 0x8, addend: 0x0, symName: __ZNK13llama_context15graph_max_nodesEv, symObjAddr: 0x180C, symBinAddr: 0x1B068, symSize: 0x28 }
  - { offsetInCU: 0x37E04, offset: 0xF16EF, size: 0x8, addend: 0x0, symName: __ZN18llama_batch_allocrD2Ev, symObjAddr: 0x9DD8, symBinAddr: 0x23554, symSize: 0x174 }
  - { offsetInCU: 0x39280, offset: 0xF2B6B, size: 0x8, addend: 0x0, symName: __ZN16llm_graph_paramsD1Ev, symObjAddr: 0x38D4, symBinAddr: 0x1D0F0, symSize: 0x94 }
  - { offsetInCU: 0x39BF3, offset: 0xF34DE, size: 0x8, addend: 0x0, symName: __ZN13llama_contextC1ERK11llama_model20llama_context_params, symObjAddr: 0x1D34, symBinAddr: 0x1B55C, symSize: 0x4 }
  - { offsetInCU: 0x39C25, offset: 0xF3510, size: 0x8, addend: 0x0, symName: __ZN13llama_contextC1ERK11llama_model20llama_context_params, symObjAddr: 0x1D34, symBinAddr: 0x1B55C, symSize: 0x4 }
  - { offsetInCU: 0x39CE4, offset: 0xF35CF, size: 0x8, addend: 0x0, symName: __ZN13llama_contextD2Ev, symObjAddr: 0x1D38, symBinAddr: 0x1B560, symSize: 0x1DC }
  - { offsetInCU: 0x3B0B4, offset: 0xF499F, size: 0x8, addend: 0x0, symName: __ZN13llama_contextD1Ev, symObjAddr: 0x1F20, symBinAddr: 0x1B73C, symSize: 0x4 }
  - { offsetInCU: 0x3B0D7, offset: 0xF49C2, size: 0x8, addend: 0x0, symName: __ZN13llama_contextD1Ev, symObjAddr: 0x1F20, symBinAddr: 0x1B73C, symSize: 0x4 }
  - { offsetInCU: 0x3B0EA, offset: 0xF49D5, size: 0x8, addend: 0x0, symName: __ZN13llama_context11synchronizeEv, symObjAddr: 0x1F24, symBinAddr: 0x1B740, symSize: 0xF4 }
  - { offsetInCU: 0x3B17F, offset: 0xF4A6A, size: 0x8, addend: 0x0, symName: __ZNK13llama_context9get_modelEv, symObjAddr: 0x2018, symBinAddr: 0x1B834, symSize: 0x8 }
  - { offsetInCU: 0x3B1A1, offset: 0xF4A8C, size: 0x8, addend: 0x0, symName: __ZNK13llama_context11get_cparamsEv, symObjAddr: 0x2020, symBinAddr: 0x1B83C, symSize: 0x8 }
  - { offsetInCU: 0x3B1CB, offset: 0xF4AB6, size: 0x8, addend: 0x0, symName: __ZNK13llama_context9get_schedEv, symObjAddr: 0x2028, symBinAddr: 0x1B844, symSize: 0x8 }
  - { offsetInCU: 0x3B1F8, offset: 0xF4AE3, size: 0x8, addend: 0x0, symName: __ZNK13llama_context9get_schedEv, symObjAddr: 0x2028, symBinAddr: 0x1B844, symSize: 0x8 }
  - { offsetInCU: 0x3B215, offset: 0xF4B00, size: 0x8, addend: 0x0, symName: __ZNK13llama_context5n_ctxEv, symObjAddr: 0x2030, symBinAddr: 0x1B84C, symSize: 0x8 }
  - { offsetInCU: 0x3B237, offset: 0xF4B22, size: 0x8, addend: 0x0, symName: __ZNK13llama_context13n_ctx_per_seqEv, symObjAddr: 0x2038, symBinAddr: 0x1B854, symSize: 0x10 }
  - { offsetInCU: 0x3B261, offset: 0xF4B4C, size: 0x8, addend: 0x0, symName: __ZNK13llama_context7n_batchEv, symObjAddr: 0x2048, symBinAddr: 0x1B864, symSize: 0x8 }
  - { offsetInCU: 0x3B283, offset: 0xF4B6E, size: 0x8, addend: 0x0, symName: __ZNK13llama_context8n_ubatchEv, symObjAddr: 0x2050, symBinAddr: 0x1B86C, symSize: 0x8 }
  - { offsetInCU: 0x3B2A5, offset: 0xF4B90, size: 0x8, addend: 0x0, symName: __ZNK13llama_context9n_seq_maxEv, symObjAddr: 0x2058, symBinAddr: 0x1B874, symSize: 0x8 }
  - { offsetInCU: 0x3B2C7, offset: 0xF4BB2, size: 0x8, addend: 0x0, symName: __ZNK13llama_context9n_threadsEv, symObjAddr: 0x2060, symBinAddr: 0x1B87C, symSize: 0x8 }
  - { offsetInCU: 0x3B2E9, offset: 0xF4BD4, size: 0x8, addend: 0x0, symName: __ZNK13llama_context15n_threads_batchEv, symObjAddr: 0x2068, symBinAddr: 0x1B884, symSize: 0x8 }
  - { offsetInCU: 0x3B321, offset: 0xF4C0C, size: 0x8, addend: 0x0, symName: __ZNK13llama_context10get_memoryEv, symObjAddr: 0x2070, symBinAddr: 0x1B88C, symSize: 0x8 }
  - { offsetInCU: 0x3B346, offset: 0xF4C31, size: 0x8, addend: 0x0, symName: __ZNK13llama_context10get_memoryEv, symObjAddr: 0x2070, symBinAddr: 0x1B88C, symSize: 0x8 }
  - { offsetInCU: 0x3B363, offset: 0xF4C4E, size: 0x8, addend: 0x0, symName: __ZN13llama_context20kv_self_defrag_schedEv, symObjAddr: 0x2078, symBinAddr: 0x1B894, symSize: 0x14 }
  - { offsetInCU: 0x3B386, offset: 0xF4C71, size: 0x8, addend: 0x0, symName: __ZN13llama_context20kv_self_defrag_schedEv, symObjAddr: 0x2078, symBinAddr: 0x1B894, symSize: 0x14 }
  - { offsetInCU: 0x3B3B9, offset: 0xF4CA4, size: 0x8, addend: 0x0, symName: __ZN13llama_context14kv_self_updateEb, symObjAddr: 0x208C, symBinAddr: 0x1B8A8, symSize: 0x208 }
  - { offsetInCU: 0x3B741, offset: 0xF502C, size: 0x8, addend: 0x0, symName: __ZNK13llama_context12pooling_typeEv, symObjAddr: 0x2294, symBinAddr: 0x1BAB0, symSize: 0x8 }
  - { offsetInCU: 0x3B763, offset: 0xF504E, size: 0x8, addend: 0x0, symName: __ZN13llama_context10get_logitsEv, symObjAddr: 0x229C, symBinAddr: 0x1BAB8, symSize: 0x24 }
  - { offsetInCU: 0x3B79A, offset: 0xF5085, size: 0x8, addend: 0x0, symName: __ZN13llama_context14output_reorderEv, symObjAddr: 0x22C0, symBinAddr: 0x1BADC, symSize: 0x5C4 }
  - { offsetInCU: 0x3B95B, offset: 0xF5246, size: 0x8, addend: 0x0, symName: __ZN13llama_context14get_logits_ithEi, symObjAddr: 0x2884, symBinAddr: 0x1C0A0, symSize: 0x2BC }
  - { offsetInCU: 0x3BB73, offset: 0xF545E, size: 0x8, addend: 0x0, symName: __ZN13llama_context14get_embeddingsEv, symObjAddr: 0x2B40, symBinAddr: 0x1C35C, symSize: 0x24 }
  - { offsetInCU: 0x3BBAA, offset: 0xF5495, size: 0x8, addend: 0x0, symName: __ZN13llama_context18get_embeddings_ithEi, symObjAddr: 0x2B64, symBinAddr: 0x1C380, symSize: 0x2A0 }
  - { offsetInCU: 0x3BF0C, offset: 0xF57F7, size: 0x8, addend: 0x0, symName: __ZN13llama_context18get_embeddings_seqEi, symObjAddr: 0x2E04, symBinAddr: 0x1C620, symSize: 0x50 }
  - { offsetInCU: 0x3BF41, offset: 0xF582C, size: 0x8, addend: 0x0, symName: __ZN13llama_context18get_embeddings_seqEi, symObjAddr: 0x2E04, symBinAddr: 0x1C620, symSize: 0x50 }
  - { offsetInCU: 0x3BF60, offset: 0xF584B, size: 0x8, addend: 0x0, symName: __ZN13llama_context18get_embeddings_seqEi, symObjAddr: 0x2E04, symBinAddr: 0x1C620, symSize: 0x50 }
  - { offsetInCU: 0x3BF88, offset: 0xF5873, size: 0x8, addend: 0x0, symName: __ZN13llama_context18get_embeddings_seqEi, symObjAddr: 0x2E04, symBinAddr: 0x1C620, symSize: 0x50 }
  - { offsetInCU: 0x3C072, offset: 0xF595D, size: 0x8, addend: 0x0, symName: __ZN13llama_context17attach_threadpoolEP15ggml_threadpoolS1_, symObjAddr: 0x2E54, symBinAddr: 0x1C670, symSize: 0x5C }
  - { offsetInCU: 0x3C0B9, offset: 0xF59A4, size: 0x8, addend: 0x0, symName: __ZN13llama_context17detach_threadpoolEv, symObjAddr: 0x2EB0, symBinAddr: 0x1C6CC, symSize: 0x44 }
  - { offsetInCU: 0x3C0EE, offset: 0xF59D9, size: 0x8, addend: 0x0, symName: __ZN13llama_context13set_n_threadsEii, symObjAddr: 0x2EF4, symBinAddr: 0x1C710, symSize: 0x58 }
  - { offsetInCU: 0x3C135, offset: 0xF5A20, size: 0x8, addend: 0x0, symName: __ZN13llama_context18set_abort_callbackEPFbPvES0_, symObjAddr: 0x2F4C, symBinAddr: 0x1C768, symSize: 0xA4 }
  - { offsetInCU: 0x3C28B, offset: 0xF5B76, size: 0x8, addend: 0x0, symName: __ZN13llama_context14set_embeddingsEb, symObjAddr: 0x2FF0, symBinAddr: 0x1C80C, symSize: 0x4C }
  - { offsetInCU: 0x3C2C6, offset: 0xF5BB1, size: 0x8, addend: 0x0, symName: __ZN13llama_context15set_causal_attnEb, symObjAddr: 0x303C, symBinAddr: 0x1C858, symSize: 0x4C }
  - { offsetInCU: 0x3C301, offset: 0xF5BEC, size: 0x8, addend: 0x0, symName: __ZN13llama_context10set_warmupEb, symObjAddr: 0x3088, symBinAddr: 0x1C8A4, symSize: 0x4C }
  - { offsetInCU: 0x3C360, offset: 0xF5C4B, size: 0x8, addend: 0x0, symName: __ZN13llama_context16set_adapter_loraEP18llama_adapter_loraf, symObjAddr: 0x30D4, symBinAddr: 0x1C8F0, symSize: 0x80 }
  - { offsetInCU: 0x3C403, offset: 0xF5CEE, size: 0x8, addend: 0x0, symName: __ZNSt3__112__hash_tableINS_17__hash_value_typeIP18llama_adapter_lorafEENS_22__unordered_map_hasherIS3_S4_NS_4hashIS3_EENS_8equal_toIS3_EELb1EEENS_21__unordered_map_equalIS3_S4_S9_S7_Lb1EEENS_9allocatorIS4_EEE25__emplace_unique_key_argsIS3_JRKNS_21piecewise_construct_tENS_5tupleIJRKS3_EEENSK_IJEEEEEENS_4pairINS_15__hash_iteratorIPNS_11__hash_nodeIS4_PvEEEEbEERKT_DpOT0_, symObjAddr: 0xA914, symBinAddr: 0x23FB8, symSize: 0x350 }
  - { offsetInCU: 0x3CCB2, offset: 0xF659D, size: 0x8, addend: 0x0, symName: __ZN13llama_context15rm_adapter_loraEP18llama_adapter_lora, symObjAddr: 0x3154, symBinAddr: 0x1C970, symSize: 0x84 }
  - { offsetInCU: 0x3CF39, offset: 0xF6824, size: 0x8, addend: 0x0, symName: __ZNSt3__112__hash_tableINS_17__hash_value_typeIP18llama_adapter_lorafEENS_22__unordered_map_hasherIS3_S4_NS_4hashIS3_EENS_8equal_toIS3_EELb1EEENS_21__unordered_map_equalIS3_S4_S9_S7_Lb1EEENS_9allocatorIS4_EEE4findIS3_EENS_15__hash_iteratorIPNS_11__hash_nodeIS4_PvEEEERKT_, symObjAddr: 0xAE10, symBinAddr: 0x244B4, symSize: 0x114 }
  - { offsetInCU: 0x3CF96, offset: 0xF6881, size: 0x8, addend: 0x0, symName: __ZNSt3__112__hash_tableINS_17__hash_value_typeIP18llama_adapter_lorafEENS_22__unordered_map_hasherIS3_S4_NS_4hashIS3_EENS_8equal_toIS3_EELb1EEENS_21__unordered_map_equalIS3_S4_S9_S7_Lb1EEENS_9allocatorIS4_EEE4findIS3_EENS_15__hash_iteratorIPNS_11__hash_nodeIS4_PvEEEERKT_, symObjAddr: 0xAE10, symBinAddr: 0x244B4, symSize: 0x114 }
  - { offsetInCU: 0x3CFB2, offset: 0xF689D, size: 0x8, addend: 0x0, symName: __ZNSt3__112__hash_tableINS_17__hash_value_typeIP18llama_adapter_lorafEENS_22__unordered_map_hasherIS3_S4_NS_4hashIS3_EENS_8equal_toIS3_EELb1EEENS_21__unordered_map_equalIS3_S4_S9_S7_Lb1EEENS_9allocatorIS4_EEE4findIS3_EENS_15__hash_iteratorIPNS_11__hash_nodeIS4_PvEEEERKT_, symObjAddr: 0xAE10, symBinAddr: 0x244B4, symSize: 0x114 }
  - { offsetInCU: 0x3D0AD, offset: 0xF6998, size: 0x8, addend: 0x0, symName: __ZNSt3__112__hash_tableINS_17__hash_value_typeIP18llama_adapter_lorafEENS_22__unordered_map_hasherIS3_S4_NS_4hashIS3_EENS_8equal_toIS3_EELb1EEENS_21__unordered_map_equalIS3_S4_S9_S7_Lb1EEENS_9allocatorIS4_EEE6removeENS_21__hash_const_iteratorIPNS_11__hash_nodeIS4_PvEEEE, symObjAddr: 0xAF24, symBinAddr: 0x245C8, symSize: 0x134 }
  - { offsetInCU: 0x3D128, offset: 0xF6A13, size: 0x8, addend: 0x0, symName: __ZNSt3__112__hash_tableINS_17__hash_value_typeIP18llama_adapter_lorafEENS_22__unordered_map_hasherIS3_S4_NS_4hashIS3_EENS_8equal_toIS3_EELb1EEENS_21__unordered_map_equalIS3_S4_S9_S7_Lb1EEENS_9allocatorIS4_EEE6removeENS_21__hash_const_iteratorIPNS_11__hash_nodeIS4_PvEEEE, symObjAddr: 0xAF24, symBinAddr: 0x245C8, symSize: 0x134 }
  - { offsetInCU: 0x3D144, offset: 0xF6A2F, size: 0x8, addend: 0x0, symName: __ZNSt3__112__hash_tableINS_17__hash_value_typeIP18llama_adapter_lorafEENS_22__unordered_map_hasherIS3_S4_NS_4hashIS3_EENS_8equal_toIS3_EELb1EEENS_21__unordered_map_equalIS3_S4_S9_S7_Lb1EEENS_9allocatorIS4_EEE6removeENS_21__hash_const_iteratorIPNS_11__hash_nodeIS4_PvEEEE, symObjAddr: 0xAF24, symBinAddr: 0x245C8, symSize: 0x134 }
  - { offsetInCU: 0x3D42E, offset: 0xF6D19, size: 0x8, addend: 0x0, symName: __ZN13llama_context18clear_adapter_loraEv, symObjAddr: 0x31D8, symBinAddr: 0x1C9F4, symSize: 0x88 }
  - { offsetInCU: 0x3D66D, offset: 0xF6F58, size: 0x8, addend: 0x0, symName: __ZN13llama_context18apply_adapter_cvecEPKfmiii, symObjAddr: 0x3260, symBinAddr: 0x1CA7C, symSize: 0x84 }
  - { offsetInCU: 0x3D6EA, offset: 0xF6FD5, size: 0x8, addend: 0x0, symName: __ZN13llama_context14process_ubatchERK12llama_ubatch14llm_graph_typeP22llama_memory_context_iR11ggml_status, symObjAddr: 0x32E4, symBinAddr: 0x1CB00, symSize: 0x3EC }
  - { offsetInCU: 0x3DB9C, offset: 0xF7487, size: 0x8, addend: 0x0, symName: __ZN13llama_context13graph_computeEP11ggml_cgraphb, symObjAddr: 0x37F4, symBinAddr: 0x1D010, symSize: 0xE0 }
  - { offsetInCU: 0x3DD5B, offset: 0xF7646, size: 0x8, addend: 0x0, symName: __ZNK13llama_context12graph_paramsEP16llm_graph_resultRK12llama_ubatchPK22llama_memory_context_i14llm_graph_type, symObjAddr: 0x36D0, symBinAddr: 0x1CEEC, symSize: 0x124 }
  - { offsetInCU: 0x3E8ED, offset: 0xF81D8, size: 0x8, addend: 0x0, symName: __ZN13llama_context6encodeERK11llama_batch, symObjAddr: 0x3968, symBinAddr: 0x1D184, symSize: 0xC98 }
  - { offsetInCU: 0x413CB, offset: 0xFACB6, size: 0x8, addend: 0x0, symName: __ZN13llama_context6decodeERK11llama_batch, symObjAddr: 0x4660, symBinAddr: 0x1DE1C, symSize: 0x1A74 }
  - { offsetInCU: 0x44394, offset: 0xFDC7F, size: 0x8, addend: 0x0, symName: __ZNKSt3__16vectorIN13llama_context9swap_infoENS_9allocatorIS2_EEE20__throw_length_errorB8ue170006Ev, symObjAddr: 0xB5E0, symBinAddr: 0x246FC, symSize: 0x14 }
  - { offsetInCU: 0x443C9, offset: 0xFDCB4, size: 0x8, addend: 0x0, symName: __ZNK13llama_context18get_gf_res_reserveEv, symObjAddr: 0x60D4, symBinAddr: 0x1F890, symSize: 0x8 }
  - { offsetInCU: 0x443F6, offset: 0xFDCE1, size: 0x8, addend: 0x0, symName: __ZNK13llama_context18get_gf_res_reserveEv, symObjAddr: 0x60D4, symBinAddr: 0x1F890, symSize: 0x8 }
  - { offsetInCU: 0x44509, offset: 0xFDDF4, size: 0x8, addend: 0x0, symName: __ZN13llama_context14state_get_sizeEv, symObjAddr: 0x60F0, symBinAddr: 0x1F8AC, symSize: 0xA0 }
  - { offsetInCU: 0x445CC, offset: 0xFDEB7, size: 0x8, addend: 0x0, symName: __ZN13llama_context16state_write_dataER16llama_io_write_i, symObjAddr: 0x6190, symBinAddr: 0x1F94C, symSize: 0x344 }
  - { offsetInCU: 0x452AD, offset: 0xFEB98, size: 0x8, addend: 0x0, symName: __ZNSt3__16__treeINS_12__value_typeIiNS_6vectorIfNS_9allocatorIfEEEEEENS_19__map_value_compareIiS6_NS_4lessIiEELb1EEENS3_IS6_EEE7destroyEPNS_11__tree_nodeIS6_PvEE, symObjAddr: 0xA74C, symBinAddr: 0x23E04, symSize: 0x50 }
  - { offsetInCU: 0x452B8, offset: 0xFEBA3, size: 0x8, addend: 0x0, symName: __ZN20llama_io_write_dummyD1Ev, symObjAddr: 0x64D4, symBinAddr: 0x1FC90, symSize: 0x4 }
  - { offsetInCU: 0x4542E, offset: 0xFED19, size: 0x8, addend: 0x0, symName: __ZN13llama_context14state_get_dataEPhm, symObjAddr: 0x64D8, symBinAddr: 0x1FC94, symSize: 0xA4 }
  - { offsetInCU: 0x4552D, offset: 0xFEE18, size: 0x8, addend: 0x0, symName: __ZN21llama_io_write_bufferD1Ev, symObjAddr: 0x657C, symBinAddr: 0x1FD38, symSize: 0x4 }
  - { offsetInCU: 0x4569D, offset: 0xFEF88, size: 0x8, addend: 0x0, symName: __ZN13llama_context14state_set_dataEPKhm, symObjAddr: 0x6580, symBinAddr: 0x1FD3C, symSize: 0xA4 }
  - { offsetInCU: 0x4579C, offset: 0xFF087, size: 0x8, addend: 0x0, symName: __ZN13llama_context15state_read_dataER15llama_io_read_i, symObjAddr: 0x6624, symBinAddr: 0x1FDE0, symSize: 0x570 }
  - { offsetInCU: 0x46B20, offset: 0x10040B, size: 0x8, addend: 0x0, symName: __ZN20llama_io_read_bufferD1Ev, symObjAddr: 0x6B94, symBinAddr: 0x20350, symSize: 0x4 }
  - { offsetInCU: 0x46B7D, offset: 0x100468, size: 0x8, addend: 0x0, symName: __ZN13llama_context18state_seq_get_sizeEi, symObjAddr: 0x6B98, symBinAddr: 0x20354, symSize: 0xC4 }
  - { offsetInCU: 0x46CA3, offset: 0x10058E, size: 0x8, addend: 0x0, symName: __ZN13llama_context20state_seq_write_dataER16llama_io_write_ii, symObjAddr: 0x6C5C, symBinAddr: 0x20418, symSize: 0x40 }
  - { offsetInCU: 0x46D1D, offset: 0x100608, size: 0x8, addend: 0x0, symName: __ZN13llama_context18state_seq_get_dataEiPhm, symObjAddr: 0x6C9C, symBinAddr: 0x20458, symSize: 0xCC }
  - { offsetInCU: 0x46EB0, offset: 0x10079B, size: 0x8, addend: 0x0, symName: __ZN13llama_context18state_seq_set_dataEiPKhm, symObjAddr: 0x6D68, symBinAddr: 0x20524, symSize: 0xCC }
  - { offsetInCU: 0x47012, offset: 0x1008FD, size: 0x8, addend: 0x0, symName: __ZN13llama_context19state_seq_read_dataER15llama_io_read_ii, symObjAddr: 0x6E34, symBinAddr: 0x205F0, symSize: 0x40 }
  - { offsetInCU: 0x47425, offset: 0x100D10, size: 0x8, addend: 0x0, symName: __ZN13llama_context15state_load_fileEPKcPimPm, symObjAddr: 0x6E74, symBinAddr: 0x20630, symSize: 0x1C4 }
  - { offsetInCU: 0x47902, offset: 0x1011ED, size: 0x8, addend: 0x0, symName: __ZN18llama_io_read_fileD1Ev, symObjAddr: 0x7038, symBinAddr: 0x207F4, symSize: 0x40 }
  - { offsetInCU: 0x47BEB, offset: 0x1014D6, size: 0x8, addend: 0x0, symName: __ZN13llama_context15state_save_fileEPKcPKim, symObjAddr: 0x7078, symBinAddr: 0x20834, symSize: 0xF8 }
  - { offsetInCU: 0x47FD4, offset: 0x1018BF, size: 0x8, addend: 0x0, symName: __ZN19llama_io_write_fileD1Ev, symObjAddr: 0x7170, symBinAddr: 0x2092C, symSize: 0x40 }
  - { offsetInCU: 0x48156, offset: 0x101A41, size: 0x8, addend: 0x0, symName: __ZN13llama_context19state_seq_load_fileEiPKcPimPm, symObjAddr: 0x71B0, symBinAddr: 0x2096C, symSize: 0x264 }
  - { offsetInCU: 0x486B0, offset: 0x101F9B, size: 0x8, addend: 0x0, symName: __ZN13llama_context19state_seq_save_fileEiPKcPKim, symObjAddr: 0x7414, symBinAddr: 0x20BD0, symSize: 0x184 }
  - { offsetInCU: 0x48B78, offset: 0x102463, size: 0x8, addend: 0x0, symName: __ZN19llama_io_write_file7n_bytesEv, symObjAddr: 0x7598, symBinAddr: 0x20D54, symSize: 0x8 }
  - { offsetInCU: 0x48B9A, offset: 0x102485, size: 0x8, addend: 0x0, symName: __ZNK13llama_context13perf_get_dataEv, symObjAddr: 0x75A0, symBinAddr: 0x20D5C, symSize: 0x58 }
  - { offsetInCU: 0x48C83, offset: 0x10256E, size: 0x8, addend: 0x0, symName: __ZN13llama_context10perf_resetEv, symObjAddr: 0x75F8, symBinAddr: 0x20DB4, symSize: 0x38 }
  - { offsetInCU: 0x48D4F, offset: 0x10263A, size: 0x8, addend: 0x0, symName: __ZN13llama_context8opt_initEP11llama_model16llama_opt_params, symObjAddr: 0x7630, symBinAddr: 0x20DEC, symSize: 0x610 }
  - { offsetInCU: 0x49435, offset: 0x102D20, size: 0x8, addend: 0x0, symName: __ZN13llama_context14opt_epoch_iterEP16ggml_opt_datasetP15ggml_opt_resultRKNSt3__16vectorIiNS4_9allocatorIiEEEESA_R11llama_batchPFvbP16ggml_opt_contextS1_S3_xxxEbxxx, symObjAddr: 0x7C40, symBinAddr: 0x213FC, symSize: 0x71C }
  - { offsetInCU: 0x4952E, offset: 0x102E19, size: 0x8, addend: 0x0, symName: __ZN13llama_context14opt_epoch_iterEP16ggml_opt_datasetP15ggml_opt_resultRKNSt3__16vectorIiNS4_9allocatorIiEEEESA_R11llama_batchPFvbP16ggml_opt_contextS1_S3_xxxEbxxx, symObjAddr: 0x7C40, symBinAddr: 0x213FC, symSize: 0x71C }
  - { offsetInCU: 0x4A565, offset: 0x103E50, size: 0x8, addend: 0x0, symName: __ZN13llama_context9opt_epochEP16ggml_opt_datasetP15ggml_opt_resultS3_xPFvbP16ggml_opt_contextS1_S3_xxxES7_, symObjAddr: 0x835C, symBinAddr: 0x21B18, symSize: 0x2B0 }
  - { offsetInCU: 0x4B167, offset: 0x104A52, size: 0x8, addend: 0x0, symName: _llama_context_default_params, symObjAddr: 0x860C, symBinAddr: 0x21DC8, symSize: 0x34 }
  - { offsetInCU: 0x4B1C5, offset: 0x104AB0, size: 0x8, addend: 0x0, symName: _llama_init_from_model, symObjAddr: 0x8640, symBinAddr: 0x21DFC, symSize: 0x1D0 }
  - { offsetInCU: 0x4B2D0, offset: 0x104BBB, size: 0x8, addend: 0x0, symName: _llama_new_context_with_model, symObjAddr: 0x8810, symBinAddr: 0x21FCC, symSize: 0x48 }
  - { offsetInCU: 0x4B344, offset: 0x104C2F, size: 0x8, addend: 0x0, symName: _llama_free, symObjAddr: 0x8858, symBinAddr: 0x22014, symSize: 0x1C }
  - { offsetInCU: 0x4B396, offset: 0x104C81, size: 0x8, addend: 0x0, symName: _llama_n_ctx, symObjAddr: 0x8874, symBinAddr: 0x22030, symSize: 0x8 }
  - { offsetInCU: 0x4B3C5, offset: 0x104CB0, size: 0x8, addend: 0x0, symName: _llama_n_ctx, symObjAddr: 0x8874, symBinAddr: 0x22030, symSize: 0x8 }
  - { offsetInCU: 0x4B3DF, offset: 0x104CCA, size: 0x8, addend: 0x0, symName: _llama_n_batch, symObjAddr: 0x887C, symBinAddr: 0x22038, symSize: 0x8 }
  - { offsetInCU: 0x4B40E, offset: 0x104CF9, size: 0x8, addend: 0x0, symName: _llama_n_batch, symObjAddr: 0x887C, symBinAddr: 0x22038, symSize: 0x8 }
  - { offsetInCU: 0x4B441, offset: 0x104D2C, size: 0x8, addend: 0x0, symName: _llama_n_ubatch, symObjAddr: 0x8884, symBinAddr: 0x22040, symSize: 0x8 }
  - { offsetInCU: 0x4B470, offset: 0x104D5B, size: 0x8, addend: 0x0, symName: _llama_n_ubatch, symObjAddr: 0x8884, symBinAddr: 0x22040, symSize: 0x8 }
  - { offsetInCU: 0x4B48A, offset: 0x104D75, size: 0x8, addend: 0x0, symName: _llama_n_seq_max, symObjAddr: 0x888C, symBinAddr: 0x22048, symSize: 0x8 }
  - { offsetInCU: 0x4B4B9, offset: 0x104DA4, size: 0x8, addend: 0x0, symName: _llama_n_seq_max, symObjAddr: 0x888C, symBinAddr: 0x22048, symSize: 0x8 }
  - { offsetInCU: 0x4B4EC, offset: 0x104DD7, size: 0x8, addend: 0x0, symName: _llama_get_model, symObjAddr: 0x8894, symBinAddr: 0x22050, symSize: 0x8 }
  - { offsetInCU: 0x4B51B, offset: 0x104E06, size: 0x8, addend: 0x0, symName: _llama_get_model, symObjAddr: 0x8894, symBinAddr: 0x22050, symSize: 0x8 }
  - { offsetInCU: 0x4B54E, offset: 0x104E39, size: 0x8, addend: 0x0, symName: _llama_get_kv_self, symObjAddr: 0x889C, symBinAddr: 0x22058, symSize: 0x24 }
  - { offsetInCU: 0x4B57D, offset: 0x104E68, size: 0x8, addend: 0x0, symName: _llama_get_kv_self, symObjAddr: 0x889C, symBinAddr: 0x22058, symSize: 0x24 }
  - { offsetInCU: 0x4B599, offset: 0x104E84, size: 0x8, addend: 0x0, symName: _llama_get_kv_self, symObjAddr: 0x889C, symBinAddr: 0x22058, symSize: 0x24 }
  - { offsetInCU: 0x4B5B7, offset: 0x104EA2, size: 0x8, addend: 0x0, symName: _llama_kv_self_update, symObjAddr: 0x88C0, symBinAddr: 0x2207C, symSize: 0x8 }
  - { offsetInCU: 0x4B612, offset: 0x104EFD, size: 0x8, addend: 0x0, symName: _llama_pooling_type, symObjAddr: 0x88C8, symBinAddr: 0x22084, symSize: 0x8 }
  - { offsetInCU: 0x4B641, offset: 0x104F2C, size: 0x8, addend: 0x0, symName: _llama_pooling_type, symObjAddr: 0x88C8, symBinAddr: 0x22084, symSize: 0x8 }
  - { offsetInCU: 0x4B68C, offset: 0x104F77, size: 0x8, addend: 0x0, symName: _llama_attach_threadpool, symObjAddr: 0x88D0, symBinAddr: 0x2208C, symSize: 0x5C }
  - { offsetInCU: 0x4B72B, offset: 0x105016, size: 0x8, addend: 0x0, symName: _llama_detach_threadpool, symObjAddr: 0x892C, symBinAddr: 0x220E8, symSize: 0x44 }
  - { offsetInCU: 0x4B7B4, offset: 0x10509F, size: 0x8, addend: 0x0, symName: _llama_set_n_threads, symObjAddr: 0x8970, symBinAddr: 0x2212C, symSize: 0x58 }
  - { offsetInCU: 0x4B853, offset: 0x10513E, size: 0x8, addend: 0x0, symName: _llama_n_threads, symObjAddr: 0x89C8, symBinAddr: 0x22184, symSize: 0x8 }
  - { offsetInCU: 0x4B882, offset: 0x10516D, size: 0x8, addend: 0x0, symName: _llama_n_threads, symObjAddr: 0x89C8, symBinAddr: 0x22184, symSize: 0x8 }
  - { offsetInCU: 0x4B8B5, offset: 0x1051A0, size: 0x8, addend: 0x0, symName: _llama_n_threads_batch, symObjAddr: 0x89D0, symBinAddr: 0x2218C, symSize: 0x8 }
  - { offsetInCU: 0x4B8E4, offset: 0x1051CF, size: 0x8, addend: 0x0, symName: _llama_n_threads_batch, symObjAddr: 0x89D0, symBinAddr: 0x2218C, symSize: 0x8 }
  - { offsetInCU: 0x4B923, offset: 0x10520E, size: 0x8, addend: 0x0, symName: _llama_set_embeddings, symObjAddr: 0x89D8, symBinAddr: 0x22194, symSize: 0x4C }
  - { offsetInCU: 0x4B9B0, offset: 0x10529B, size: 0x8, addend: 0x0, symName: _llama_set_causal_attn, symObjAddr: 0x8A24, symBinAddr: 0x221E0, symSize: 0x4C }
  - { offsetInCU: 0x4BA3D, offset: 0x105328, size: 0x8, addend: 0x0, symName: _llama_set_warmup, symObjAddr: 0x8A70, symBinAddr: 0x2222C, symSize: 0x4C }
  - { offsetInCU: 0x4BAA5, offset: 0x105390, size: 0x8, addend: 0x0, symName: _llama_synchronize, symObjAddr: 0x8ABC, symBinAddr: 0x22278, symSize: 0x4 }
  - { offsetInCU: 0x4BACF, offset: 0x1053BA, size: 0x8, addend: 0x0, symName: _llama_synchronize, symObjAddr: 0x8ABC, symBinAddr: 0x22278, symSize: 0x4 }
  - { offsetInCU: 0x4BAFB, offset: 0x1053E6, size: 0x8, addend: 0x0, symName: _llama_get_logits, symObjAddr: 0x8AC0, symBinAddr: 0x2227C, symSize: 0x2C }
  - { offsetInCU: 0x4BB6D, offset: 0x105458, size: 0x8, addend: 0x0, symName: _llama_get_logits_ith, symObjAddr: 0x8AEC, symBinAddr: 0x222A8, symSize: 0x2C }
  - { offsetInCU: 0x4BBF2, offset: 0x1054DD, size: 0x8, addend: 0x0, symName: _llama_get_embeddings, symObjAddr: 0x8B18, symBinAddr: 0x222D4, symSize: 0x2C }
  - { offsetInCU: 0x4BC64, offset: 0x10554F, size: 0x8, addend: 0x0, symName: _llama_get_embeddings_ith, symObjAddr: 0x8B44, symBinAddr: 0x22300, symSize: 0x2C }
  - { offsetInCU: 0x4BD01, offset: 0x1055EC, size: 0x8, addend: 0x0, symName: _llama_get_embeddings_seq, symObjAddr: 0x8B70, symBinAddr: 0x2232C, symSize: 0x78 }
  - { offsetInCU: 0x4BED7, offset: 0x1057C2, size: 0x8, addend: 0x0, symName: _llama_set_adapter_lora, symObjAddr: 0x8BE8, symBinAddr: 0x223A4, symSize: 0x84 }
  - { offsetInCU: 0x4BFE2, offset: 0x1058CD, size: 0x8, addend: 0x0, symName: _llama_rm_adapter_lora, symObjAddr: 0x8C6C, symBinAddr: 0x22428, symSize: 0x84 }
  - { offsetInCU: 0x4C286, offset: 0x105B71, size: 0x8, addend: 0x0, symName: _llama_clear_adapter_lora, symObjAddr: 0x8CF0, symBinAddr: 0x224AC, symSize: 0x88 }
  - { offsetInCU: 0x4C53D, offset: 0x105E28, size: 0x8, addend: 0x0, symName: _llama_apply_adapter_cvec, symObjAddr: 0x8D78, symBinAddr: 0x22534, symSize: 0x8C }
  - { offsetInCU: 0x4C620, offset: 0x105F0B, size: 0x8, addend: 0x0, symName: _llama_get_memory, symObjAddr: 0x8E04, symBinAddr: 0x225C0, symSize: 0x8 }
  - { offsetInCU: 0x4C640, offset: 0x105F2B, size: 0x8, addend: 0x0, symName: _llama_get_memory, symObjAddr: 0x8E04, symBinAddr: 0x225C0, symSize: 0x8 }
  - { offsetInCU: 0x4C65C, offset: 0x105F47, size: 0x8, addend: 0x0, symName: _llama_get_memory, symObjAddr: 0x8E04, symBinAddr: 0x225C0, symSize: 0x8 }
  - { offsetInCU: 0x4C67A, offset: 0x105F65, size: 0x8, addend: 0x0, symName: _llama_memory_clear, symObjAddr: 0x8E0C, symBinAddr: 0x225C8, symSize: 0x14 }
  - { offsetInCU: 0x4C6AD, offset: 0x105F98, size: 0x8, addend: 0x0, symName: _llama_memory_seq_rm, symObjAddr: 0x8E20, symBinAddr: 0x225DC, symSize: 0x18 }
  - { offsetInCU: 0x4C6EB, offset: 0x105FD6, size: 0x8, addend: 0x0, symName: _llama_memory_seq_cp, symObjAddr: 0x8E38, symBinAddr: 0x225F4, symSize: 0x14 }
  - { offsetInCU: 0x4C72E, offset: 0x106019, size: 0x8, addend: 0x0, symName: _llama_memory_seq_keep, symObjAddr: 0x8E4C, symBinAddr: 0x22608, symSize: 0x14 }
  - { offsetInCU: 0x4C75C, offset: 0x106047, size: 0x8, addend: 0x0, symName: _llama_memory_seq_add, symObjAddr: 0x8E60, symBinAddr: 0x2261C, symSize: 0x14 }
  - { offsetInCU: 0x4C79F, offset: 0x10608A, size: 0x8, addend: 0x0, symName: _llama_memory_seq_div, symObjAddr: 0x8E74, symBinAddr: 0x22630, symSize: 0x14 }
  - { offsetInCU: 0x4C7E2, offset: 0x1060CD, size: 0x8, addend: 0x0, symName: _llama_memory_seq_pos_min, symObjAddr: 0x8E88, symBinAddr: 0x22644, symSize: 0x18 }
  - { offsetInCU: 0x4C812, offset: 0x1060FD, size: 0x8, addend: 0x0, symName: _llama_memory_seq_pos_max, symObjAddr: 0x8EA0, symBinAddr: 0x2265C, symSize: 0x18 }
  - { offsetInCU: 0x4C842, offset: 0x10612D, size: 0x8, addend: 0x0, symName: _llama_memory_can_shift, symObjAddr: 0x8EB8, symBinAddr: 0x22674, symSize: 0x14 }
  - { offsetInCU: 0x4C884, offset: 0x10616F, size: 0x8, addend: 0x0, symName: _llama_kv_self_n_tokens, symObjAddr: 0x8ECC, symBinAddr: 0x22688, symSize: 0xB0 }
  - { offsetInCU: 0x4C9AF, offset: 0x10629A, size: 0x8, addend: 0x0, symName: _llama_kv_self_used_cells, symObjAddr: 0x8F7C, symBinAddr: 0x22738, symSize: 0xB0 }
  - { offsetInCU: 0x4CAFD, offset: 0x1063E8, size: 0x8, addend: 0x0, symName: _llama_kv_self_clear, symObjAddr: 0x902C, symBinAddr: 0x227E8, symSize: 0x1C }
  - { offsetInCU: 0x4CB39, offset: 0x106424, size: 0x8, addend: 0x0, symName: _llama_kv_self_clear, symObjAddr: 0x902C, symBinAddr: 0x227E8, symSize: 0x1C }
  - { offsetInCU: 0x4CB55, offset: 0x106440, size: 0x8, addend: 0x0, symName: _llama_kv_self_clear, symObjAddr: 0x902C, symBinAddr: 0x227E8, symSize: 0x1C }
  - { offsetInCU: 0x4CB71, offset: 0x10645C, size: 0x8, addend: 0x0, symName: _llama_kv_self_clear, symObjAddr: 0x902C, symBinAddr: 0x227E8, symSize: 0x1C }
  - { offsetInCU: 0x4CC06, offset: 0x1064F1, size: 0x8, addend: 0x0, symName: _llama_kv_self_seq_rm, symObjAddr: 0x9048, symBinAddr: 0x22804, symSize: 0x1C }
  - { offsetInCU: 0x4CC73, offset: 0x10655E, size: 0x8, addend: 0x0, symName: _llama_kv_self_seq_rm, symObjAddr: 0x9048, symBinAddr: 0x22804, symSize: 0x1C }
  - { offsetInCU: 0x4CC8F, offset: 0x10657A, size: 0x8, addend: 0x0, symName: _llama_kv_self_seq_rm, symObjAddr: 0x9048, symBinAddr: 0x22804, symSize: 0x1C }
  - { offsetInCU: 0x4CCAB, offset: 0x106596, size: 0x8, addend: 0x0, symName: _llama_kv_self_seq_rm, symObjAddr: 0x9048, symBinAddr: 0x22804, symSize: 0x1C }
  - { offsetInCU: 0x4CD4F, offset: 0x10663A, size: 0x8, addend: 0x0, symName: _llama_kv_self_seq_cp, symObjAddr: 0x9064, symBinAddr: 0x22820, symSize: 0x18 }
  - { offsetInCU: 0x4CDC7, offset: 0x1066B2, size: 0x8, addend: 0x0, symName: _llama_kv_self_seq_cp, symObjAddr: 0x9064, symBinAddr: 0x22820, symSize: 0x18 }
  - { offsetInCU: 0x4CDE3, offset: 0x1066CE, size: 0x8, addend: 0x0, symName: _llama_kv_self_seq_cp, symObjAddr: 0x9064, symBinAddr: 0x22820, symSize: 0x18 }
  - { offsetInCU: 0x4CDFF, offset: 0x1066EA, size: 0x8, addend: 0x0, symName: _llama_kv_self_seq_cp, symObjAddr: 0x9064, symBinAddr: 0x22820, symSize: 0x18 }
  - { offsetInCU: 0x4CE86, offset: 0x106771, size: 0x8, addend: 0x0, symName: _llama_kv_self_seq_keep, symObjAddr: 0x907C, symBinAddr: 0x22838, symSize: 0x18 }
  - { offsetInCU: 0x4CED1, offset: 0x1067BC, size: 0x8, addend: 0x0, symName: _llama_kv_self_seq_keep, symObjAddr: 0x907C, symBinAddr: 0x22838, symSize: 0x18 }
  - { offsetInCU: 0x4CEED, offset: 0x1067D8, size: 0x8, addend: 0x0, symName: _llama_kv_self_seq_keep, symObjAddr: 0x907C, symBinAddr: 0x22838, symSize: 0x18 }
  - { offsetInCU: 0x4CF09, offset: 0x1067F4, size: 0x8, addend: 0x0, symName: _llama_kv_self_seq_keep, symObjAddr: 0x907C, symBinAddr: 0x22838, symSize: 0x18 }
  - { offsetInCU: 0x4CF9F, offset: 0x10688A, size: 0x8, addend: 0x0, symName: _llama_kv_self_seq_add, symObjAddr: 0x9094, symBinAddr: 0x22850, symSize: 0x18 }
  - { offsetInCU: 0x4D017, offset: 0x106902, size: 0x8, addend: 0x0, symName: _llama_kv_self_seq_add, symObjAddr: 0x9094, symBinAddr: 0x22850, symSize: 0x18 }
  - { offsetInCU: 0x4D033, offset: 0x10691E, size: 0x8, addend: 0x0, symName: _llama_kv_self_seq_add, symObjAddr: 0x9094, symBinAddr: 0x22850, symSize: 0x18 }
  - { offsetInCU: 0x4D04F, offset: 0x10693A, size: 0x8, addend: 0x0, symName: _llama_kv_self_seq_add, symObjAddr: 0x9094, symBinAddr: 0x22850, symSize: 0x18 }
  - { offsetInCU: 0x4D0FA, offset: 0x1069E5, size: 0x8, addend: 0x0, symName: _llama_kv_self_seq_div, symObjAddr: 0x90AC, symBinAddr: 0x22868, symSize: 0x18 }
  - { offsetInCU: 0x4D172, offset: 0x106A5D, size: 0x8, addend: 0x0, symName: _llama_kv_self_seq_div, symObjAddr: 0x90AC, symBinAddr: 0x22868, symSize: 0x18 }
  - { offsetInCU: 0x4D18E, offset: 0x106A79, size: 0x8, addend: 0x0, symName: _llama_kv_self_seq_div, symObjAddr: 0x90AC, symBinAddr: 0x22868, symSize: 0x18 }
  - { offsetInCU: 0x4D1AA, offset: 0x106A95, size: 0x8, addend: 0x0, symName: _llama_kv_self_seq_div, symObjAddr: 0x90AC, symBinAddr: 0x22868, symSize: 0x18 }
  - { offsetInCU: 0x4D235, offset: 0x106B20, size: 0x8, addend: 0x0, symName: _llama_kv_self_seq_pos_min, symObjAddr: 0x90C4, symBinAddr: 0x22880, symSize: 0x1C }
  - { offsetInCU: 0x4D284, offset: 0x106B6F, size: 0x8, addend: 0x0, symName: _llama_kv_self_seq_pos_min, symObjAddr: 0x90C4, symBinAddr: 0x22880, symSize: 0x1C }
  - { offsetInCU: 0x4D2A0, offset: 0x106B8B, size: 0x8, addend: 0x0, symName: _llama_kv_self_seq_pos_min, symObjAddr: 0x90C4, symBinAddr: 0x22880, symSize: 0x1C }
  - { offsetInCU: 0x4D2BC, offset: 0x106BA7, size: 0x8, addend: 0x0, symName: _llama_kv_self_seq_pos_min, symObjAddr: 0x90C4, symBinAddr: 0x22880, symSize: 0x1C }
  - { offsetInCU: 0x4D332, offset: 0x106C1D, size: 0x8, addend: 0x0, symName: _llama_kv_self_seq_pos_max, symObjAddr: 0x90E0, symBinAddr: 0x2289C, symSize: 0x1C }
  - { offsetInCU: 0x4D381, offset: 0x106C6C, size: 0x8, addend: 0x0, symName: _llama_kv_self_seq_pos_max, symObjAddr: 0x90E0, symBinAddr: 0x2289C, symSize: 0x1C }
  - { offsetInCU: 0x4D39D, offset: 0x106C88, size: 0x8, addend: 0x0, symName: _llama_kv_self_seq_pos_max, symObjAddr: 0x90E0, symBinAddr: 0x2289C, symSize: 0x1C }
  - { offsetInCU: 0x4D3B9, offset: 0x106CA4, size: 0x8, addend: 0x0, symName: _llama_kv_self_seq_pos_max, symObjAddr: 0x90E0, symBinAddr: 0x2289C, symSize: 0x1C }
  - { offsetInCU: 0x4D421, offset: 0x106D0C, size: 0x8, addend: 0x0, symName: _llama_kv_self_defrag, symObjAddr: 0x90FC, symBinAddr: 0x228B8, symSize: 0x14 }
  - { offsetInCU: 0x4D44B, offset: 0x106D36, size: 0x8, addend: 0x0, symName: _llama_kv_self_defrag, symObjAddr: 0x90FC, symBinAddr: 0x228B8, symSize: 0x14 }
  - { offsetInCU: 0x4D467, offset: 0x106D52, size: 0x8, addend: 0x0, symName: _llama_kv_self_defrag, symObjAddr: 0x90FC, symBinAddr: 0x228B8, symSize: 0x14 }
  - { offsetInCU: 0x4D4A0, offset: 0x106D8B, size: 0x8, addend: 0x0, symName: _llama_kv_self_can_shift, symObjAddr: 0x9110, symBinAddr: 0x228CC, symSize: 0x18 }
  - { offsetInCU: 0x4D4E0, offset: 0x106DCB, size: 0x8, addend: 0x0, symName: _llama_kv_self_can_shift, symObjAddr: 0x9110, symBinAddr: 0x228CC, symSize: 0x18 }
  - { offsetInCU: 0x4D4FC, offset: 0x106DE7, size: 0x8, addend: 0x0, symName: _llama_kv_self_can_shift, symObjAddr: 0x9110, symBinAddr: 0x228CC, symSize: 0x18 }
  - { offsetInCU: 0x4D518, offset: 0x106E03, size: 0x8, addend: 0x0, symName: _llama_kv_self_can_shift, symObjAddr: 0x9110, symBinAddr: 0x228CC, symSize: 0x18 }
  - { offsetInCU: 0x4D57B, offset: 0x106E66, size: 0x8, addend: 0x0, symName: _llama_get_state_size, symObjAddr: 0x9128, symBinAddr: 0x228E4, symSize: 0x4 }
  - { offsetInCU: 0x4D5A9, offset: 0x106E94, size: 0x8, addend: 0x0, symName: _llama_get_state_size, symObjAddr: 0x9128, symBinAddr: 0x228E4, symSize: 0x4 }
  - { offsetInCU: 0x4D5C6, offset: 0x106EB1, size: 0x8, addend: 0x0, symName: _llama_get_state_size, symObjAddr: 0x9128, symBinAddr: 0x228E4, symSize: 0x4 }
  - { offsetInCU: 0x4D5D9, offset: 0x106EC4, size: 0x8, addend: 0x0, symName: _llama_state_get_size, symObjAddr: 0x912C, symBinAddr: 0x228E8, symSize: 0x4 }
  - { offsetInCU: 0x4D5F7, offset: 0x106EE2, size: 0x8, addend: 0x0, symName: _llama_state_get_size, symObjAddr: 0x912C, symBinAddr: 0x228E8, symSize: 0x4 }
  - { offsetInCU: 0x4D63D, offset: 0x106F28, size: 0x8, addend: 0x0, symName: _llama_copy_state_data, symObjAddr: 0x9130, symBinAddr: 0x228EC, symSize: 0x30 }
  - { offsetInCU: 0x4D6E1, offset: 0x106FCC, size: 0x8, addend: 0x0, symName: _llama_state_get_data, symObjAddr: 0x9160, symBinAddr: 0x2291C, symSize: 0x3C }
  - { offsetInCU: 0x4D77A, offset: 0x107065, size: 0x8, addend: 0x0, symName: _llama_set_state_data, symObjAddr: 0x919C, symBinAddr: 0x22958, symSize: 0x30 }
  - { offsetInCU: 0x4D81E, offset: 0x107109, size: 0x8, addend: 0x0, symName: _llama_state_set_data, symObjAddr: 0x91CC, symBinAddr: 0x22988, symSize: 0x3C }
  - { offsetInCU: 0x4D884, offset: 0x10716F, size: 0x8, addend: 0x0, symName: _llama_load_session_file, symObjAddr: 0x9208, symBinAddr: 0x229C4, symSize: 0x4 }
  - { offsetInCU: 0x4D8EE, offset: 0x1071D9, size: 0x8, addend: 0x0, symName: _llama_load_session_file, symObjAddr: 0x9208, symBinAddr: 0x229C4, symSize: 0x4 }
  - { offsetInCU: 0x4D91D, offset: 0x107208, size: 0x8, addend: 0x0, symName: _llama_state_load_file, symObjAddr: 0x920C, symBinAddr: 0x229C8, symSize: 0x190 }
  - { offsetInCU: 0x4DA73, offset: 0x10735E, size: 0x8, addend: 0x0, symName: _llama_save_session_file, symObjAddr: 0x939C, symBinAddr: 0x22B58, symSize: 0x4 }
  - { offsetInCU: 0x4DACE, offset: 0x1073B9, size: 0x8, addend: 0x0, symName: _llama_save_session_file, symObjAddr: 0x939C, symBinAddr: 0x22B58, symSize: 0x4 }
  - { offsetInCU: 0x4DAF6, offset: 0x1073E1, size: 0x8, addend: 0x0, symName: _llama_state_save_file, symObjAddr: 0x93A0, symBinAddr: 0x22B5C, symSize: 0x238 }
  - { offsetInCU: 0x4E02A, offset: 0x107915, size: 0x8, addend: 0x0, symName: _llama_state_seq_get_size, symObjAddr: 0x95D8, symBinAddr: 0x22D94, symSize: 0x4 }
  - { offsetInCU: 0x4E067, offset: 0x107952, size: 0x8, addend: 0x0, symName: _llama_state_seq_get_size, symObjAddr: 0x95D8, symBinAddr: 0x22D94, symSize: 0x4 }
  - { offsetInCU: 0x4E081, offset: 0x10796C, size: 0x8, addend: 0x0, symName: _llama_state_seq_get_data, symObjAddr: 0x95DC, symBinAddr: 0x22D98, symSize: 0x44 }
  - { offsetInCU: 0x4E119, offset: 0x107A04, size: 0x8, addend: 0x0, symName: _llama_state_seq_set_data, symObjAddr: 0x9620, symBinAddr: 0x22DDC, symSize: 0x44 }
  - { offsetInCU: 0x4E1B1, offset: 0x107A9C, size: 0x8, addend: 0x0, symName: _llama_state_seq_save_file, symObjAddr: 0x9664, symBinAddr: 0x22E20, symSize: 0x190 }
  - { offsetInCU: 0x4E2EE, offset: 0x107BD9, size: 0x8, addend: 0x0, symName: _llama_state_seq_load_file, symObjAddr: 0x97F4, symBinAddr: 0x22FB0, symSize: 0x198 }
  - { offsetInCU: 0x4E441, offset: 0x107D2C, size: 0x8, addend: 0x0, symName: _llama_encode, symObjAddr: 0x998C, symBinAddr: 0x23148, symSize: 0x4C }
  - { offsetInCU: 0x4E4BD, offset: 0x107DA8, size: 0x8, addend: 0x0, symName: _llama_decode, symObjAddr: 0x99D8, symBinAddr: 0x23194, symSize: 0x50 }
  - { offsetInCU: 0x4E55E, offset: 0x107E49, size: 0x8, addend: 0x0, symName: _llama_perf_context, symObjAddr: 0x9A28, symBinAddr: 0x231E4, symSize: 0x80 }
  - { offsetInCU: 0x4E687, offset: 0x107F72, size: 0x8, addend: 0x0, symName: _llama_perf_context_print, symObjAddr: 0x9AA8, symBinAddr: 0x23264, symSize: 0x1B4 }
  - { offsetInCU: 0x4E863, offset: 0x10814E, size: 0x8, addend: 0x0, symName: _llama_perf_context_reset, symObjAddr: 0x9C5C, symBinAddr: 0x23418, symSize: 0x38 }
  - { offsetInCU: 0x4E8B6, offset: 0x1081A1, size: 0x8, addend: 0x0, symName: _llama_opt_param_filter_all, symObjAddr: 0x9C94, symBinAddr: 0x23450, symSize: 0x8 }
  - { offsetInCU: 0x4E8F1, offset: 0x1081DC, size: 0x8, addend: 0x0, symName: _llama_opt_init, symObjAddr: 0x9C9C, symBinAddr: 0x23458, symSize: 0x30 }
  - { offsetInCU: 0x4E95B, offset: 0x108246, size: 0x8, addend: 0x0, symName: _llama_opt_epoch, symObjAddr: 0x9CCC, symBinAddr: 0x23488, symSize: 0x4 }
  - { offsetInCU: 0x4E9DF, offset: 0x1082CA, size: 0x8, addend: 0x0, symName: _llama_opt_epoch, symObjAddr: 0x9CCC, symBinAddr: 0x23488, symSize: 0x4 }
  - { offsetInCU: 0x4F5A4, offset: 0x108E8F, size: 0x8, addend: 0x0, symName: __ZN20llama_io_write_dummyD0Ev, symObjAddr: 0x9F4C, symBinAddr: 0x236C8, symSize: 0x4 }
  - { offsetInCU: 0x4F5D0, offset: 0x108EBB, size: 0x8, addend: 0x0, symName: __ZN20llama_io_write_dummy5writeEPKvm, symObjAddr: 0x9F50, symBinAddr: 0x236CC, symSize: 0x10 }
  - { offsetInCU: 0x4F60F, offset: 0x108EFA, size: 0x8, addend: 0x0, symName: __ZN20llama_io_write_dummy12write_tensorEPK11ggml_tensormm, symObjAddr: 0x9F60, symBinAddr: 0x236DC, symSize: 0x10 }
  - { offsetInCU: 0x4F659, offset: 0x108F44, size: 0x8, addend: 0x0, symName: __ZN20llama_io_write_dummy7n_bytesEv, symObjAddr: 0x9F70, symBinAddr: 0x236EC, symSize: 0x8 }
  - { offsetInCU: 0x4F680, offset: 0x108F6B, size: 0x8, addend: 0x0, symName: __ZN21llama_io_write_bufferD0Ev, symObjAddr: 0x9F78, symBinAddr: 0x236F4, symSize: 0x4 }
  - { offsetInCU: 0x4F6AC, offset: 0x108F97, size: 0x8, addend: 0x0, symName: __ZN21llama_io_write_buffer5writeEPKvm, symObjAddr: 0x9F7C, symBinAddr: 0x236F8, symSize: 0x94 }
  - { offsetInCU: 0x4F6F3, offset: 0x108FDE, size: 0x8, addend: 0x0, symName: __ZN21llama_io_write_buffer12write_tensorEPK11ggml_tensormm, symObjAddr: 0xA010, symBinAddr: 0x2378C, symSize: 0x9C }
  - { offsetInCU: 0x4F774, offset: 0x10905F, size: 0x8, addend: 0x0, symName: __ZN21llama_io_write_buffer7n_bytesEv, symObjAddr: 0xA0AC, symBinAddr: 0x23828, symSize: 0x8 }
  - { offsetInCU: 0x4F79B, offset: 0x109086, size: 0x8, addend: 0x0, symName: __ZN20llama_io_read_bufferD0Ev, symObjAddr: 0xA0B4, symBinAddr: 0x23830, symSize: 0x4 }
  - { offsetInCU: 0x4F7C7, offset: 0x1090B2, size: 0x8, addend: 0x0, symName: __ZN20llama_io_read_buffer4readEm, symObjAddr: 0xA0B8, symBinAddr: 0x23834, symSize: 0x84 }
  - { offsetInCU: 0x4F80F, offset: 0x1090FA, size: 0x8, addend: 0x0, symName: __ZN20llama_io_read_buffer7read_toEPvm, symObjAddr: 0xA13C, symBinAddr: 0x238B8, symSize: 0x3C }
  - { offsetInCU: 0x4F871, offset: 0x10915C, size: 0x8, addend: 0x0, symName: __ZN20llama_io_read_buffer7n_bytesEv, symObjAddr: 0xA178, symBinAddr: 0x238F4, symSize: 0x8 }
  - { offsetInCU: 0x4F898, offset: 0x109183, size: 0x8, addend: 0x0, symName: __ZN18llama_io_read_fileD0Ev, symObjAddr: 0xA180, symBinAddr: 0x238FC, symSize: 0x40 }
  - { offsetInCU: 0x4FEBA, offset: 0x1097A5, size: 0x8, addend: 0x0, symName: __ZN18llama_io_read_file4readEm, symObjAddr: 0xA1C0, symBinAddr: 0x2393C, symSize: 0x1E4 }
  - { offsetInCU: 0x5041D, offset: 0x109D08, size: 0x8, addend: 0x0, symName: __ZN18llama_io_read_file7read_toEPvm, symObjAddr: 0xA3A4, symBinAddr: 0x23B20, symSize: 0x34 }
  - { offsetInCU: 0x5044B, offset: 0x109D36, size: 0x8, addend: 0x0, symName: __ZN18llama_io_read_file7read_toEPvm, symObjAddr: 0xA3A4, symBinAddr: 0x23B20, symSize: 0x34 }
  - { offsetInCU: 0x50492, offset: 0x109D7D, size: 0x8, addend: 0x0, symName: __ZN18llama_io_read_file7n_bytesEv, symObjAddr: 0xA3D8, symBinAddr: 0x23B54, symSize: 0x8 }
  - { offsetInCU: 0x5051D, offset: 0x109E08, size: 0x8, addend: 0x0, symName: __ZN19llama_io_write_fileD0Ev, symObjAddr: 0xA490, symBinAddr: 0x23B5C, symSize: 0x40 }
  - { offsetInCU: 0x506C8, offset: 0x109FB3, size: 0x8, addend: 0x0, symName: __ZN19llama_io_write_file5writeEPKvm, symObjAddr: 0xA4D0, symBinAddr: 0x23B9C, symSize: 0x34 }
  - { offsetInCU: 0x5070F, offset: 0x109FFA, size: 0x8, addend: 0x0, symName: __ZN19llama_io_write_file12write_tensorEPK11ggml_tensormm, symObjAddr: 0xA504, symBinAddr: 0x23BD0, symSize: 0x234 }
  - { offsetInCU: 0x510F2, offset: 0x10A9DD, size: 0x8, addend: 0x0, symName: __ZNKSt3__16vectorINS_10unique_ptrI12ggml_backend20ggml_backend_deleterEENS_9allocatorIS4_EEE20__throw_length_errorB8ue170006Ev, symObjAddr: 0xA8C4, symBinAddr: 0x23F7C, symSize: 0x14 }
  - { offsetInCU: 0x5111C, offset: 0x10AA07, size: 0x8, addend: 0x0, symName: __ZNKSt3__16vectorINS_4pairIP12ggml_backendPFvS3_iEEENS_9allocatorIS6_EEE20__throw_length_errorB8ue170006Ev, symObjAddr: 0xA8D8, symBinAddr: 0x23F90, symSize: 0x14 }
  - { offsetInCU: 0x51662, offset: 0x10AF4D, size: 0x8, addend: 0x0, symName: __ZNSt3__112__hash_tableINS_17__hash_value_typeIP18llama_adapter_lorafEENS_22__unordered_map_hasherIS3_S4_NS_4hashIS3_EENS_8equal_toIS3_EELb1EEENS_21__unordered_map_equalIS3_S4_S9_S7_Lb1EEENS_9allocatorIS4_EEE11__do_rehashILb1EEEvm, symObjAddr: 0xAC64, symBinAddr: 0x24308, symSize: 0x1AC }
  - { offsetInCU: 0x51AC2, offset: 0x10B3AD, size: 0x8, addend: 0x0, symName: __ZNSt3__112__hash_tableINS_17__hash_value_typeIP18llama_adapter_lorafEENS_22__unordered_map_hasherIS3_S4_NS_4hashIS3_EENS_8equal_toIS3_EELb1EEENS_21__unordered_map_equalIS3_S4_S9_S7_Lb1EEENS_9allocatorIS4_EEE4findIS3_EENS_15__hash_iteratorIPNS_11__hash_nodeIS4_PvEEEERKT_, symObjAddr: 0xAE10, symBinAddr: 0x244B4, symSize: 0x114 }
  - { offsetInCU: 0x522CB, offset: 0x10BBB6, size: 0x8, addend: 0x0, symName: __ZNKSt3__16vectorIN13llama_context9swap_infoENS_9allocatorIS2_EEE20__throw_length_errorB8ue170006Ev, symObjAddr: 0xB5E0, symBinAddr: 0x246FC, symSize: 0x14 }
  - { offsetInCU: 0x524AF, offset: 0x10BD9A, size: 0x8, addend: 0x0, symName: '__ZNSt3__110__function6__funcIZNK13llama_context12graph_get_cbEvE3$_0NS_9allocatorIS3_EEFvRK12llama_ubatchP11ggml_tensorPKciEED1Ev', symObjAddr: 0xB7AC, symBinAddr: 0x24710, symSize: 0x4 }
  - { offsetInCU: 0x524BA, offset: 0x10BDA5, size: 0x8, addend: 0x0, symName: '__ZNSt3__110__function6__funcIZNK13llama_context12graph_get_cbEvE3$_0NS_9allocatorIS3_EEFvRK12llama_ubatchP11ggml_tensorPKciEED1Ev', symObjAddr: 0xB7AC, symBinAddr: 0x24710, symSize: 0x4 }
  - { offsetInCU: 0x524E6, offset: 0x10BDD1, size: 0x8, addend: 0x0, symName: '__ZNSt3__110__function6__funcIZNK13llama_context12graph_get_cbEvE3$_0NS_9allocatorIS3_EEFvRK12llama_ubatchP11ggml_tensorPKciEED0Ev', symObjAddr: 0xB7B0, symBinAddr: 0x24714, symSize: 0x4 }
  - { offsetInCU: 0x5259C, offset: 0x10BE87, size: 0x8, addend: 0x0, symName: '__ZNKSt3__110__function6__funcIZNK13llama_context12graph_get_cbEvE3$_0NS_9allocatorIS3_EEFvRK12llama_ubatchP11ggml_tensorPKciEE7__cloneEv', symObjAddr: 0xB7B4, symBinAddr: 0x24718, symSize: 0x34 }
  - { offsetInCU: 0x526EA, offset: 0x10BFD5, size: 0x8, addend: 0x0, symName: '__ZNKSt3__110__function6__funcIZNK13llama_context12graph_get_cbEvE3$_0NS_9allocatorIS3_EEFvRK12llama_ubatchP11ggml_tensorPKciEE7__cloneEPNS0_6__baseISD_EE', symObjAddr: 0xB7E8, symBinAddr: 0x2474C, symSize: 0x14 }
  - { offsetInCU: 0x5275A, offset: 0x10C045, size: 0x8, addend: 0x0, symName: '__ZNSt3__110__function6__funcIZNK13llama_context12graph_get_cbEvE3$_0NS_9allocatorIS3_EEFvRK12llama_ubatchP11ggml_tensorPKciEE7destroyEv', symObjAddr: 0xB7FC, symBinAddr: 0x24760, symSize: 0x4 }
  - { offsetInCU: 0x527AB, offset: 0x10C096, size: 0x8, addend: 0x0, symName: '__ZNSt3__110__function6__funcIZNK13llama_context12graph_get_cbEvE3$_0NS_9allocatorIS3_EEFvRK12llama_ubatchP11ggml_tensorPKciEE18destroy_deallocateEv', symObjAddr: 0xB800, symBinAddr: 0x24764, symSize: 0x4 }
  - { offsetInCU: 0x527E1, offset: 0x10C0CC, size: 0x8, addend: 0x0, symName: '__ZNSt3__110__function6__funcIZNK13llama_context12graph_get_cbEvE3$_0NS_9allocatorIS3_EEFvRK12llama_ubatchP11ggml_tensorPKciEE18destroy_deallocateEv', symObjAddr: 0xB800, symBinAddr: 0x24764, symSize: 0x4 }
  - { offsetInCU: 0x52804, offset: 0x10C0EF, size: 0x8, addend: 0x0, symName: '__ZNSt3__110__function6__funcIZNK13llama_context12graph_get_cbEvE3$_0NS_9allocatorIS3_EEFvRK12llama_ubatchP11ggml_tensorPKciEE18destroy_deallocateEv', symObjAddr: 0xB800, symBinAddr: 0x24764, symSize: 0x4 }
  - { offsetInCU: 0x52831, offset: 0x10C11C, size: 0x8, addend: 0x0, symName: '__ZNSt3__110__function6__funcIZNK13llama_context12graph_get_cbEvE3$_0NS_9allocatorIS3_EEFvRK12llama_ubatchP11ggml_tensorPKciEE18destroy_deallocateEv', symObjAddr: 0xB800, symBinAddr: 0x24764, symSize: 0x4 }
  - { offsetInCU: 0x52857, offset: 0x10C142, size: 0x8, addend: 0x0, symName: '__ZNSt3__110__function6__funcIZNK13llama_context12graph_get_cbEvE3$_0NS_9allocatorIS3_EEFvRK12llama_ubatchP11ggml_tensorPKciEE18destroy_deallocateEv', symObjAddr: 0xB800, symBinAddr: 0x24764, symSize: 0x4 }
  - { offsetInCU: 0x529F9, offset: 0x10C2E4, size: 0x8, addend: 0x0, symName: '__ZNSt3__110__function6__funcIZNK13llama_context12graph_get_cbEvE3$_0NS_9allocatorIS3_EEFvRK12llama_ubatchP11ggml_tensorPKciEEclES8_OSA_OSC_Oi', symObjAddr: 0xB804, symBinAddr: 0x24768, symSize: 0x150 }
  - { offsetInCU: 0x52CED, offset: 0x10C5D8, size: 0x8, addend: 0x0, symName: '__ZNKSt3__110__function6__funcIZNK13llama_context12graph_get_cbEvE3$_0NS_9allocatorIS3_EEFvRK12llama_ubatchP11ggml_tensorPKciEE6targetERKSt9type_info', symObjAddr: 0xB954, symBinAddr: 0x248B8, symSize: 0x60 }
  - { offsetInCU: 0x52D72, offset: 0x10C65D, size: 0x8, addend: 0x0, symName: '__ZNKSt3__110__function6__funcIZNK13llama_context12graph_get_cbEvE3$_0NS_9allocatorIS3_EEFvRK12llama_ubatchP11ggml_tensorPKciEE11target_typeEv', symObjAddr: 0xB9B4, symBinAddr: 0x24918, symSize: 0xC }
  - { offsetInCU: 0x26, offset: 0x10C785, size: 0x8, addend: 0x0, symName: _llama_max_parallel_sequences, symObjAddr: 0x0, symBinAddr: 0x24924, symSize: 0x8 }
  - { offsetInCU: 0x14A, offset: 0x10C8A9, size: 0x8, addend: 0x0, symName: _llama_max_parallel_sequences, symObjAddr: 0x0, symBinAddr: 0x24924, symSize: 0x8 }
  - { offsetInCU: 0x26, offset: 0x10C8E9, size: 0x8, addend: 0x0, symName: __ZN20llama_grammar_parser13get_symbol_idEPKcm, symObjAddr: 0x0, symBinAddr: 0x2492C, symSize: 0xEC }
  - { offsetInCU: 0x5F, offset: 0x10C922, size: 0x8, addend: 0x0, symName: __ZL11decode_utf8RKNSt3__112basic_stringIcNS_11char_traitsIcEENS_9allocatorIcEEEE18llama_partial_utf8, symObjAddr: 0x82CC, symBinAddr: 0x2CB58, symSize: 0x968 }
  - { offsetInCU: 0x89, offset: 0x10C94C, size: 0x8, addend: 0x0, symName: __ZZL11decode_utf8RKNSt3__112basic_stringIcNS_11char_traitsIcEENS_9allocatorIcEEEE18llama_partial_utf8E6lookup, symObjAddr: 0x1857C, symBinAddr: 0x20DEC4, symSize: 0x0 }
  - { offsetInCU: 0x2E895, offset: 0x13B158, size: 0x8, addend: 0x0, symName: __ZNSt3__119__throw_regex_errorB8ue170006ILNS_15regex_constants10error_typeE17EEEvv, symObjAddr: 0xAFC0, symBinAddr: 0x2F54C, symSize: 0x4C }
  - { offsetInCU: 0x2F5D5, offset: 0x13BE98, size: 0x8, addend: 0x0, symName: __ZNSt3__119__throw_regex_errorB8ue170006ILNS_15regex_constants10error_typeE14EEEvv, symObjAddr: 0xB8C8, symBinAddr: 0x2FE54, symSize: 0x4C }
  - { offsetInCU: 0x2F98B, offset: 0x13C24E, size: 0x8, addend: 0x0, symName: __ZNSt3__119__throw_regex_errorB8ue170006ILNS_15regex_constants10error_typeE15EEEvv, symObjAddr: 0x13540, symBinAddr: 0x37AB8, symSize: 0x4C }
  - { offsetInCU: 0x2FCF6, offset: 0x13C5B9, size: 0x8, addend: 0x0, symName: __ZNSt3__119__throw_regex_errorB8ue170006ILNS_15regex_constants10error_typeE6EEEvv, symObjAddr: 0xC504, symBinAddr: 0x30A90, symSize: 0x4C }
  - { offsetInCU: 0x2FEA1, offset: 0x13C764, size: 0x8, addend: 0x0, symName: __ZNSt3__119__throw_regex_errorB8ue170006ILNS_15regex_constants10error_typeE11EEEvv, symObjAddr: 0xDC34, symBinAddr: 0x321C0, symSize: 0x4C }
  - { offsetInCU: 0x2FEE4, offset: 0x13C7A7, size: 0x8, addend: 0x0, symName: __ZNSt3__119__throw_regex_errorB8ue170006ILNS_15regex_constants10error_typeE8EEEvv, symObjAddr: 0x12EF4, symBinAddr: 0x3746C, symSize: 0x4C }
  - { offsetInCU: 0x2FF09, offset: 0x13C7CC, size: 0x8, addend: 0x0, symName: __ZNSt3__119__throw_regex_errorB8ue170006ILNS_15regex_constants10error_typeE7EEEvv, symObjAddr: 0x12F40, symBinAddr: 0x374B8, symSize: 0x4C }
  - { offsetInCU: 0x30036, offset: 0x13C8F9, size: 0x8, addend: 0x0, symName: __ZNSt3__119__throw_regex_errorB8ue170006ILNS_15regex_constants10error_typeE12EEEvv, symObjAddr: 0xD218, symBinAddr: 0x317A4, symSize: 0x4C }
  - { offsetInCU: 0x3005B, offset: 0x13C91E, size: 0x8, addend: 0x0, symName: __ZNSt3__119__throw_regex_errorB8ue170006ILNS_15regex_constants10error_typeE16EEEvv, symObjAddr: 0xD264, symBinAddr: 0x317F0, symSize: 0x4C }
  - { offsetInCU: 0x309D3, offset: 0x13D296, size: 0x8, addend: 0x0, symName: __ZNSt3__119__throw_regex_errorB8ue170006ILNS_15regex_constants10error_typeE4EEEvv, symObjAddr: 0xE4BC, symBinAddr: 0x32A48, symSize: 0x4C }
  - { offsetInCU: 0x309F8, offset: 0x13D2BB, size: 0x8, addend: 0x0, symName: __ZNSt3__119__throw_regex_errorB8ue170006ILNS_15regex_constants10error_typeE3EEEvv, symObjAddr: 0xDD78, symBinAddr: 0x32304, symSize: 0x4C }
  - { offsetInCU: 0x30A1D, offset: 0x13D2E0, size: 0x8, addend: 0x0, symName: __ZNSt3__119__throw_regex_errorB8ue170006ILNS_15regex_constants10error_typeE5EEEvv, symObjAddr: 0x10560, symBinAddr: 0x34AD8, symSize: 0x4C }
  - { offsetInCU: 0x317BC, offset: 0x13E07F, size: 0x8, addend: 0x0, symName: __ZNSt3__119__throw_regex_errorB8ue170006ILNS_15regex_constants10error_typeE1EEEvv, symObjAddr: 0x11AB0, symBinAddr: 0x36028, symSize: 0x4C }
  - { offsetInCU: 0x317E1, offset: 0x13E0A4, size: 0x8, addend: 0x0, symName: __ZNSt3__119__throw_regex_errorB8ue170006ILNS_15regex_constants10error_typeE2EEEvv, symObjAddr: 0x12218, symBinAddr: 0x36790, symSize: 0x4C }
  - { offsetInCU: 0x31842, offset: 0x13E105, size: 0x8, addend: 0x0, symName: __ZNSt3__119__throw_regex_errorB8ue170006ILNS_15regex_constants10error_typeE9EEEvv, symObjAddr: 0x12A04, symBinAddr: 0x36F7C, symSize: 0x4C }
  - { offsetInCU: 0x323ED, offset: 0x13ECB0, size: 0x8, addend: 0x0, symName: __ZNSt3__135__uninitialized_allocator_copy_implB8ue170006INS_9allocatorINS_6vectorI21llama_grammar_elementNS1_IS3_EEEEEEPS5_S7_S7_EET2_RT_T0_T1_S8_, symObjAddr: 0x14160, symBinAddr: 0x386D8, symSize: 0xF4 }
  - { offsetInCU: 0x32B26, offset: 0x13F3E9, size: 0x8, addend: 0x0, symName: __ZNSt3__135__uninitialized_allocator_copy_implB8ue170006INS_9allocatorINS_6vectorIPK21llama_grammar_elementNS1_IS5_EEEEEEPS7_S9_S9_EET2_RT_T0_T1_SA_, symObjAddr: 0x14394, symBinAddr: 0x3890C, symSize: 0xF4 }
  - { offsetInCU: 0x3325F, offset: 0x13FB22, size: 0x8, addend: 0x0, symName: __ZNSt3__135__uninitialized_allocator_copy_implB8ue170006INS_9allocatorI29llama_grammar_trigger_patternEEPS2_S4_S4_EET2_RT_T0_T1_S5_, symObjAddr: 0x145D4, symBinAddr: 0x38B4C, symSize: 0x158 }
  - { offsetInCU: 0x39E58, offset: 0x14671B, size: 0x8, addend: 0x0, symName: __ZN20llama_grammar_parser13get_symbol_idEPKcm, symObjAddr: 0x0, symBinAddr: 0x2492C, symSize: 0xEC }
  - { offsetInCU: 0x3A4D2, offset: 0x146D95, size: 0x8, addend: 0x0, symName: __ZNSt3__16__treeINS_12__value_typeINS_12basic_stringIcNS_11char_traitsIcEENS_9allocatorIcEEEEjEENS_19__map_value_compareIS7_S8_NS_4lessIS7_EELb1EEENS5_IS8_EEE25__emplace_unique_key_argsIS7_JS7_RjEEENS_4pairINS_15__tree_iteratorIS8_PNS_11__tree_nodeIS8_PvEElEEbEERKT_DpOT0_, symObjAddr: 0xA080, symBinAddr: 0x2E7E8, symSize: 0x184 }
  - { offsetInCU: 0x3AA3C, offset: 0x1472FF, size: 0x8, addend: 0x0, symName: __ZNSt3__16__treeINS_12__value_typeINS_12basic_stringIcNS_11char_traitsIcEENS_9allocatorIcEEEEjEENS_19__map_value_compareIS7_S8_NS_4lessIS7_EELb1EEENS5_IS8_EEE25__emplace_unique_key_argsIS7_JS7_RjEEENS_4pairINS_15__tree_iteratorIS8_PNS_11__tree_nodeIS8_PvEElEEbEERKT_DpOT0_, symObjAddr: 0xA080, symBinAddr: 0x2E7E8, symSize: 0x184 }
  - { offsetInCU: 0x3AC09, offset: 0x1474CC, size: 0x8, addend: 0x0, symName: __ZN20llama_grammar_parser18generate_symbol_idERKNSt3__112basic_stringIcNS0_11char_traitsIcEENS0_9allocatorIcEEEE, symObjAddr: 0xEC, symBinAddr: 0x24A18, symSize: 0x1FC }
  - { offsetInCU: 0x3B81F, offset: 0x1480E2, size: 0x8, addend: 0x0, symName: __ZNSt3__16__treeINS_12__value_typeINS_12basic_stringIcNS_11char_traitsIcEENS_9allocatorIcEEEEjEENS_19__map_value_compareIS7_S8_NS_4lessIS7_EELb1EEENS5_IS8_EEE25__emplace_unique_key_argsIS7_JRKNS_21piecewise_construct_tENS_5tupleIJOS7_EEENSJ_IJEEEEEENS_4pairINS_15__tree_iteratorIS8_PNS_11__tree_nodeIS8_PvEElEEbEERKT_DpOT0_, symObjAddr: 0xA3B8, symBinAddr: 0x2E96C, symSize: 0x178 }
  - { offsetInCU: 0x3BFEF, offset: 0x1488B2, size: 0x8, addend: 0x0, symName: __ZN20llama_grammar_parser8add_ruleEjRKNSt3__16vectorI21llama_grammar_elementNS0_9allocatorIS2_EEEE, symObjAddr: 0x2E8, symBinAddr: 0x24C14, symSize: 0xE8 }
  - { offsetInCU: 0x3C330, offset: 0x148BF3, size: 0x8, addend: 0x0, symName: __ZNSt3__16vectorINS0_I21llama_grammar_elementNS_9allocatorIS1_EEEENS2_IS4_EEE8__appendEm, symObjAddr: 0xA530, symBinAddr: 0x2EAE4, symSize: 0x1F0 }
  - { offsetInCU: 0x3CA06, offset: 0x1492C9, size: 0x8, addend: 0x0, symName: __ZNKSt3__16vectorINS0_I21llama_grammar_elementNS_9allocatorIS1_EEEENS2_IS4_EEE20__throw_length_errorB8ue170006Ev, symObjAddr: 0xA720, symBinAddr: 0x2ECD4, symSize: 0x14 }
  - { offsetInCU: 0x3CA12, offset: 0x1492D5, size: 0x8, addend: 0x0, symName: __ZNSt3__16vectorI21llama_grammar_elementNS_9allocatorIS1_EEE18__assign_with_sizeB8ue170006IPS1_S6_EEvT_T0_l, symObjAddr: 0xA734, symBinAddr: 0x2ECE8, symSize: 0x144 }
  - { offsetInCU: 0x3D43B, offset: 0x149CFE, size: 0x8, addend: 0x0, symName: __ZNSt3__16__treeINS_12__value_typeIjNS_12basic_stringIcNS_11char_traitsIcEENS_9allocatorIcEEEEEENS_19__map_value_compareIjS8_NS_4lessIjEELb1EEENS5_IS8_EEE7destroyEPNS_11__tree_nodeIS8_PvEE, symObjAddr: 0xA878, symBinAddr: 0x2EE2C, symSize: 0x60 }
  - { offsetInCU: 0x3D867, offset: 0x14A12A, size: 0x8, addend: 0x0, symName: __ZN20llama_grammar_parser16parse_alternatesEPKcRKNSt3__112basic_stringIcNS2_11char_traitsIcEENS2_9allocatorIcEEEEjb, symObjAddr: 0x3D0, symBinAddr: 0x24CFC, symSize: 0x4A4 }
  - { offsetInCU: 0x3E7CE, offset: 0x14B091, size: 0x8, addend: 0x0, symName: __ZN20llama_grammar_parser14parse_sequenceEPKcRKNSt3__112basic_stringIcNS2_11char_traitsIcEENS2_9allocatorIcEEEERNS2_6vectorI21llama_grammar_elementNS6_ISC_EEEEb, symObjAddr: 0x874, symBinAddr: 0x251A0, symSize: 0x197C }
  - { offsetInCU: 0x4153F, offset: 0x14DE02, size: 0x8, addend: 0x0, symName: __ZNKSt3__16vectorI21llama_grammar_elementNS_9allocatorIS1_EEE20__throw_length_errorB8ue170006Ev, symObjAddr: 0x94B8, symBinAddr: 0x2DD44, symSize: 0x14 }
  - { offsetInCU: 0x415AD, offset: 0x14DE70, size: 0x8, addend: 0x0, symName: __ZL10parse_namePKc, symObjAddr: 0x242C, symBinAddr: 0x26D58, symSize: 0x138 }
  - { offsetInCU: 0x418B4, offset: 0x14E177, size: 0x8, addend: 0x0, symName: __ZL10parse_charPKc, symObjAddr: 0x21F0, symBinAddr: 0x26B1C, symSize: 0x23C }
  - { offsetInCU: 0x41C10, offset: 0x14E4D3, size: 0x8, addend: 0x0, symName: __ZL9parse_intPKc, symObjAddr: 0x2FC4, symBinAddr: 0x27850, symSize: 0x118 }
  - { offsetInCU: 0x41F31, offset: 0x14E7F4, size: 0x8, addend: 0x0, symName: '__ZZN20llama_grammar_parser14parse_sequenceEPKcRKNSt3__112basic_stringIcNS2_11char_traitsIcEENS2_9allocatorIcEEEERNS2_6vectorI21llama_grammar_elementNS6_ISC_EEEEbENK3$_0clEii', symObjAddr: 0x2604, symBinAddr: 0x26E90, symSize: 0x9C0 }
  - { offsetInCU: 0x445F9, offset: 0x150EBC, size: 0x8, addend: 0x0, symName: '__ZZN20llama_grammar_parser14parse_sequenceEPKcRKNSt3__112basic_stringIcNS2_11char_traitsIcEENS2_9allocatorIcEEEERNS2_6vectorI21llama_grammar_elementNS6_ISC_EEEEbENK3$_0clEii', symObjAddr: 0x2604, symBinAddr: 0x26E90, symSize: 0x9C0 }
  - { offsetInCU: 0x4468C, offset: 0x150F4F, size: 0x8, addend: 0x0, symName: __ZL9parse_hexPKci, symObjAddr: 0x9294, symBinAddr: 0x2DB20, symSize: 0x224 }
  - { offsetInCU: 0x45182, offset: 0x151A45, size: 0x8, addend: 0x0, symName: __ZNSt3__16vectorI21llama_grammar_elementNS_9allocatorIS1_EEE18__insert_with_sizeB8ue170006INS_11__wrap_iterIPS1_EES8_EES8_NS6_IPKS1_EET_T0_l, symObjAddr: 0x9710, symBinAddr: 0x2DF00, symSize: 0x3BC }
  - { offsetInCU: 0x45E17, offset: 0x1526DA, size: 0x8, addend: 0x0, symName: __ZNSt3__16vectorI21llama_grammar_elementNS_9allocatorIS1_EEE8__appendEm, symObjAddr: 0x9568, symBinAddr: 0x2DD58, symSize: 0x1A8 }
  - { offsetInCU: 0x462A5, offset: 0x152B68, size: 0x8, addend: 0x0, symName: __ZNSt3__16vectorI21llama_grammar_elementNS_9allocatorIS1_EEE18__insert_with_sizeB8ue170006INS_11__wrap_iterIPS1_EES8_EES8_NS6_IPKS1_EET_T0_l, symObjAddr: 0x9710, symBinAddr: 0x2DF00, symSize: 0x3BC }
  - { offsetInCU: 0x462B1, offset: 0x152B74, size: 0x8, addend: 0x0, symName: __ZN20llama_grammar_parser10parse_ruleEPKc, symObjAddr: 0x30DC, symBinAddr: 0x27968, symSize: 0x434 }
  - { offsetInCU: 0x47055, offset: 0x153918, size: 0x8, addend: 0x0, symName: __ZN20llama_grammar_parser5parseEPKc, symObjAddr: 0x3510, symBinAddr: 0x27D9C, symSize: 0x368 }
  - { offsetInCU: 0x47FCF, offset: 0x154892, size: 0x8, addend: 0x0, symName: __ZN20llama_grammar_parser5printEP7__sFILE, symObjAddr: 0x3878, symBinAddr: 0x28104, symSize: 0x998 }
  - { offsetInCU: 0x499F4, offset: 0x1562B7, size: 0x8, addend: 0x0, symName: __ZNSt3__16__treeINS_12__value_typeIjNS_12basic_stringIcNS_11char_traitsIcEENS_9allocatorIcEEEEEENS_19__map_value_compareIjS8_NS_4lessIjEELb1EEENS5_IS8_EEE7destroyEPNS_11__tree_nodeIS8_PvEE, symObjAddr: 0xA878, symBinAddr: 0x2EE2C, symSize: 0x60 }
  - { offsetInCU: 0x4A153, offset: 0x156A16, size: 0x8, addend: 0x0, symName: __ZNK20llama_grammar_parser7c_rulesEv, symObjAddr: 0x4210, symBinAddr: 0x28A9C, symSize: 0x1C8 }
  - { offsetInCU: 0x4A931, offset: 0x1571F4, size: 0x8, addend: 0x0, symName: __ZNKSt3__16vectorIPK21llama_grammar_elementNS_9allocatorIS3_EEE20__throw_length_errorB8ue170006Ev, symObjAddr: 0x9D60, symBinAddr: 0x2E4DC, symSize: 0x14 }
  - { offsetInCU: 0x4A95A, offset: 0x15721D, size: 0x8, addend: 0x0, symName: __ZNSt3__114__split_bufferINS_6vectorIPK21llama_grammar_elementNS_9allocatorIS4_EEEERNS5_IS7_EEED1Ev, symObjAddr: 0x9D74, symBinAddr: 0x2E4F0, symSize: 0x6C }
  - { offsetInCU: 0x4A966, offset: 0x157229, size: 0x8, addend: 0x0, symName: __Z23llama_grammar_get_rulesPK13llama_grammar, symObjAddr: 0x43D8, symBinAddr: 0x28C64, symSize: 0x8 }
  - { offsetInCU: 0x4A996, offset: 0x157259, size: 0x8, addend: 0x0, symName: __Z24llama_grammar_get_stacksP13llama_grammar, symObjAddr: 0x43E0, symBinAddr: 0x28C6C, symSize: 0x8 }
  - { offsetInCU: 0x4AF23, offset: 0x1577E6, size: 0x8, addend: 0x0, symName: __Z20llama_grammar_acceptP13llama_grammarj, symObjAddr: 0x43E8, symBinAddr: 0x28C74, symSize: 0x430 }
  - { offsetInCU: 0x4BC80, offset: 0x158543, size: 0x8, addend: 0x0, symName: __ZNSt3__16vectorINS0_IPK21llama_grammar_elementNS_9allocatorIS3_EEEENS4_IS6_EEE7reserveEm, symObjAddr: 0x4818, symBinAddr: 0x290A4, symSize: 0x134 }
  - { offsetInCU: 0x4C1CC, offset: 0x158A8F, size: 0x8, addend: 0x0, symName: __ZL27llama_grammar_advance_stackRKNSt3__16vectorINS0_I21llama_grammar_elementNS_9allocatorIS1_EEEENS2_IS4_EEEERKNS0_IPKS1_NS2_ISA_EEEERNS0_ISC_NS2_ISC_EEEE, symObjAddr: 0x494C, symBinAddr: 0x291D8, symSize: 0x518 }
  - { offsetInCU: 0x4C1DE, offset: 0x158AA1, size: 0x8, addend: 0x0, symName: __ZL27llama_grammar_advance_stackRKNSt3__16vectorINS0_I21llama_grammar_elementNS_9allocatorIS1_EEEENS2_IS4_EEEERKNS0_IPKS1_NS2_ISA_EEEERNS0_ISC_NS2_ISC_EEEE, symObjAddr: 0x494C, symBinAddr: 0x291D8, symSize: 0x518 }
  - { offsetInCU: 0x4D578, offset: 0x159E3B, size: 0x8, addend: 0x0, symName: __ZNSt3__16vectorINS0_IPK21llama_grammar_elementNS_9allocatorIS3_EEEENS4_IS6_EEED1B8ue170006Ev, symObjAddr: 0x4E64, symBinAddr: 0x296F0, symSize: 0x74 }
  - { offsetInCU: 0x4DA99, offset: 0x15A35C, size: 0x8, addend: 0x0, symName: __ZNKSt3__16vectorINS0_IPK21llama_grammar_elementNS_9allocatorIS3_EEEENS4_IS6_EEE20__throw_length_errorB8ue170006Ev, symObjAddr: 0x9DE0, symBinAddr: 0x2E55C, symSize: 0x14 }
  - { offsetInCU: 0x4DAC2, offset: 0x15A385, size: 0x8, addend: 0x0, symName: __ZNSt3__110shared_ptrINS_13__empty_stateIcEEED1B8ue170006Ev, symObjAddr: 0x9DF4, symBinAddr: 0x2E570, symSize: 0x60 }
  - { offsetInCU: 0x4DD6F, offset: 0x15A632, size: 0x8, addend: 0x0, symName: __ZNSt3__16vectorINS0_IPK21llama_grammar_elementNS_9allocatorIS3_EEEENS4_IS6_EEE24__emplace_back_slow_pathIJRKS6_EEEvDpOT_, symObjAddr: 0x9B40, symBinAddr: 0x2E2BC, symSize: 0x220 }
  - { offsetInCU: 0x4EF92, offset: 0x15B855, size: 0x8, addend: 0x0, symName: __Z41llama_grammar_reject_candidates_for_stackRKNSt3__16vectorINS0_I21llama_grammar_elementNS_9allocatorIS1_EEEENS2_IS4_EEEERKNS0_IPKS1_NS2_ISA_EEEERKNS0_I23llama_grammar_candidateNS2_ISF_EEEE, symObjAddr: 0x4ED8, symBinAddr: 0x29764, symSize: 0xDF8 }
  - { offsetInCU: 0x51C87, offset: 0x15E54A, size: 0x8, addend: 0x0, symName: __ZL31llama_grammar_reject_candidatesRKNSt3__16vectorINS0_I21llama_grammar_elementNS_9allocatorIS1_EEEENS2_IS4_EEEERKNS0_INS0_IPKS1_NS2_ISA_EEEENS2_ISC_EEEERKNS0_I23llama_grammar_candidateNS2_ISH_EEEE, symObjAddr: 0x5CD0, symBinAddr: 0x2A55C, symSize: 0x128 }
  - { offsetInCU: 0x520DB, offset: 0x15E99E, size: 0x8, addend: 0x0, symName: __ZNKSt3__16vectorI23llama_grammar_candidateNS_9allocatorIS1_EEE20__throw_length_errorB8ue170006Ev, symObjAddr: 0xA8D8, symBinAddr: 0x2EE8C, symSize: 0x14 }
  - { offsetInCU: 0x52695, offset: 0x15EF58, size: 0x8, addend: 0x0, symName: __Z23llama_grammar_init_implPK11llama_vocabPPK21llama_grammar_elementmm, symObjAddr: 0x5DF8, symBinAddr: 0x2A684, symSize: 0x7BC }
  - { offsetInCU: 0x5469F, offset: 0x160F62, size: 0x8, addend: 0x0, symName: __ZNSt3__16vectorINS0_I21llama_grammar_elementNS_9allocatorIS1_EEEENS2_IS4_EEEC1Em, symObjAddr: 0x65B4, symBinAddr: 0x2AE40, symSize: 0xCC }
  - { offsetInCU: 0x5490C, offset: 0x1611CF, size: 0x8, addend: 0x0, symName: __ZL35llama_grammar_detect_left_recursionRKNSt3__16vectorINS0_I21llama_grammar_elementNS_9allocatorIS1_EEEENS2_IS4_EEEEmPNS0_IbNS2_IbEEEESB_SB_, symObjAddr: 0x6680, symBinAddr: 0x2AF0C, symSize: 0x198 }
  - { offsetInCU: 0x54CA2, offset: 0x161565, size: 0x8, addend: 0x0, symName: __ZNSt3__16vectorINS0_I21llama_grammar_elementNS_9allocatorIS1_EEEENS2_IS4_EEED1B8ue170006Ev, symObjAddr: 0x6818, symBinAddr: 0x2B0A4, symSize: 0x74 }
  - { offsetInCU: 0x55128, offset: 0x1619EB, size: 0x8, addend: 0x0, symName: __ZNKSt3__16vectorINS0_I21llama_grammar_elementNS_9allocatorIS1_EEEENS2_IS4_EEE20__throw_length_errorB8ue170006Ev, symObjAddr: 0xA720, symBinAddr: 0x2ECD4, symSize: 0x14 }
  - { offsetInCU: 0x55151, offset: 0x161A14, size: 0x8, addend: 0x0, symName: __ZNSt3__16vectorI21llama_grammar_elementNS_9allocatorIS1_EEE18__assign_with_sizeB8ue170006IPS1_S6_EEvT_T0_l, symObjAddr: 0xA734, symBinAddr: 0x2ECE8, symSize: 0x144 }
  - { offsetInCU: 0x5515D, offset: 0x161A20, size: 0x8, addend: 0x0, symName: __ZNSt3__16vectorINS0_I21llama_grammar_elementNS_9allocatorIS1_EEEENS2_IS4_EEEC1Em.cold.1, symObjAddr: 0x17344, symBinAddr: 0x1FD078, symSize: 0x48 }
  - { offsetInCU: 0x561D8, offset: 0x162A9B, size: 0x8, addend: 0x0, symName: __Z23llama_grammar_init_implPK11llama_vocabPKcS3_bPS3_mPKim, symObjAddr: 0x688C, symBinAddr: 0x2B118, symSize: 0xF44 }
  - { offsetInCU: 0x5A6D2, offset: 0x166F95, size: 0x8, addend: 0x0, symName: __ZNSt3__16__treeINS_12__value_typeINS_12basic_stringIcNS_11char_traitsIcEENS_9allocatorIcEEEEjEENS_19__map_value_compareIS7_S8_NS_4lessIS7_EELb1EEENS5_IS8_EEE7destroyEPNS_11__tree_nodeIS8_PvEE, symObjAddr: 0x9E54, symBinAddr: 0x2E5D0, symSize: 0x60 }
  - { offsetInCU: 0x5A93A, offset: 0x1671FD, size: 0x8, addend: 0x0, symName: __ZNSt3__16vectorI29llama_grammar_trigger_patternNS_9allocatorIS1_EEE24__emplace_back_slow_pathIJEEEvDpOT_, symObjAddr: 0xA914, symBinAddr: 0x2EEA0, symSize: 0x2AC }
  - { offsetInCU: 0x5B4D9, offset: 0x167D9C, size: 0x8, addend: 0x0, symName: __ZNSt3__111basic_regexIcNS_12regex_traitsIcEEEC2B8ue170006INS_11char_traitsIcEENS_9allocatorIcEEEERKNS_12basic_stringIcT_T0_EENS_15regex_constants18syntax_option_typeE, symObjAddr: 0xAD04, symBinAddr: 0x2F290, symSize: 0xCC }
  - { offsetInCU: 0x5B6AF, offset: 0x167F72, size: 0x8, addend: 0x0, symName: __ZNSt3__16vectorI29llama_grammar_trigger_patternNS_9allocatorIS1_EEE24__emplace_back_slow_pathIJEEEvDpOT_, symObjAddr: 0xA914, symBinAddr: 0x2EEA0, symSize: 0x2AC }
  - { offsetInCU: 0x5B6BB, offset: 0x167F7E, size: 0x8, addend: 0x0, symName: __ZN20llama_grammar_parserD1Ev, symObjAddr: 0x78F4, symBinAddr: 0x2C180, symSize: 0x80 }
  - { offsetInCU: 0x5BA6C, offset: 0x16832F, size: 0x8, addend: 0x0, symName: __ZNSt3__16vectorI29llama_grammar_trigger_patternNS_9allocatorIS1_EEED1B8ue170006Ev, symObjAddr: 0x7830, symBinAddr: 0x2C0BC, symSize: 0xC4 }
  - { offsetInCU: 0x5BE4F, offset: 0x168712, size: 0x8, addend: 0x0, symName: __ZNSt3__111basic_regexIcNS_12regex_traitsIcEEED1Ev, symObjAddr: 0x77D0, symBinAddr: 0x2C05C, symSize: 0x60 }
  - { offsetInCU: 0x5C7B0, offset: 0x169073, size: 0x8, addend: 0x0, symName: __Z23llama_grammar_free_implP13llama_grammar, symObjAddr: 0x7974, symBinAddr: 0x2C200, symSize: 0x1C }
  - { offsetInCU: 0x5C806, offset: 0x1690C9, size: 0x8, addend: 0x0, symName: __ZN13llama_grammarD2Ev, symObjAddr: 0x9EB4, symBinAddr: 0x2E630, symSize: 0x1A4 }
  - { offsetInCU: 0x5D6B5, offset: 0x169F78, size: 0x8, addend: 0x0, symName: __Z24llama_grammar_clone_implRK13llama_grammar, symObjAddr: 0x7990, symBinAddr: 0x2C21C, symSize: 0x334 }
  - { offsetInCU: 0x5E17C, offset: 0x16AA3F, size: 0x8, addend: 0x0, symName: __ZNSt3__16vectorINS0_I21llama_grammar_elementNS_9allocatorIS1_EEEENS2_IS4_EEEC2ERKS6_, symObjAddr: 0x1408C, symBinAddr: 0x38604, symSize: 0xD4 }
  - { offsetInCU: 0x5E42F, offset: 0x16ACF2, size: 0x8, addend: 0x0, symName: __ZNSt3__16vectorINS0_IPK21llama_grammar_elementNS_9allocatorIS3_EEEENS4_IS6_EEEC2ERKS8_, symObjAddr: 0x142C0, symBinAddr: 0x38838, symSize: 0xD4 }
  - { offsetInCU: 0x5E6E2, offset: 0x16AFA5, size: 0x8, addend: 0x0, symName: __ZNSt3__16vectorI29llama_grammar_trigger_patternNS_9allocatorIS1_EEEC2ERKS4_, symObjAddr: 0x144F4, symBinAddr: 0x38A6C, symSize: 0xE0 }
  - { offsetInCU: 0x5EEBC, offset: 0x16B77F, size: 0x8, addend: 0x0, symName: __Z24llama_grammar_apply_implRK13llama_grammarP22llama_token_data_array, symObjAddr: 0x7CC4, symBinAddr: 0x2C550, symSize: 0x508 }
  - { offsetInCU: 0x604EC, offset: 0x16CDAF, size: 0x8, addend: 0x0, symName: __ZNSt3__16vectorINS_4pairINS0_IjNS_9allocatorIjEEEE18llama_partial_utf8EENS2_IS6_EEE7reserveEm, symObjAddr: 0x81CC, symBinAddr: 0x2CA58, symSize: 0x100 }
  - { offsetInCU: 0x60A76, offset: 0x16D339, size: 0x8, addend: 0x0, symName: __ZL11decode_utf8RKNSt3__112basic_stringIcNS_11char_traitsIcEENS_9allocatorIcEEEE18llama_partial_utf8, symObjAddr: 0x82CC, symBinAddr: 0x2CB58, symSize: 0x968 }
  - { offsetInCU: 0x60A88, offset: 0x16D34B, size: 0x8, addend: 0x0, symName: __ZNSt3__16vectorINS_4pairINS0_IjNS_9allocatorIjEEEE18llama_partial_utf8EENS2_IS6_EEE21__push_back_slow_pathIS6_EEvOT_, symObjAddr: 0x14800, symBinAddr: 0x38D78, symSize: 0x15C }
  - { offsetInCU: 0x6113A, offset: 0x16D9FD, size: 0x8, addend: 0x0, symName: __ZNKSt3__111basic_regexIcNS_12regex_traitsIcEEE8__searchINS_9allocatorINS_9sub_matchIPKcEEEEEEbS8_S8_RNS_13match_resultsIS8_T_EENS_15regex_constants15match_flag_typeE, symObjAddr: 0x1495C, symBinAddr: 0x38ED4, symSize: 0x274 }
  - { offsetInCU: 0x6114F, offset: 0x16DA12, size: 0x8, addend: 0x0, symName: __ZNSt3__16vectorINS_4pairINS0_IjNS_9allocatorIjEEEE18llama_partial_utf8EENS2_IS6_EEED1B8ue170006Ev, symObjAddr: 0x8C34, symBinAddr: 0x2D4C0, symSize: 0x74 }
  - { offsetInCU: 0x615E8, offset: 0x16DEAB, size: 0x8, addend: 0x0, symName: __ZNKSt3__16vectorINS_4pairINS0_IjNS_9allocatorIjEEEE18llama_partial_utf8EENS2_IS6_EEE20__throw_length_errorB8ue170006Ev, symObjAddr: 0x147EC, symBinAddr: 0x38D64, symSize: 0x14 }
  - { offsetInCU: 0x61611, offset: 0x16DED4, size: 0x8, addend: 0x0, symName: __ZNSt3__16vectorINS_4pairINS0_IjNS_9allocatorIjEEEE18llama_partial_utf8EENS2_IS6_EEE21__push_back_slow_pathIS6_EEvOT_, symObjAddr: 0x14800, symBinAddr: 0x38D78, symSize: 0x15C }
  - { offsetInCU: 0x61BCA, offset: 0x16E48D, size: 0x8, addend: 0x0, symName: __ZNKSt3__16vectorIjNS_9allocatorIjEEE20__throw_length_errorB8ue170006Ev, symObjAddr: 0xA058, symBinAddr: 0x2E7D4, symSize: 0x14 }
  - { offsetInCU: 0x622D0, offset: 0x16EB93, size: 0x8, addend: 0x0, symName: __Z25llama_grammar_accept_implR13llama_grammari, symObjAddr: 0x8CA8, symBinAddr: 0x2D534, symSize: 0x4AC }
  - { offsetInCU: 0x63B18, offset: 0x1703DB, size: 0x8, addend: 0x0, symName: __ZNKSt3__111basic_regexIcNS_12regex_traitsIcEEE8__searchINS_9allocatorINS_9sub_matchIPKcEEEEEEbS8_S8_RNS_13match_resultsIS8_T_EENS_15regex_constants15match_flag_typeE, symObjAddr: 0x1495C, symBinAddr: 0x38ED4, symSize: 0x274 }
  - { offsetInCU: 0x63F2D, offset: 0x1707F0, size: 0x8, addend: 0x0, symName: __ZNSt3__113match_resultsINS_11__wrap_iterIPKcEENS_9allocatorINS_9sub_matchIS4_EEEEE8__assignB8ue170006IS3_NS5_INS6_IS3_EEEEEEvS4_S4_RKNS0_IT_T0_EEb, symObjAddr: 0x14BD0, symBinAddr: 0x39148, symSize: 0x1BC }
  - { offsetInCU: 0x646C1, offset: 0x170F84, size: 0x8, addend: 0x0, symName: __Z24llama_grammar_accept_strR13llama_grammarRKNSt3__112basic_stringIcNS1_11char_traitsIcEENS1_9allocatorIcEEEE, symObjAddr: 0x9154, symBinAddr: 0x2D9E0, symSize: 0x140 }
  - { offsetInCU: 0x64C3E, offset: 0x171501, size: 0x8, addend: 0x0, symName: __ZNSt3__14pairINS_12basic_stringIcNS_11char_traitsIcEENS_9allocatorIcEEEES6_ED1Ev, symObjAddr: 0xFED0, symBinAddr: 0x34448, symSize: 0x58 }
  - { offsetInCU: 0x65348, offset: 0x171C0B, size: 0x8, addend: 0x0, symName: __ZNSt3__114__split_bufferINS_6vectorIPK21llama_grammar_elementNS_9allocatorIS4_EEEERNS5_IS7_EEED1Ev, symObjAddr: 0x9D74, symBinAddr: 0x2E4F0, symSize: 0x6C }
  - { offsetInCU: 0x655E9, offset: 0x171EAC, size: 0x8, addend: 0x0, symName: __ZNSt3__110shared_ptrINS_13__empty_stateIcEEED1B8ue170006Ev, symObjAddr: 0x9DF4, symBinAddr: 0x2E570, symSize: 0x60 }
  - { offsetInCU: 0x663C2, offset: 0x172C85, size: 0x8, addend: 0x0, symName: __ZNKSt3__16vectorI29llama_grammar_trigger_patternNS_9allocatorIS1_EEE20__throw_length_errorB8ue170006Ev, symObjAddr: 0xACF0, symBinAddr: 0x2F27C, symSize: 0x14 }
  - { offsetInCU: 0x663EB, offset: 0x172CAE, size: 0x8, addend: 0x0, symName: __ZNSt3__111basic_regexIcNS_12regex_traitsIcEEEC2B8ue170006INS_11char_traitsIcEENS_9allocatorIcEEEERKNS_12basic_stringIcT_T0_EENS_15regex_constants18syntax_option_typeE, symObjAddr: 0xAD04, symBinAddr: 0x2F290, symSize: 0xCC }
  - { offsetInCU: 0x663F7, offset: 0x172CBA, size: 0x8, addend: 0x0, symName: __ZNSt3__114__split_bufferI29llama_grammar_trigger_patternRNS_9allocatorIS1_EEED1Ev, symObjAddr: 0xAC2C, symBinAddr: 0x2F1B8, symSize: 0xC4 }
  - { offsetInCU: 0x667B7, offset: 0x17307A, size: 0x8, addend: 0x0, symName: __ZNSt3__111basic_regexIcNS_12regex_traitsIcEEEC1B8ue170006Ev, symObjAddr: 0xABC0, symBinAddr: 0x2F14C, symSize: 0x6C }
  - { offsetInCU: 0x668BA, offset: 0x17317D, size: 0x8, addend: 0x0, symName: __ZNSt3__111basic_regexIcNS_12regex_traitsIcEEE7__parseINS_11__wrap_iterIPKcEEEET_S9_S9_, symObjAddr: 0xADD0, symBinAddr: 0x2F35C, symSize: 0x1F0 }
  - { offsetInCU: 0x673B4, offset: 0x173C77, size: 0x8, addend: 0x0, symName: __ZNSt3__111basic_regexIcNS_12regex_traitsIcEEE13__parse_egrepINS_11__wrap_iterIPKcEEEET_S9_S9_, symObjAddr: 0xB710, symBinAddr: 0x2FC9C, symSize: 0x1B8 }
  - { offsetInCU: 0x67908, offset: 0x1741CB, size: 0x8, addend: 0x0, symName: __ZNSt3__111basic_regexIcNS_12regex_traitsIcEEE24__parse_extended_reg_expINS_11__wrap_iterIPKcEEEET_S9_S9_, symObjAddr: 0xB3F0, symBinAddr: 0x2F97C, symSize: 0x168 }
  - { offsetInCU: 0x67C41, offset: 0x174504, size: 0x8, addend: 0x0, symName: __ZNSt3__111basic_regexIcNS_12regex_traitsIcEEE12__parse_grepINS_11__wrap_iterIPKcEEEET_S9_S9_, symObjAddr: 0xB558, symBinAddr: 0x2FAE4, symSize: 0x1B8 }
  - { offsetInCU: 0x67C56, offset: 0x174519, size: 0x8, addend: 0x0, symName: __ZNSt3__111basic_regexIcNS_12regex_traitsIcEEE16__parse_ecma_expINS_11__wrap_iterIPKcEEEET_S9_S9_, symObjAddr: 0xB00C, symBinAddr: 0x2F598, symSize: 0x26C }
  - { offsetInCU: 0x681E9, offset: 0x174AAC, size: 0x8, addend: 0x0, symName: __ZNSt3__111basic_regexIcNS_12regex_traitsIcEEE21__parse_basic_reg_expINS_11__wrap_iterIPKcEEEET_S9_S9_, symObjAddr: 0xB278, symBinAddr: 0x2F804, symSize: 0x178 }
  - { offsetInCU: 0x6857D, offset: 0x174E40, size: 0x8, addend: 0x0, symName: __ZNSt3__111basic_regexIcNS_12regex_traitsIcEEE24__parse_extended_reg_expINS_11__wrap_iterIPKcEEEET_S9_S9_, symObjAddr: 0xB3F0, symBinAddr: 0x2F97C, symSize: 0x168 }
  - { offsetInCU: 0x68592, offset: 0x174E55, size: 0x8, addend: 0x0, symName: __ZNSt3__111basic_regexIcNS_12regex_traitsIcEEE12__parse_grepINS_11__wrap_iterIPKcEEEET_S9_S9_, symObjAddr: 0xB558, symBinAddr: 0x2FAE4, symSize: 0x1B8 }
  - { offsetInCU: 0x68D1C, offset: 0x1755DF, size: 0x8, addend: 0x0, symName: __ZNSt3__111basic_regexIcNS_12regex_traitsIcEEE17__parse_assertionINS_11__wrap_iterIPKcEEEET_S9_S9_, symObjAddr: 0xBAFC, symBinAddr: 0x30088, symSize: 0x2F4 }
  - { offsetInCU: 0x6938A, offset: 0x175C4D, size: 0x8, addend: 0x0, symName: __ZNSt3__111basic_regexIcNS_12regex_traitsIcEEE12__parse_atomINS_11__wrap_iterIPKcEEEET_S9_S9_, symObjAddr: 0xBDF0, symBinAddr: 0x3037C, symSize: 0x268 }
  - { offsetInCU: 0x697C8, offset: 0x17608B, size: 0x8, addend: 0x0, symName: __ZNSt3__111basic_regexIcNS_12regex_traitsIcEEE23__parse_ERE_dupl_symbolINS_11__wrap_iterIPKcEEEET_S9_S9_PNS_16__owns_one_stateIcEEjj, symObjAddr: 0xC058, symBinAddr: 0x305E4, symSize: 0x3FC }
  - { offsetInCU: 0x697DD, offset: 0x1760A0, size: 0x8, addend: 0x0, symName: __ZNSt3__111basic_regexIcNS_12regex_traitsIcEEE23__parse_ERE_dupl_symbolINS_11__wrap_iterIPKcEEEET_S9_S9_PNS_16__owns_one_stateIcEEjj, symObjAddr: 0xC058, symBinAddr: 0x305E4, symSize: 0x3FC }
  - { offsetInCU: 0x69E2E, offset: 0x1766F1, size: 0x8, addend: 0x0, symName: __ZNSt3__111basic_regexIcNS_12regex_traitsIcEEE16__push_lookaheadERKS3_bj, symObjAddr: 0xC454, symBinAddr: 0x309E0, symSize: 0xB0 }
  - { offsetInCU: 0x6A04F, offset: 0x176912, size: 0x8, addend: 0x0, symName: __ZNSt3__111basic_regexIcNS_12regex_traitsIcEEE18__parse_nondupl_REINS_11__wrap_iterIPKcEEEET_S9_S9_, symObjAddr: 0x1358C, symBinAddr: 0x37B04, symSize: 0x1FC }
  - { offsetInCU: 0x6A5FE, offset: 0x176EC1, size: 0x8, addend: 0x0, symName: __ZNSt3__111basic_regexIcNS_12regex_traitsIcEEE22__parse_RE_dupl_symbolINS_11__wrap_iterIPKcEEEET_S9_S9_PNS_16__owns_one_stateIcEEjj, symObjAddr: 0x13788, symBinAddr: 0x37D00, symSize: 0x2BC }
  - { offsetInCU: 0x6A613, offset: 0x176ED6, size: 0x8, addend: 0x0, symName: __ZNSt3__111basic_regexIcNS_12regex_traitsIcEEE22__parse_RE_dupl_symbolINS_11__wrap_iterIPKcEEEET_S9_S9_PNS_16__owns_one_stateIcEEjj, symObjAddr: 0x13788, symBinAddr: 0x37D00, symSize: 0x2BC }
  - { offsetInCU: 0x6ABB7, offset: 0x17747A, size: 0x8, addend: 0x0, symName: __ZNSt3__111basic_regexIcNS_12regex_traitsIcEEE32__parse_one_char_or_coll_elem_REINS_11__wrap_iterIPKcEEEET_S9_S9_, symObjAddr: 0x13A44, symBinAddr: 0x37FBC, symSize: 0x15C }
  - { offsetInCU: 0x6AC11, offset: 0x1774D4, size: 0x8, addend: 0x0, symName: __ZNSt3__111basic_regexIcNS_12regex_traitsIcEEE22__parse_ERE_expressionINS_11__wrap_iterIPKcEEEET_S9_S9_, symObjAddr: 0x13CC8, symBinAddr: 0x38240, symSize: 0x288 }
  - { offsetInCU: 0x6B0FB, offset: 0x1779BE, size: 0x8, addend: 0x0, symName: __ZNSt3__111basic_regexIcNS_12regex_traitsIcEEE20__parse_ORD_CHAR_EREINS_11__wrap_iterIPKcEEEET_S9_S9_, symObjAddr: 0x13F50, symBinAddr: 0x384C8, symSize: 0x78 }
  - { offsetInCU: 0x6B110, offset: 0x1779D3, size: 0x8, addend: 0x0, symName: __ZNSt3__111__end_stateIcED1Ev, symObjAddr: 0xB914, symBinAddr: 0x2FEA0, symSize: 0x4 }
  - { offsetInCU: 0x6B13C, offset: 0x1779FF, size: 0x8, addend: 0x0, symName: __ZNSt3__111__end_stateIcED0Ev, symObjAddr: 0xB918, symBinAddr: 0x2FEA4, symSize: 0x4 }
  - { offsetInCU: 0x6B15C, offset: 0x177A1F, size: 0x8, addend: 0x0, symName: __ZNKSt3__111__end_stateIcE6__execERNS_7__stateIcEE, symObjAddr: 0xB91C, symBinAddr: 0x2FEA8, symSize: 0xC }
  - { offsetInCU: 0x6B192, offset: 0x177A55, size: 0x8, addend: 0x0, symName: __ZNKSt3__16__nodeIcE12__exec_splitEbRNS_7__stateIcEE, symObjAddr: 0xB928, symBinAddr: 0x2FEB4, symSize: 0x4 }
  - { offsetInCU: 0x6B1D2, offset: 0x177A95, size: 0x8, addend: 0x0, symName: __ZNKSt3__16__nodeIcE6__execERNS_7__stateIcEE, symObjAddr: 0xB92C, symBinAddr: 0x2FEB8, symSize: 0x4 }
  - { offsetInCU: 0x6B21E, offset: 0x177AE1, size: 0x8, addend: 0x0, symName: __ZNSt3__120__shared_ptr_pointerIPNS_13__empty_stateIcEENS_10shared_ptrIS2_E27__shared_ptr_default_deleteIS2_S2_EENS_9allocatorIS2_EEED1Ev, symObjAddr: 0xB930, symBinAddr: 0x2FEBC, symSize: 0x4 }
  - { offsetInCU: 0x6B240, offset: 0x177B03, size: 0x8, addend: 0x0, symName: __ZNSt3__120__shared_ptr_pointerIPNS_13__empty_stateIcEENS_10shared_ptrIS2_E27__shared_ptr_default_deleteIS2_S2_EENS_9allocatorIS2_EEED1Ev, symObjAddr: 0xB930, symBinAddr: 0x2FEBC, symSize: 0x4 }
  - { offsetInCU: 0x6B277, offset: 0x177B3A, size: 0x8, addend: 0x0, symName: __ZNSt3__120__shared_ptr_pointerIPNS_13__empty_stateIcEENS_10shared_ptrIS2_E27__shared_ptr_default_deleteIS2_S2_EENS_9allocatorIS2_EEED0Ev, symObjAddr: 0xB934, symBinAddr: 0x2FEC0, symSize: 0x14 }
  - { offsetInCU: 0x6B2DC, offset: 0x177B9F, size: 0x8, addend: 0x0, symName: __ZNSt3__120__shared_ptr_pointerIPNS_13__empty_stateIcEENS_10shared_ptrIS2_E27__shared_ptr_default_deleteIS2_S2_EENS_9allocatorIS2_EEE16__on_zero_sharedEv, symObjAddr: 0xB948, symBinAddr: 0x2FED4, symSize: 0x18 }
  - { offsetInCU: 0x6B388, offset: 0x177C4B, size: 0x8, addend: 0x0, symName: __ZNKSt3__120__shared_ptr_pointerIPNS_13__empty_stateIcEENS_10shared_ptrIS2_E27__shared_ptr_default_deleteIS2_S2_EENS_9allocatorIS2_EEE13__get_deleterERKSt9type_info, symObjAddr: 0xB960, symBinAddr: 0x2FEEC, symSize: 0x74 }
  - { offsetInCU: 0x6B460, offset: 0x177D23, size: 0x8, addend: 0x0, symName: __ZNSt3__120__shared_ptr_pointerIPNS_13__empty_stateIcEENS_10shared_ptrIS2_E27__shared_ptr_default_deleteIS2_S2_EENS_9allocatorIS2_EEE21__on_zero_shared_weakEv, symObjAddr: 0xB9D4, symBinAddr: 0x2FF60, symSize: 0x4 }
  - { offsetInCU: 0x6B495, offset: 0x177D58, size: 0x8, addend: 0x0, symName: __ZNSt3__120__shared_ptr_pointerIPNS_13__empty_stateIcEENS_10shared_ptrIS2_E27__shared_ptr_default_deleteIS2_S2_EENS_9allocatorIS2_EEE21__on_zero_shared_weakEv, symObjAddr: 0xB9D4, symBinAddr: 0x2FF60, symSize: 0x4 }
  - { offsetInCU: 0x6B4B8, offset: 0x177D7B, size: 0x8, addend: 0x0, symName: __ZNSt3__120__shared_ptr_pointerIPNS_13__empty_stateIcEENS_10shared_ptrIS2_E27__shared_ptr_default_deleteIS2_S2_EENS_9allocatorIS2_EEE21__on_zero_shared_weakEv, symObjAddr: 0xB9D4, symBinAddr: 0x2FF60, symSize: 0x4 }
  - { offsetInCU: 0x6B4E5, offset: 0x177DA8, size: 0x8, addend: 0x0, symName: __ZNSt3__120__shared_ptr_pointerIPNS_13__empty_stateIcEENS_10shared_ptrIS2_E27__shared_ptr_default_deleteIS2_S2_EENS_9allocatorIS2_EEE21__on_zero_shared_weakEv, symObjAddr: 0xB9D4, symBinAddr: 0x2FF60, symSize: 0x4 }
  - { offsetInCU: 0x6B50B, offset: 0x177DCE, size: 0x8, addend: 0x0, symName: __ZNSt3__120__shared_ptr_pointerIPNS_13__empty_stateIcEENS_10shared_ptrIS2_E27__shared_ptr_default_deleteIS2_S2_EENS_9allocatorIS2_EEE21__on_zero_shared_weakEv, symObjAddr: 0xB9D4, symBinAddr: 0x2FF60, symSize: 0x4 }
  - { offsetInCU: 0x6B535, offset: 0x177DF8, size: 0x8, addend: 0x0, symName: __ZNSt3__113__empty_stateIcED1Ev, symObjAddr: 0xB9D8, symBinAddr: 0x2FF64, symSize: 0x44 }
  - { offsetInCU: 0x6B59D, offset: 0x177E60, size: 0x8, addend: 0x0, symName: __ZNSt3__113__empty_stateIcED0Ev, symObjAddr: 0xBA1C, symBinAddr: 0x2FFA8, symSize: 0x44 }
  - { offsetInCU: 0x6B63D, offset: 0x177F00, size: 0x8, addend: 0x0, symName: __ZNKSt3__113__empty_stateIcE6__execERNS_7__stateIcEE, symObjAddr: 0xBA60, symBinAddr: 0x2FFEC, symSize: 0x14 }
  - { offsetInCU: 0x6B690, offset: 0x177F53, size: 0x8, addend: 0x0, symName: __ZNSt3__116__owns_one_stateIcED1Ev, symObjAddr: 0xBA74, symBinAddr: 0x30000, symSize: 0x44 }
  - { offsetInCU: 0x6B6F7, offset: 0x177FBA, size: 0x8, addend: 0x0, symName: __ZNSt3__116__owns_one_stateIcED0Ev, symObjAddr: 0xBAB8, symBinAddr: 0x30044, symSize: 0x44 }
  - { offsetInCU: 0x6B867, offset: 0x17812A, size: 0x8, addend: 0x0, symName: __ZNSt3__111basic_regexIcNS_12regex_traitsIcEEE16__push_lookaheadERKS3_bj, symObjAddr: 0xC454, symBinAddr: 0x309E0, symSize: 0xB0 }
  - { offsetInCU: 0x6BC50, offset: 0x178513, size: 0x8, addend: 0x0, symName: __ZNSt3__111basic_regexIcNS_12regex_traitsIcEEE26__parse_bracket_expressionINS_11__wrap_iterIPKcEEEET_S9_S9_, symObjAddr: 0xDAE4, symBinAddr: 0x32070, symSize: 0x150 }
  - { offsetInCU: 0x6BE7E, offset: 0x178741, size: 0x8, addend: 0x0, symName: __ZNSt3__111basic_regexIcNS_12regex_traitsIcEEE19__parse_atom_escapeINS_11__wrap_iterIPKcEEEET_S9_S9_, symObjAddr: 0xD980, symBinAddr: 0x31F0C, symSize: 0x164 }
  - { offsetInCU: 0x6C05A, offset: 0x17891D, size: 0x8, addend: 0x0, symName: __ZNSt3__111basic_regexIcNS_12regex_traitsIcEEE26__parse_bracket_expressionINS_11__wrap_iterIPKcEEEET_S9_S9_, symObjAddr: 0xDAE4, symBinAddr: 0x32070, symSize: 0x150 }
  - { offsetInCU: 0x6C06F, offset: 0x178932, size: 0x8, addend: 0x0, symName: __ZNSt3__111basic_regexIcNS_12regex_traitsIcEEE25__parse_pattern_characterINS_11__wrap_iterIPKcEEEET_S9_S9_, symObjAddr: 0xDC80, symBinAddr: 0x3220C, symSize: 0x70 }
  - { offsetInCU: 0x6C246, offset: 0x178B09, size: 0x8, addend: 0x0, symName: __ZNSt3__111basic_regexIcNS_12regex_traitsIcEEE11__push_loopEmmPNS_16__owns_one_stateIcEEmmb, symObjAddr: 0x12DBC, symBinAddr: 0x37334, symSize: 0x138 }
  - { offsetInCU: 0x6C7E2, offset: 0x1790A5, size: 0x8, addend: 0x0, symName: __ZNSt3__120__l_anchor_multilineIcED1Ev, symObjAddr: 0xC550, symBinAddr: 0x30ADC, symSize: 0x44 }
  - { offsetInCU: 0x6C867, offset: 0x17912A, size: 0x8, addend: 0x0, symName: __ZNSt3__120__l_anchor_multilineIcED0Ev, symObjAddr: 0xC594, symBinAddr: 0x30B20, symSize: 0x44 }
  - { offsetInCU: 0x6C8F8, offset: 0x1791BB, size: 0x8, addend: 0x0, symName: __ZNKSt3__120__l_anchor_multilineIcE6__execERNS_7__stateIcEE, symObjAddr: 0xC5D8, symBinAddr: 0x30B64, symSize: 0x60 }
  - { offsetInCU: 0x6C94B, offset: 0x17920E, size: 0x8, addend: 0x0, symName: __ZNSt3__120__r_anchor_multilineIcED1Ev, symObjAddr: 0xC638, symBinAddr: 0x30BC4, symSize: 0x44 }
  - { offsetInCU: 0x6C9D0, offset: 0x179293, size: 0x8, addend: 0x0, symName: __ZNSt3__120__r_anchor_multilineIcED0Ev, symObjAddr: 0xC67C, symBinAddr: 0x30C08, symSize: 0x44 }
  - { offsetInCU: 0x6CA61, offset: 0x179324, size: 0x8, addend: 0x0, symName: __ZNKSt3__120__r_anchor_multilineIcE6__execERNS_7__stateIcEE, symObjAddr: 0xC6C0, symBinAddr: 0x30C4C, symSize: 0x50 }
  - { offsetInCU: 0x6CAB4, offset: 0x179377, size: 0x8, addend: 0x0, symName: __ZNSt3__115__word_boundaryIcNS_12regex_traitsIcEEED1Ev, symObjAddr: 0xC710, symBinAddr: 0x30C9C, symSize: 0x58 }
  - { offsetInCU: 0x6CB73, offset: 0x179436, size: 0x8, addend: 0x0, symName: __ZNSt3__115__word_boundaryIcNS_12regex_traitsIcEEED0Ev, symObjAddr: 0xC768, symBinAddr: 0x30CF4, symSize: 0x58 }
  - { offsetInCU: 0x6CC9C, offset: 0x17955F, size: 0x8, addend: 0x0, symName: __ZNKSt3__115__word_boundaryIcNS_12regex_traitsIcEEE6__execERNS_7__stateIcEE, symObjAddr: 0xC7C0, symBinAddr: 0x30D4C, symSize: 0x150 }
  - { offsetInCU: 0x6CE15, offset: 0x1796D8, size: 0x8, addend: 0x0, symName: __ZNSt3__111__lookaheadIcNS_12regex_traitsIcEEED1Ev, symObjAddr: 0xC910, symBinAddr: 0x30E9C, symSize: 0x98 }
  - { offsetInCU: 0x6CFB6, offset: 0x179879, size: 0x8, addend: 0x0, symName: __ZNSt3__111__lookaheadIcNS_12regex_traitsIcEEED0Ev, symObjAddr: 0xC9A8, symBinAddr: 0x30F34, symSize: 0x98 }
  - { offsetInCU: 0x6D22A, offset: 0x179AED, size: 0x8, addend: 0x0, symName: __ZNKSt3__111__lookaheadIcNS_12regex_traitsIcEEE6__execERNS_7__stateIcEE, symObjAddr: 0xCA40, symBinAddr: 0x30FCC, symSize: 0x18C }
  - { offsetInCU: 0x6D79F, offset: 0x17A062, size: 0x8, addend: 0x0, symName: __ZNSt3__16vectorINS_9sub_matchIPKcEENS_9allocatorIS4_EEE6assignEmRKS4_, symObjAddr: 0xD028, symBinAddr: 0x315B4, symSize: 0x19C }
  - { offsetInCU: 0x6DD5C, offset: 0x17A61F, size: 0x8, addend: 0x0, symName: __ZNKSt3__16vectorINS_9sub_matchIPKcEENS_9allocatorIS4_EEE20__throw_length_errorB8ue170006Ev, symObjAddr: 0xD1C4, symBinAddr: 0x31750, symSize: 0x14 }
  - { offsetInCU: 0x6DD6E, offset: 0x17A631, size: 0x8, addend: 0x0, symName: __ZNKSt3__111basic_regexIcNS_12regex_traitsIcEEE21__match_at_start_ecmaINS_9allocatorINS_9sub_matchIPKcEEEEEEbS8_S8_RNS_13match_resultsIS8_T_EENS_15regex_constants15match_flag_typeEb, symObjAddr: 0xCBCC, symBinAddr: 0x31158, symSize: 0x45C }
  - { offsetInCU: 0x6F526, offset: 0x17BDE9, size: 0x8, addend: 0x0, symName: __ZNSt3__16vectorINS_7__stateIcEENS_9allocatorIS2_EEE21__push_back_slow_pathIS2_EEvOT_, symObjAddr: 0xD334, symBinAddr: 0x318C0, symSize: 0x1E4 }
  - { offsetInCU: 0x6FE0A, offset: 0x17C6CD, size: 0x8, addend: 0x0, symName: __ZNKSt3__16vectorINS_7__stateIcEENS_9allocatorIS2_EEE20__throw_length_errorB8ue170006Ev, symObjAddr: 0xD518, symBinAddr: 0x31AA4, symSize: 0x14 }
  - { offsetInCU: 0x6FE1F, offset: 0x17C6E2, size: 0x8, addend: 0x0, symName: __ZNSt3__16vectorINS_9sub_matchIPKcEENS_9allocatorIS4_EEE8__appendEmRKS4_, symObjAddr: 0xD52C, symBinAddr: 0x31AB8, symSize: 0x198 }
  - { offsetInCU: 0x7039B, offset: 0x17CC5E, size: 0x8, addend: 0x0, symName: __ZNSt3__16vectorINS_4pairImPKcEENS_9allocatorIS4_EEE8__appendEm, symObjAddr: 0xD6C4, symBinAddr: 0x31C50, symSize: 0x128 }
  - { offsetInCU: 0x703A7, offset: 0x17CC6A, size: 0x8, addend: 0x0, symName: __ZNSt3__16vectorINS_4pairImPKcEENS_9allocatorIS4_EEE8__appendEm, symObjAddr: 0xD6C4, symBinAddr: 0x31C50, symSize: 0x128 }
  - { offsetInCU: 0x708CB, offset: 0x17D18E, size: 0x8, addend: 0x0, symName: __ZNKSt3__16vectorINS_4pairImPKcEENS_9allocatorIS4_EEE20__throw_length_errorB8ue170006Ev, symObjAddr: 0xD7EC, symBinAddr: 0x31D78, symSize: 0x14 }
  - { offsetInCU: 0x708D7, offset: 0x17D19A, size: 0x8, addend: 0x0, symName: __ZNSt3__17__stateIcEC2ERKS1_, symObjAddr: 0xD800, symBinAddr: 0x31D8C, symSize: 0x180 }
  - { offsetInCU: 0x70F64, offset: 0x17D827, size: 0x8, addend: 0x0, symName: __ZNSt3__17__stateIcED1Ev, symObjAddr: 0xD1D8, symBinAddr: 0x31764, symSize: 0x40 }
  - { offsetInCU: 0x71229, offset: 0x17DAEC, size: 0x8, addend: 0x0, symName: __ZNSt3__16vectorINS_7__stateIcEENS_9allocatorIS2_EEED1B8ue170006Ev, symObjAddr: 0xD2B0, symBinAddr: 0x3183C, symSize: 0x84 }
  - { offsetInCU: 0x718FB, offset: 0x17E1BE, size: 0x8, addend: 0x0, symName: __ZNKSt3__16vectorINS_9sub_matchIPKcEENS_9allocatorIS4_EEE20__throw_length_errorB8ue170006Ev, symObjAddr: 0xD1C4, symBinAddr: 0x31750, symSize: 0x14 }
  - { offsetInCU: 0x71924, offset: 0x17E1E7, size: 0x8, addend: 0x0, symName: __ZNSt3__17__stateIcED1Ev, symObjAddr: 0xD1D8, symBinAddr: 0x31764, symSize: 0x40 }
  - { offsetInCU: 0x71B5D, offset: 0x17E420, size: 0x8, addend: 0x0, symName: __ZNKSt3__16vectorINS_7__stateIcEENS_9allocatorIS2_EEE20__throw_length_errorB8ue170006Ev, symObjAddr: 0xD518, symBinAddr: 0x31AA4, symSize: 0x14 }
  - { offsetInCU: 0x71B86, offset: 0x17E449, size: 0x8, addend: 0x0, symName: __ZNSt3__16vectorINS_9sub_matchIPKcEENS_9allocatorIS4_EEE8__appendEmRKS4_, symObjAddr: 0xD52C, symBinAddr: 0x31AB8, symSize: 0x198 }
  - { offsetInCU: 0x721BB, offset: 0x17EA7E, size: 0x8, addend: 0x0, symName: __ZNKSt3__16vectorINS_4pairImPKcEENS_9allocatorIS4_EEE20__throw_length_errorB8ue170006Ev, symObjAddr: 0xD7EC, symBinAddr: 0x31D78, symSize: 0x14 }
  - { offsetInCU: 0x721E4, offset: 0x17EAA7, size: 0x8, addend: 0x0, symName: __ZNSt3__17__stateIcEC2ERKS1_, symObjAddr: 0xD800, symBinAddr: 0x31D8C, symSize: 0x180 }
  - { offsetInCU: 0x72612, offset: 0x17EED5, size: 0x8, addend: 0x0, symName: __ZNSt3__111basic_regexIcNS_12regex_traitsIcEEE11__push_charEc, symObjAddr: 0xE378, symBinAddr: 0x32904, symSize: 0x144 }
  - { offsetInCU: 0x729A8, offset: 0x17F26B, size: 0x8, addend: 0x0, symName: __ZNSt3__111basic_regexIcNS_12regex_traitsIcEEE15__push_back_refEi, symObjAddr: 0xE508, symBinAddr: 0x32A94, symSize: 0xCC }
  - { offsetInCU: 0x72B5C, offset: 0x17F41F, size: 0x8, addend: 0x0, symName: __ZNSt3__111basic_regexIcNS_12regex_traitsIcEEE30__parse_character_class_escapeINS_11__wrap_iterIPKcEEEET_S9_S9_, symObjAddr: 0xDDC4, symBinAddr: 0x32350, symSize: 0x1F8 }
  - { offsetInCU: 0x72FA2, offset: 0x17F865, size: 0x8, addend: 0x0, symName: __ZNSt3__111basic_regexIcNS_12regex_traitsIcEEE24__parse_character_escapeINS_11__wrap_iterIPKcEEEET_S9_S9_PNS_12basic_stringIcNS_11char_traitsIcEENS_9allocatorIcEEEE, symObjAddr: 0xDFBC, symBinAddr: 0x32548, symSize: 0x3BC }
  - { offsetInCU: 0x7347B, offset: 0x17FD3E, size: 0x8, addend: 0x0, symName: __ZNSt3__111basic_regexIcNS_12regex_traitsIcEEE11__push_charEc, symObjAddr: 0xE378, symBinAddr: 0x32904, symSize: 0x144 }
  - { offsetInCU: 0x73569, offset: 0x17FE2C, size: 0x8, addend: 0x0, symName: __ZNSt3__120__bracket_expressionIcNS_12regex_traitsIcEEEC2B8ue170006ERKS2_PNS_6__nodeIcEEbbb, symObjAddr: 0xF1B0, symBinAddr: 0x3373C, symSize: 0x1B0 }
  - { offsetInCU: 0x73CC6, offset: 0x180589, size: 0x8, addend: 0x0, symName: __ZNSt3__120__bracket_expressionIcNS_12regex_traitsIcEEE10__add_charB8ue170006Ec, symObjAddr: 0xED14, symBinAddr: 0x332A0, symSize: 0x49C }
  - { offsetInCU: 0x74458, offset: 0x180D1B, size: 0x8, addend: 0x0, symName: __ZNSt3__120__bracket_expressionIcNS_12regex_traitsIcEEEC2B8ue170006ERKS2_PNS_6__nodeIcEEbbb, symObjAddr: 0xF1B0, symBinAddr: 0x3373C, symSize: 0x1B0 }
  - { offsetInCU: 0x7446A, offset: 0x180D2D, size: 0x8, addend: 0x0, symName: __ZNSt3__111basic_regexIcNS_12regex_traitsIcEEE23__parse_expression_termINS_11__wrap_iterIPKcEEEET_S9_S9_PNS_20__bracket_expressionIcS2_EE, symObjAddr: 0x105AC, symBinAddr: 0x34B24, symSize: 0x44C }
  - { offsetInCU: 0x752D3, offset: 0x181B96, size: 0x8, addend: 0x0, symName: __ZNSt3__123__match_any_but_newlineIcED1Ev, symObjAddr: 0xDCF0, symBinAddr: 0x3227C, symSize: 0x44 }
  - { offsetInCU: 0x75358, offset: 0x181C1B, size: 0x8, addend: 0x0, symName: __ZNSt3__123__match_any_but_newlineIcED0Ev, symObjAddr: 0xDD34, symBinAddr: 0x322C0, symSize: 0x44 }
  - { offsetInCU: 0x757CE, offset: 0x182091, size: 0x8, addend: 0x0, symName: __ZNSt3__118__match_char_icaseIcNS_12regex_traitsIcEEED1Ev, symObjAddr: 0xE5D4, symBinAddr: 0x32B60, symSize: 0x58 }
  - { offsetInCU: 0x7588D, offset: 0x182150, size: 0x8, addend: 0x0, symName: __ZNSt3__118__match_char_icaseIcNS_12regex_traitsIcEEED0Ev, symObjAddr: 0xE62C, symBinAddr: 0x32BB8, symSize: 0x58 }
  - { offsetInCU: 0x75958, offset: 0x18221B, size: 0x8, addend: 0x0, symName: __ZNKSt3__118__match_char_icaseIcNS_12regex_traitsIcEEE6__execERNS_7__stateIcEE, symObjAddr: 0xE684, symBinAddr: 0x32C10, symSize: 0x84 }
  - { offsetInCU: 0x75A13, offset: 0x1822D6, size: 0x8, addend: 0x0, symName: __ZNSt3__120__match_char_collateIcNS_12regex_traitsIcEEED1Ev, symObjAddr: 0xE708, symBinAddr: 0x32C94, symSize: 0x58 }
  - { offsetInCU: 0x75AD2, offset: 0x182395, size: 0x8, addend: 0x0, symName: __ZNSt3__120__match_char_collateIcNS_12regex_traitsIcEEED0Ev, symObjAddr: 0xE760, symBinAddr: 0x32CEC, symSize: 0x58 }
  - { offsetInCU: 0x75B9D, offset: 0x182460, size: 0x8, addend: 0x0, symName: __ZNKSt3__120__match_char_collateIcNS_12regex_traitsIcEEE6__execERNS_7__stateIcEE, symObjAddr: 0xE7B8, symBinAddr: 0x32D44, symSize: 0x48 }
  - { offsetInCU: 0x75C0D, offset: 0x1824D0, size: 0x8, addend: 0x0, symName: __ZNSt3__112__match_charIcED1Ev, symObjAddr: 0xE800, symBinAddr: 0x32D8C, symSize: 0x44 }
  - { offsetInCU: 0x75C92, offset: 0x182555, size: 0x8, addend: 0x0, symName: __ZNSt3__112__match_charIcED0Ev, symObjAddr: 0xE844, symBinAddr: 0x32DD0, symSize: 0x44 }
  - { offsetInCU: 0x75D23, offset: 0x1825E6, size: 0x8, addend: 0x0, symName: __ZNKSt3__112__match_charIcE6__execERNS_7__stateIcEE, symObjAddr: 0xE888, symBinAddr: 0x32E14, symSize: 0x48 }
  - { offsetInCU: 0x75D93, offset: 0x182656, size: 0x8, addend: 0x0, symName: __ZNSt3__116__back_ref_icaseIcNS_12regex_traitsIcEEED1Ev, symObjAddr: 0xE8D0, symBinAddr: 0x32E5C, symSize: 0x58 }
  - { offsetInCU: 0x75E52, offset: 0x182715, size: 0x8, addend: 0x0, symName: __ZNSt3__116__back_ref_icaseIcNS_12regex_traitsIcEEED0Ev, symObjAddr: 0xE928, symBinAddr: 0x32EB4, symSize: 0x58 }
  - { offsetInCU: 0x75F1D, offset: 0x1827E0, size: 0x8, addend: 0x0, symName: __ZNKSt3__116__back_ref_icaseIcNS_12regex_traitsIcEEE6__execERNS_7__stateIcEE, symObjAddr: 0xE980, symBinAddr: 0x32F0C, symSize: 0xF8 }
  - { offsetInCU: 0x76089, offset: 0x18294C, size: 0x8, addend: 0x0, symName: __ZNSt3__118__back_ref_collateIcNS_12regex_traitsIcEEED1Ev, symObjAddr: 0xEA78, symBinAddr: 0x33004, symSize: 0x58 }
  - { offsetInCU: 0x76148, offset: 0x182A0B, size: 0x8, addend: 0x0, symName: __ZNSt3__118__back_ref_collateIcNS_12regex_traitsIcEEED0Ev, symObjAddr: 0xEAD0, symBinAddr: 0x3305C, symSize: 0x58 }
  - { offsetInCU: 0x76213, offset: 0x182AD6, size: 0x8, addend: 0x0, symName: __ZNKSt3__118__back_ref_collateIcNS_12regex_traitsIcEEE6__execERNS_7__stateIcEE, symObjAddr: 0xEB28, symBinAddr: 0x330B4, symSize: 0x98 }
  - { offsetInCU: 0x762EB, offset: 0x182BAE, size: 0x8, addend: 0x0, symName: __ZNSt3__110__back_refIcED1Ev, symObjAddr: 0xEBC0, symBinAddr: 0x3314C, symSize: 0x44 }
  - { offsetInCU: 0x76370, offset: 0x182C33, size: 0x8, addend: 0x0, symName: __ZNSt3__110__back_refIcED0Ev, symObjAddr: 0xEC04, symBinAddr: 0x33190, symSize: 0x44 }
  - { offsetInCU: 0x76401, offset: 0x182CC4, size: 0x8, addend: 0x0, symName: __ZNKSt3__110__back_refIcE6__execERNS_7__stateIcEE, symObjAddr: 0xEC48, symBinAddr: 0x331D4, symSize: 0xCC }
  - { offsetInCU: 0x76565, offset: 0x182E28, size: 0x8, addend: 0x0, symName: __ZNSt3__120__bracket_expressionIcNS_12regex_traitsIcEEE10__add_charB8ue170006Ec, symObjAddr: 0xED14, symBinAddr: 0x332A0, symSize: 0x49C }
  - { offsetInCU: 0x768DD, offset: 0x1831A0, size: 0x8, addend: 0x0, symName: __ZNKSt3__16vectorIcNS_9allocatorIcEEE20__throw_length_errorB8ue170006Ev, symObjAddr: 0x1054C, symBinAddr: 0x34AC4, symSize: 0x14 }
  - { offsetInCU: 0x76906, offset: 0x1831C9, size: 0x8, addend: 0x0, symName: __ZNSt3__119__throw_regex_errorB8ue170006ILNS_15regex_constants10error_typeE5EEEvv, symObjAddr: 0x10560, symBinAddr: 0x34AD8, symSize: 0x4C }
  - { offsetInCU: 0x76B50, offset: 0x183413, size: 0x8, addend: 0x0, symName: __ZNSt3__16vectorINS_12basic_stringIcNS_11char_traitsIcEENS_9allocatorIcEEEENS4_IS6_EEED1B8ue170006Ev, symObjAddr: 0xF360, symBinAddr: 0x338EC, symSize: 0x74 }
  - { offsetInCU: 0x76E05, offset: 0x1836C8, size: 0x8, addend: 0x0, symName: __ZNSt3__16vectorINS_4pairINS_12basic_stringIcNS_11char_traitsIcEENS_9allocatorIcEEEES7_EENS5_IS8_EEED1B8ue170006Ev, symObjAddr: 0xF3D4, symBinAddr: 0x33960, symSize: 0x94 }
  - { offsetInCU: 0x7743E, offset: 0x183D01, size: 0x8, addend: 0x0, symName: __ZNSt3__120__bracket_expressionIcNS_12regex_traitsIcEEED1Ev, symObjAddr: 0xF468, symBinAddr: 0x339F4, symSize: 0x4 }
  - { offsetInCU: 0x77461, offset: 0x183D24, size: 0x8, addend: 0x0, symName: __ZNSt3__120__bracket_expressionIcNS_12regex_traitsIcEEED1Ev, symObjAddr: 0xF468, symBinAddr: 0x339F4, symSize: 0x4 }
  - { offsetInCU: 0x77474, offset: 0x183D37, size: 0x8, addend: 0x0, symName: __ZNSt3__120__bracket_expressionIcNS_12regex_traitsIcEEED2Ev, symObjAddr: 0xFF28, symBinAddr: 0x344A0, symSize: 0x14C }
  - { offsetInCU: 0x77F5B, offset: 0x18481E, size: 0x8, addend: 0x0, symName: __ZNSt3__120__bracket_expressionIcNS_12regex_traitsIcEEED0Ev, symObjAddr: 0xF46C, symBinAddr: 0x339F8, symSize: 0x14 }
  - { offsetInCU: 0x78383, offset: 0x184C46, size: 0x8, addend: 0x0, symName: __ZNKSt3__120__bracket_expressionIcNS_12regex_traitsIcEEE6__execERNS_7__stateIcEE, symObjAddr: 0xF480, symBinAddr: 0x33A0C, symSize: 0xA3C }
  - { offsetInCU: 0x79C99, offset: 0x18655C, size: 0x8, addend: 0x0, symName: __ZNKSt3__112regex_traitsIcE20__lookup_collatenameIPcEENS_12basic_stringIcNS_11char_traitsIcEENS_9allocatorIcEEEET_SA_c, symObjAddr: 0x10190, symBinAddr: 0x34708, symSize: 0x238 }
  - { offsetInCU: 0x7A78C, offset: 0x18704F, size: 0x8, addend: 0x0, symName: __ZNKSt3__112regex_traitsIcE9transformIPcEENS_12basic_stringIcNS_11char_traitsIcEENS_9allocatorIcEEEET_SA_, symObjAddr: 0x10074, symBinAddr: 0x345EC, symSize: 0x11C }
  - { offsetInCU: 0x7AD19, offset: 0x1875DC, size: 0x8, addend: 0x0, symName: __ZNKSt3__112regex_traitsIcE19__transform_primaryIPcEENS_12basic_stringIcNS_11char_traitsIcEENS_9allocatorIcEEEET_SA_c, symObjAddr: 0x103C8, symBinAddr: 0x34940, symSize: 0x184 }
  - { offsetInCU: 0x7B3FD, offset: 0x187CC0, size: 0x8, addend: 0x0, symName: __ZNSt3__14pairINS_12basic_stringIcNS_11char_traitsIcEENS_9allocatorIcEEEES6_ED1Ev, symObjAddr: 0xFED0, symBinAddr: 0x34448, symSize: 0x58 }
  - { offsetInCU: 0x7B724, offset: 0x187FE7, size: 0x8, addend: 0x0, symName: __ZNSt3__111basic_regexIcNS_12regex_traitsIcEEE25__parse_equivalence_classINS_11__wrap_iterIPKcEEEET_S9_S9_PNS_20__bracket_expressionIcS2_EE, symObjAddr: 0x109F8, symBinAddr: 0x34F70, symSize: 0x2B0 }
  - { offsetInCU: 0x7C605, offset: 0x188EC8, size: 0x8, addend: 0x0, symName: __ZNSt3__111basic_regexIcNS_12regex_traitsIcEEE18__parse_awk_escapeINS_11__wrap_iterIPKcEEEET_S9_S9_PNS_12basic_stringIcNS_11char_traitsIcEENS_9allocatorIcEEEE, symObjAddr: 0x10F84, symBinAddr: 0x354FC, symSize: 0x2EC }
  - { offsetInCU: 0x7C7E4, offset: 0x1890A7, size: 0x8, addend: 0x0, symName: __ZNSt3__120__bracket_expressionIcNS_12regex_traitsIcEEE11__add_rangeB8ue170006ENS_12basic_stringIcNS_11char_traitsIcEENS_9allocatorIcEEEES9_, symObjAddr: 0x11270, symBinAddr: 0x357E8, symSize: 0x450 }
  - { offsetInCU: 0x7C7F9, offset: 0x1890BC, size: 0x8, addend: 0x0, symName: __ZNSt3__111basic_regexIcNS_12regex_traitsIcEEE24__parse_collating_symbolINS_11__wrap_iterIPKcEEEET_S9_S9_RNS_12basic_stringIcNS_11char_traitsIcEENS_9allocatorIcEEEE, symObjAddr: 0x10D5C, symBinAddr: 0x352D4, symSize: 0xE8 }
  - { offsetInCU: 0x7CCB7, offset: 0x18957A, size: 0x8, addend: 0x0, symName: __ZNSt3__111basic_regexIcNS_12regex_traitsIcEEE20__parse_class_escapeINS_11__wrap_iterIPKcEEEET_S9_S9_RNS_12basic_stringIcNS_11char_traitsIcEENS_9allocatorIcEEEEPNS_20__bracket_expressionIcS2_EE, symObjAddr: 0x10E44, symBinAddr: 0x353BC, symSize: 0x140 }
  - { offsetInCU: 0x7CCCC, offset: 0x18958F, size: 0x8, addend: 0x0, symName: __ZNSt3__111basic_regexIcNS_12regex_traitsIcEEE20__parse_class_escapeINS_11__wrap_iterIPKcEEEET_S9_S9_RNS_12basic_stringIcNS_11char_traitsIcEENS_9allocatorIcEEEEPNS_20__bracket_expressionIcS2_EE, symObjAddr: 0x10E44, symBinAddr: 0x353BC, symSize: 0x140 }
  - { offsetInCU: 0x7CE7D, offset: 0x189740, size: 0x8, addend: 0x0, symName: __ZNSt3__111basic_regexIcNS_12regex_traitsIcEEE18__parse_awk_escapeINS_11__wrap_iterIPKcEEEET_S9_S9_PNS_12basic_stringIcNS_11char_traitsIcEENS_9allocatorIcEEEE, symObjAddr: 0x10F84, symBinAddr: 0x354FC, symSize: 0x2EC }
  - { offsetInCU: 0x7CE92, offset: 0x189755, size: 0x8, addend: 0x0, symName: __ZNSt3__120__bracket_expressionIcNS_12regex_traitsIcEEE13__add_digraphB8ue170006Ecc, symObjAddr: 0x116C0, symBinAddr: 0x35C38, symSize: 0x3F0 }
  - { offsetInCU: 0x7D6C8, offset: 0x189F8B, size: 0x8, addend: 0x0, symName: __ZNSt3__119__throw_regex_errorB8ue170006ILNS_15regex_constants10error_typeE1EEEvv, symObjAddr: 0x11AB0, symBinAddr: 0x36028, symSize: 0x4C }
  - { offsetInCU: 0x7D6D4, offset: 0x189F97, size: 0x8, addend: 0x0, symName: __ZNSt3__111basic_regexIcNS_12regex_traitsIcEEE23__parse_character_classINS_11__wrap_iterIPKcEEEET_S9_S9_PNS_20__bracket_expressionIcS2_EE, symObjAddr: 0x10CA8, symBinAddr: 0x35220, symSize: 0xB4 }
  - { offsetInCU: 0x7DA7F, offset: 0x18A342, size: 0x8, addend: 0x0, symName: __ZNSt3__111basic_regexIcNS_12regex_traitsIcEEE24__parse_collating_symbolINS_11__wrap_iterIPKcEEEET_S9_S9_RNS_12basic_stringIcNS_11char_traitsIcEENS_9allocatorIcEEEE, symObjAddr: 0x10D5C, symBinAddr: 0x352D4, symSize: 0xE8 }
  - { offsetInCU: 0x7DAA0, offset: 0x18A363, size: 0x8, addend: 0x0, symName: __ZNSt3__120__bracket_expressionIcNS_12regex_traitsIcEEE11__add_rangeB8ue170006ENS_12basic_stringIcNS_11char_traitsIcEENS_9allocatorIcEEEES9_, symObjAddr: 0x11270, symBinAddr: 0x357E8, symSize: 0x450 }
  - { offsetInCU: 0x7F3BB, offset: 0x18BC7E, size: 0x8, addend: 0x0, symName: __ZNKSt3__112regex_traitsIcE20__lookup_collatenameINS_11__wrap_iterIPKcEEEENS_12basic_stringIcNS_11char_traitsIcEENS_9allocatorIcEEEET_SD_c, symObjAddr: 0x11AFC, symBinAddr: 0x36074, symSize: 0x298 }
  - { offsetInCU: 0x7FEB4, offset: 0x18C777, size: 0x8, addend: 0x0, symName: __ZNKSt3__112regex_traitsIcE19__transform_primaryINS_11__wrap_iterIPcEEEENS_12basic_stringIcNS_11char_traitsIcEENS_9allocatorIcEEEET_SC_c, symObjAddr: 0x11D94, symBinAddr: 0x3630C, symSize: 0x1E4 }
  - { offsetInCU: 0x805B8, offset: 0x18CE7B, size: 0x8, addend: 0x0, symName: __ZNSt3__16vectorINS_12basic_stringIcNS_11char_traitsIcEENS_9allocatorIcEEEENS4_IS6_EEE21__push_back_slow_pathIRKS6_EEvOT_, symObjAddr: 0x11F78, symBinAddr: 0x364F0, symSize: 0x228 }
  - { offsetInCU: 0x81047, offset: 0x18D90A, size: 0x8, addend: 0x0, symName: __ZNKSt3__112regex_traitsIcE18__lookup_classnameINS_11__wrap_iterIPKcEEEEjT_S7_bc, symObjAddr: 0x12264, symBinAddr: 0x367DC, symSize: 0x184 }
  - { offsetInCU: 0x816D4, offset: 0x18DF97, size: 0x8, addend: 0x0, symName: __ZNSt3__120__bracket_expressionIcNS_12regex_traitsIcEEE14__add_neg_charB8ue170006Ec, symObjAddr: 0x123E8, symBinAddr: 0x36960, symSize: 0x49C }
  - { offsetInCU: 0x81E66, offset: 0x18E729, size: 0x8, addend: 0x0, symName: __ZNKSt3__112regex_traitsIcE9transformINS_11__wrap_iterIPcEEEENS_12basic_stringIcNS_11char_traitsIcEENS_9allocatorIcEEEET_SC_, symObjAddr: 0x12884, symBinAddr: 0x36DFC, symSize: 0x180 }
  - { offsetInCU: 0x820A5, offset: 0x18E968, size: 0x8, addend: 0x0, symName: __ZNKSt3__112regex_traitsIcE9transformINS_11__wrap_iterIPcEEEENS_12basic_stringIcNS_11char_traitsIcEENS_9allocatorIcEEEET_SC_, symObjAddr: 0x12884, symBinAddr: 0x36DFC, symSize: 0x180 }
  - { offsetInCU: 0x82667, offset: 0x18EF2A, size: 0x8, addend: 0x0, symName: __ZNSt3__16vectorINS_4pairINS_12basic_stringIcNS_11char_traitsIcEENS_9allocatorIcEEEES7_EENS5_IS8_EEE21__push_back_slow_pathIS8_EEvOT_, symObjAddr: 0x12A50, symBinAddr: 0x36FC8, symSize: 0x1CC }
  - { offsetInCU: 0x82EAF, offset: 0x18F772, size: 0x8, addend: 0x0, symName: __ZNKSt3__16vectorINS_4pairINS_12basic_stringIcNS_11char_traitsIcEENS_9allocatorIcEEEES7_EENS5_IS8_EEE20__throw_length_errorB8ue170006Ev, symObjAddr: 0x12C1C, symBinAddr: 0x37194, symSize: 0x14 }
  - { offsetInCU: 0x830F2, offset: 0x18F9B5, size: 0x8, addend: 0x0, symName: __ZNKSt3__16vectorINS_4pairIccEENS_9allocatorIS2_EEE20__throw_length_errorB8ue170006Ev, symObjAddr: 0x12C30, symBinAddr: 0x371A8, symSize: 0x14 }
  - { offsetInCU: 0x8311B, offset: 0x18F9DE, size: 0x8, addend: 0x0, symName: __ZNSt3__128__begin_marked_subexpressionIcED1Ev, symObjAddr: 0x12C44, symBinAddr: 0x371BC, symSize: 0x44 }
  - { offsetInCU: 0x836FC, offset: 0x18FFBF, size: 0x8, addend: 0x0, symName: __ZNKSt3__16vectorINS_12basic_stringIcNS_11char_traitsIcEENS_9allocatorIcEEEENS4_IS6_EEE20__throw_length_errorB8ue170006Ev, symObjAddr: 0x12204, symBinAddr: 0x3677C, symSize: 0x14 }
  - { offsetInCU: 0x83725, offset: 0x18FFE8, size: 0x8, addend: 0x0, symName: __ZNSt3__119__throw_regex_errorB8ue170006ILNS_15regex_constants10error_typeE2EEEvv, symObjAddr: 0x12218, symBinAddr: 0x36790, symSize: 0x4C }
  - { offsetInCU: 0x83731, offset: 0x18FFF4, size: 0x8, addend: 0x0, symName: __ZNSt3__114__split_bufferINS_12basic_stringIcNS_11char_traitsIcEENS_9allocatorIcEEEERNS4_IS6_EEED1Ev, symObjAddr: 0x121A0, symBinAddr: 0x36718, symSize: 0x64 }
  - { offsetInCU: 0x83BEE, offset: 0x1904B1, size: 0x8, addend: 0x0, symName: __ZNKSt3__16vectorINS_4pairINS_12basic_stringIcNS_11char_traitsIcEENS_9allocatorIcEEEES7_EENS5_IS8_EEE20__throw_length_errorB8ue170006Ev, symObjAddr: 0x12C1C, symBinAddr: 0x37194, symSize: 0x14 }
  - { offsetInCU: 0x83C17, offset: 0x1904DA, size: 0x8, addend: 0x0, symName: __ZNKSt3__16vectorINS_4pairIccEENS_9allocatorIS2_EEE20__throw_length_errorB8ue170006Ev, symObjAddr: 0x12C30, symBinAddr: 0x371A8, symSize: 0x14 }
  - { offsetInCU: 0x83C40, offset: 0x190503, size: 0x8, addend: 0x0, symName: __ZNSt3__128__begin_marked_subexpressionIcED1Ev, symObjAddr: 0x12C44, symBinAddr: 0x371BC, symSize: 0x44 }
  - { offsetInCU: 0x83CC5, offset: 0x190588, size: 0x8, addend: 0x0, symName: __ZNSt3__128__begin_marked_subexpressionIcED0Ev, symObjAddr: 0x12C88, symBinAddr: 0x37200, symSize: 0x44 }
  - { offsetInCU: 0x83D56, offset: 0x190619, size: 0x8, addend: 0x0, symName: __ZNKSt3__128__begin_marked_subexpressionIcE6__execERNS_7__stateIcEE, symObjAddr: 0x12CCC, symBinAddr: 0x37244, symSize: 0x30 }
  - { offsetInCU: 0x83DE5, offset: 0x1906A8, size: 0x8, addend: 0x0, symName: __ZNSt3__126__end_marked_subexpressionIcED1Ev, symObjAddr: 0x12CFC, symBinAddr: 0x37274, symSize: 0x44 }
  - { offsetInCU: 0x83E6A, offset: 0x19072D, size: 0x8, addend: 0x0, symName: __ZNSt3__126__end_marked_subexpressionIcED0Ev, symObjAddr: 0x12D40, symBinAddr: 0x372B8, symSize: 0x44 }
  - { offsetInCU: 0x83EFB, offset: 0x1907BE, size: 0x8, addend: 0x0, symName: __ZNKSt3__126__end_marked_subexpressionIcE6__execERNS_7__stateIcEE, symObjAddr: 0x12D84, symBinAddr: 0x372FC, symSize: 0x38 }
  - { offsetInCU: 0x84202, offset: 0x190AC5, size: 0x8, addend: 0x0, symName: __ZNSt3__16__loopIcED0Ev, symObjAddr: 0x12FF4, symBinAddr: 0x3756C, symSize: 0x68 }
  - { offsetInCU: 0x842F5, offset: 0x190BB8, size: 0x8, addend: 0x0, symName: __ZNSt3__16__loopIcED1Ev, symObjAddr: 0x12F8C, symBinAddr: 0x37504, symSize: 0x68 }
  - { offsetInCU: 0x843D8, offset: 0x190C9B, size: 0x8, addend: 0x0, symName: __ZNKSt3__16__loopIcE6__execERNS_7__stateIcEE, symObjAddr: 0x1305C, symBinAddr: 0x375D4, symSize: 0x204 }
  - { offsetInCU: 0x84526, offset: 0x190DE9, size: 0x8, addend: 0x0, symName: __ZNKSt3__16__loopIcE12__exec_splitEbRNS_7__stateIcEE, symObjAddr: 0x13260, symBinAddr: 0x377D8, symSize: 0xD8 }
  - { offsetInCU: 0x845FB, offset: 0x190EBE, size: 0x8, addend: 0x0, symName: __ZNSt3__117__owns_two_statesIcED1Ev, symObjAddr: 0x13338, symBinAddr: 0x378B0, symSize: 0x68 }
  - { offsetInCU: 0x8468B, offset: 0x190F4E, size: 0x8, addend: 0x0, symName: __ZNSt3__117__owns_two_statesIcED0Ev, symObjAddr: 0x133A0, symBinAddr: 0x37918, symSize: 0x68 }
  - { offsetInCU: 0x84727, offset: 0x190FEA, size: 0x8, addend: 0x0, symName: __ZNSt3__117__repeat_one_loopIcED1Ev, symObjAddr: 0x13408, symBinAddr: 0x37980, symSize: 0x4 }
  - { offsetInCU: 0x84753, offset: 0x191016, size: 0x8, addend: 0x0, symName: __ZNSt3__117__repeat_one_loopIcED0Ev, symObjAddr: 0x1340C, symBinAddr: 0x37984, symSize: 0x4 }
  - { offsetInCU: 0x8477F, offset: 0x191042, size: 0x8, addend: 0x0, symName: __ZNKSt3__117__repeat_one_loopIcE6__execERNS_7__stateIcEE, symObjAddr: 0x13410, symBinAddr: 0x37988, symSize: 0x14 }
  - { offsetInCU: 0x847EF, offset: 0x1910B2, size: 0x8, addend: 0x0, symName: __ZNSt3__111__alternateIcED1Ev, symObjAddr: 0x13424, symBinAddr: 0x3799C, symSize: 0x68 }
  - { offsetInCU: 0x8489D, offset: 0x191160, size: 0x8, addend: 0x0, symName: __ZNSt3__111__alternateIcED0Ev, symObjAddr: 0x1348C, symBinAddr: 0x37A04, symSize: 0x68 }
  - { offsetInCU: 0x84957, offset: 0x19121A, size: 0x8, addend: 0x0, symName: __ZNKSt3__111__alternateIcE6__execERNS_7__stateIcEE, symObjAddr: 0x134F4, symBinAddr: 0x37A6C, symSize: 0xC }
  - { offsetInCU: 0x8498D, offset: 0x191250, size: 0x8, addend: 0x0, symName: __ZNKSt3__111__alternateIcE12__exec_splitEbRNS_7__stateIcEE, symObjAddr: 0x13500, symBinAddr: 0x37A78, symSize: 0x24 }
  - { offsetInCU: 0x849D7, offset: 0x19129A, size: 0x8, addend: 0x0, symName: __ZNSt3__121__empty_non_own_stateIcED1Ev, symObjAddr: 0x13524, symBinAddr: 0x37A9C, symSize: 0x4 }
  - { offsetInCU: 0x84A03, offset: 0x1912C6, size: 0x8, addend: 0x0, symName: __ZNSt3__121__empty_non_own_stateIcED0Ev, symObjAddr: 0x13528, symBinAddr: 0x37AA0, symSize: 0x4 }
  - { offsetInCU: 0x84A2F, offset: 0x1912F2, size: 0x8, addend: 0x0, symName: __ZNKSt3__121__empty_non_own_stateIcE6__execERNS_7__stateIcEE, symObjAddr: 0x1352C, symBinAddr: 0x37AA4, symSize: 0x14 }
  - { offsetInCU: 0x84B87, offset: 0x19144A, size: 0x8, addend: 0x0, symName: __ZNSt3__111basic_regexIcNS_12regex_traitsIcEEE32__parse_one_char_or_coll_elem_REINS_11__wrap_iterIPKcEEEET_S9_S9_, symObjAddr: 0x13A44, symBinAddr: 0x37FBC, symSize: 0x15C }
  - { offsetInCU: 0x84F20, offset: 0x1917E3, size: 0x8, addend: 0x0, symName: __ZNSt3__111__match_anyIcED1Ev, symObjAddr: 0x13BA0, symBinAddr: 0x38118, symSize: 0x44 }
  - { offsetInCU: 0x84FA5, offset: 0x191868, size: 0x8, addend: 0x0, symName: __ZNSt3__111__match_anyIcED0Ev, symObjAddr: 0x13BE4, symBinAddr: 0x3815C, symSize: 0x44 }
  - { offsetInCU: 0x85036, offset: 0x1918F9, size: 0x8, addend: 0x0, symName: __ZNKSt3__111__match_anyIcE6__execERNS_7__stateIcEE, symObjAddr: 0x13C28, symBinAddr: 0x381A0, symSize: 0x40 }
  - { offsetInCU: 0x85089, offset: 0x19194C, size: 0x8, addend: 0x0, symName: __ZNSt3__111basic_regexIcNS_12regex_traitsIcEEE15__test_back_refEc, symObjAddr: 0x13C68, symBinAddr: 0x381E0, symSize: 0x60 }
  - { offsetInCU: 0x85156, offset: 0x191A19, size: 0x8, addend: 0x0, symName: __ZNSt3__111basic_regexIcNS_12regex_traitsIcEEE22__parse_ERE_expressionINS_11__wrap_iterIPKcEEEET_S9_S9_, symObjAddr: 0x13CC8, symBinAddr: 0x38240, symSize: 0x288 }
  - { offsetInCU: 0x851A7, offset: 0x191A6A, size: 0x8, addend: 0x0, symName: __ZNSt3__111basic_regexIcNS_12regex_traitsIcEEE20__parse_ORD_CHAR_EREINS_11__wrap_iterIPKcEEEET_S9_S9_, symObjAddr: 0x13F50, symBinAddr: 0x384C8, symSize: 0x78 }
  - { offsetInCU: 0x85207, offset: 0x191ACA, size: 0x8, addend: 0x0, symName: __ZNSt3__111basic_regexIcNS_12regex_traitsIcEEE23__parse_QUOTED_CHAR_EREINS_11__wrap_iterIPKcEEEET_S9_S9_, symObjAddr: 0x13FC8, symBinAddr: 0x38540, symSize: 0xC4 }
  - { offsetInCU: 0x85420, offset: 0x191CE3, size: 0x8, addend: 0x0, symName: __ZNSt3__16vectorINS0_I21llama_grammar_elementNS_9allocatorIS1_EEEENS2_IS4_EEEC2ERKS6_.cold.1, symObjAddr: 0x1738C, symBinAddr: 0x1FD0C0, symSize: 0x48 }
  - { offsetInCU: 0x856C7, offset: 0x191F8A, size: 0x8, addend: 0x0, symName: __ZNSt3__128__exception_guard_exceptionsINS_29_AllocatorDestroyRangeReverseINS_9allocatorINS_6vectorI21llama_grammar_elementNS2_IS4_EEEEEEPS6_EEED1B8ue170006Ev, symObjAddr: 0x14254, symBinAddr: 0x387CC, symSize: 0x6C }
  - { offsetInCU: 0x85A65, offset: 0x192328, size: 0x8, addend: 0x0, symName: __ZNSt3__16vectorINS0_IPK21llama_grammar_elementNS_9allocatorIS3_EEEENS4_IS6_EEEC2ERKS8_.cold.1, symObjAddr: 0x173D4, symBinAddr: 0x1FD108, symSize: 0x48 }
  - { offsetInCU: 0x85D0C, offset: 0x1925CF, size: 0x8, addend: 0x0, symName: __ZNSt3__128__exception_guard_exceptionsINS_29_AllocatorDestroyRangeReverseINS_9allocatorINS_6vectorIPK21llama_grammar_elementNS2_IS6_EEEEEEPS8_EEED1B8ue170006Ev, symObjAddr: 0x14488, symBinAddr: 0x38A00, symSize: 0x6C }
  - { offsetInCU: 0x86071, offset: 0x192934, size: 0x8, addend: 0x0, symName: __ZNSt3__16vectorI29llama_grammar_trigger_patternNS_9allocatorIS1_EEEC2ERKS4_.cold.1, symObjAddr: 0x1741C, symBinAddr: 0x1FD150, symSize: 0xB0 }
  - { offsetInCU: 0x86544, offset: 0x192E07, size: 0x8, addend: 0x0, symName: __ZNSt3__128__exception_guard_exceptionsINS_29_AllocatorDestroyRangeReverseINS_9allocatorI29llama_grammar_trigger_patternEEPS3_EEED1B8ue170006Ev, symObjAddr: 0x1472C, symBinAddr: 0x38CA4, symSize: 0xC0 }
  - { offsetInCU: 0x86945, offset: 0x193208, size: 0x8, addend: 0x0, symName: __ZNKSt3__111basic_regexIcNS_12regex_traitsIcEEE27__match_at_start_posix_subsINS_9allocatorINS_9sub_matchIPKcEEEEEEbS8_S8_RNS_13match_resultsIS8_T_EENS_15regex_constants15match_flag_typeEb, symObjAddr: 0x156C0, symBinAddr: 0x39C38, symSize: 0x5F4 }
  - { offsetInCU: 0x88724, offset: 0x194FE7, size: 0x8, addend: 0x0, symName: __ZNKSt3__111basic_regexIcNS_12regex_traitsIcEEE29__match_at_start_posix_nosubsINS_9allocatorINS_9sub_matchIPKcEEEEEEbS8_S8_RNS_13match_resultsIS8_T_EENS_15regex_constants15match_flag_typeEb, symObjAddr: 0x14D8C, symBinAddr: 0x39304, symSize: 0x934 }
  - { offsetInCU: 0x8A7F8, offset: 0x1970BB, size: 0x8, addend: 0x0, symName: __ZNSt3__16vectorINS_9sub_matchINS_11__wrap_iterIPKcEEEENS_9allocatorIS6_EEE8__appendEm, symObjAddr: 0x171A4, symBinAddr: 0x3B71C, symSize: 0x18C }
  - { offsetInCU: 0x8ADAE, offset: 0x197671, size: 0x8, addend: 0x0, symName: __ZNKSt3__16vectorINS_9sub_matchINS_11__wrap_iterIPKcEEEENS_9allocatorIS6_EEE20__throw_length_errorB8ue170006Ev, symObjAddr: 0x17330, symBinAddr: 0x3B8A8, symSize: 0x14 }
  - { offsetInCU: 0x8B21C, offset: 0x197ADF, size: 0x8, addend: 0x0, symName: __ZNSt3__15dequeINS_7__stateIcEENS_9allocatorIS2_EEE19__add_back_capacityEv, symObjAddr: 0x15E7C, symBinAddr: 0x3A3F4, symSize: 0x5A8 }
  - { offsetInCU: 0x8C343, offset: 0x198C06, size: 0x8, addend: 0x0, symName: __ZNSt3__15dequeINS_7__stateIcEENS_9allocatorIS2_EEE20__add_front_capacityEv, symObjAddr: 0x16750, symBinAddr: 0x3ACC8, symSize: 0x3BC }
  - { offsetInCU: 0x8D177, offset: 0x199A3A, size: 0x8, addend: 0x0, symName: __ZNSt3__15dequeINS_7__stateIcEENS_9allocatorIS2_EEED1B8ue170006Ev, symObjAddr: 0x15E08, symBinAddr: 0x3A380, symSize: 0x74 }
  - { offsetInCU: 0x8D590, offset: 0x199E53, size: 0x8, addend: 0x0, symName: __ZNSt3__16vectorINS_9sub_matchIPKcEENS_9allocatorIS4_EEE18__assign_with_sizeB8ue170006IPS4_S9_EEvT_T0_l, symObjAddr: 0x16CA8, symBinAddr: 0x3B220, symSize: 0x1EC }
  - { offsetInCU: 0x8DE50, offset: 0x19A713, size: 0x8, addend: 0x0, symName: __ZNSt3__16vectorINS_4pairImPKcEENS_9allocatorIS4_EEE18__assign_with_sizeB8ue170006IPS4_S9_EEvT_T0_l, symObjAddr: 0x16E94, symBinAddr: 0x3B40C, symSize: 0x310 }
  - { offsetInCU: 0x8DE74, offset: 0x19A737, size: 0x8, addend: 0x0, symName: __ZNSt3__16vectorINS_4pairImPKcEENS_9allocatorIS4_EEE18__assign_with_sizeB8ue170006IPS4_S9_EEvT_T0_l, symObjAddr: 0x16E94, symBinAddr: 0x3B40C, symSize: 0x310 }
  - { offsetInCU: 0x8E68B, offset: 0x19AF4E, size: 0x8, addend: 0x0, symName: __ZNSt3__16vectorINS_9sub_matchINS_11__wrap_iterIPKcEEEENS_9allocatorIS6_EEE8__appendEm, symObjAddr: 0x171A4, symBinAddr: 0x3B71C, symSize: 0x18C }
  - { offsetInCU: 0x8E6C5, offset: 0x19AF88, size: 0x8, addend: 0x0, symName: __ZNSt3__15dequeINS_7__stateIcEENS_9allocatorIS2_EEE5clearEv, symObjAddr: 0x15CB4, symBinAddr: 0x3A22C, symSize: 0x154 }
  - { offsetInCU: 0x8F116, offset: 0x19B9D9, size: 0x8, addend: 0x0, symName: __ZNSt3__114__split_bufferIPNS_7__stateIcEENS_9allocatorIS3_EEE9push_backEOS3_, symObjAddr: 0x16424, symBinAddr: 0x3A99C, symSize: 0x190 }
  - { offsetInCU: 0x8F5D4, offset: 0x19BE97, size: 0x8, addend: 0x0, symName: __ZNSt3__114__split_bufferIPNS_7__stateIcEENS_9allocatorIS3_EEE10push_frontEOS3_, symObjAddr: 0x165B4, symBinAddr: 0x3AB2C, symSize: 0x19C }
  - { offsetInCU: 0x8F5E0, offset: 0x19BEA3, size: 0x8, addend: 0x0, symName: __ZNSt3__114__split_bufferIPNS_7__stateIcEENS_9allocatorIS3_EEE10push_frontEOS3_, symObjAddr: 0x165B4, symBinAddr: 0x3AB2C, symSize: 0x19C }
  - { offsetInCU: 0x8FA7A, offset: 0x19C33D, size: 0x8, addend: 0x0, symName: __ZNSt3__15dequeINS_7__stateIcEENS_9allocatorIS2_EEE20__add_front_capacityEv, symObjAddr: 0x16750, symBinAddr: 0x3ACC8, symSize: 0x3BC }
  - { offsetInCU: 0x8FB36, offset: 0x19C3F9, size: 0x8, addend: 0x0, symName: __ZNSt3__114__split_bufferIPNS_7__stateIcEENS_9allocatorIS3_EEE10push_frontERKS3_, symObjAddr: 0x16B0C, symBinAddr: 0x3B084, symSize: 0x19C }
  - { offsetInCU: 0x8FFD0, offset: 0x19C893, size: 0x8, addend: 0x0, symName: __ZNSt3__16vectorINS_9sub_matchIPKcEENS_9allocatorIS4_EEE18__assign_with_sizeB8ue170006IPS4_S9_EEvT_T0_l, symObjAddr: 0x16CA8, symBinAddr: 0x3B220, symSize: 0x1EC }
  - { offsetInCU: 0x904C3, offset: 0x19CD86, size: 0x8, addend: 0x0, symName: __ZNKSt3__16vectorINS_9sub_matchINS_11__wrap_iterIPKcEEEENS_9allocatorIS6_EEE20__throw_length_errorB8ue170006Ev, symObjAddr: 0x17330, symBinAddr: 0x3B8A8, symSize: 0x14 }
  - { offsetInCU: 0x904EC, offset: 0x19CDAF, size: 0x8, addend: 0x0, symName: __ZNSt3__16vectorINS0_I21llama_grammar_elementNS_9allocatorIS1_EEEENS2_IS4_EEEC1Em.cold.1, symObjAddr: 0x17344, symBinAddr: 0x1FD078, symSize: 0x48 }
  - { offsetInCU: 0x904F8, offset: 0x19CDBB, size: 0x8, addend: 0x0, symName: _OUTLINED_FUNCTION_0, symObjAddr: 0x174CC, symBinAddr: 0x3B8BC, symSize: 0xC }
  - { offsetInCU: 0x90510, offset: 0x19CDD3, size: 0x8, addend: 0x0, symName: _OUTLINED_FUNCTION_1, symObjAddr: 0x174D8, symBinAddr: 0x3B8C8, symSize: 0x18 }
  - { offsetInCU: 0x90528, offset: 0x19CDEB, size: 0x8, addend: 0x0, symName: _OUTLINED_FUNCTION_2, symObjAddr: 0x174F0, symBinAddr: 0x3B8E0, symSize: 0x8 }
  - { offsetInCU: 0x272D3, offset: 0x1C4241, size: 0x8, addend: 0x0, symName: __ZNSt3__125__throw_bad_function_callB8ue170006Ev, symObjAddr: 0x6F24, symBinAddr: 0x42688, symSize: 0x34 }
  - { offsetInCU: 0x30C16, offset: 0x1CDB84, size: 0x8, addend: 0x0, symName: __ZN20llm_graph_input_embd9set_inputEPK12llama_ubatch, symObjAddr: 0x0, symBinAddr: 0x3B8E8, symSize: 0xA0 }
  - { offsetInCU: 0x30D3D, offset: 0x1CDCAB, size: 0x8, addend: 0x0, symName: __ZN20llm_graph_input_embd9can_reuseERK16llm_graph_params, symObjAddr: 0xA0, symBinAddr: 0x3B988, symSize: 0x50 }
  - { offsetInCU: 0x30FC3, offset: 0x1CDF31, size: 0x8, addend: 0x0, symName: __ZN19llm_graph_input_pos9set_inputEPK12llama_ubatch, symObjAddr: 0xF0, symBinAddr: 0x3B9D8, symSize: 0x210 }
  - { offsetInCU: 0x3136D, offset: 0x1CE2DB, size: 0x8, addend: 0x0, symName: __ZN19llm_graph_input_pos9can_reuseERK16llm_graph_params, symObjAddr: 0x300, symBinAddr: 0x3BBE8, symSize: 0x18 }
  - { offsetInCU: 0x31638, offset: 0x1CE5A6, size: 0x8, addend: 0x0, symName: __ZN25llm_graph_input_attn_temp9set_inputEPK12llama_ubatch, symObjAddr: 0x318, symBinAddr: 0x3BC00, symSize: 0x220 }
  - { offsetInCU: 0x31A86, offset: 0x1CE9F4, size: 0x8, addend: 0x0, symName: __ZN26llm_graph_input_pos_bucket9set_inputEPK12llama_ubatch, symObjAddr: 0x538, symBinAddr: 0x3BE20, symSize: 0x424 }
  - { offsetInCU: 0x31BDD, offset: 0x1CEB4B, size: 0x8, addend: 0x0, symName: __Z30llama_relative_position_bucketiiyb, symObjAddr: 0x95C, symBinAddr: 0x3C244, symSize: 0xB0 }
  - { offsetInCU: 0x31C26, offset: 0x1CEB94, size: 0x8, addend: 0x0, symName: __Z30llama_relative_position_bucketiiyb, symObjAddr: 0x95C, symBinAddr: 0x3C244, symSize: 0xB0 }
  - { offsetInCU: 0x31C8B, offset: 0x1CEBF9, size: 0x8, addend: 0x0, symName: __ZN29llm_graph_input_pos_bucket_kv9set_inputEPK12llama_ubatch, symObjAddr: 0xA0C, symBinAddr: 0x3C2F4, symSize: 0x18 }
  - { offsetInCU: 0x31CC4, offset: 0x1CEC32, size: 0x8, addend: 0x0, symName: __ZN23llm_graph_input_out_ids9set_inputEPK12llama_ubatch, symObjAddr: 0xA24, symBinAddr: 0x3C30C, symSize: 0x170 }
  - { offsetInCU: 0x31D95, offset: 0x1CED03, size: 0x8, addend: 0x0, symName: __ZN23llm_graph_input_out_ids9can_reuseERK16llm_graph_params, symObjAddr: 0xB94, symBinAddr: 0x3C47C, symSize: 0x14 }
  - { offsetInCU: 0x31DA7, offset: 0x1CED15, size: 0x8, addend: 0x0, symName: __ZN23llm_graph_input_out_ids9can_reuseERK16llm_graph_params, symObjAddr: 0xB94, symBinAddr: 0x3C47C, symSize: 0x14 }
  - { offsetInCU: 0x32078, offset: 0x1CEFE6, size: 0x8, addend: 0x0, symName: __ZN20llm_graph_input_mean9set_inputEPK12llama_ubatch, symObjAddr: 0xBA8, symBinAddr: 0x3C490, symSize: 0x4F8 }
  - { offsetInCU: 0x32935, offset: 0x1CF8A3, size: 0x8, addend: 0x0, symName: __ZN19llm_graph_input_cls9set_inputEPK12llama_ubatch, symObjAddr: 0x10A0, symBinAddr: 0x3C988, symSize: 0x3D4 }
  - { offsetInCU: 0x32F99, offset: 0x1CFF07, size: 0x8, addend: 0x0, symName: __ZN18llm_graph_input_rs9set_inputEPK12llama_ubatch, symObjAddr: 0x1474, symBinAddr: 0x3CD5C, symSize: 0xA0 }
  - { offsetInCU: 0x33019, offset: 0x1CFF87, size: 0x8, addend: 0x0, symName: __ZN26llm_graph_input_cross_embd9set_inputEPK12llama_ubatch, symObjAddr: 0x1514, symBinAddr: 0x3CDFC, symSize: 0x54 }
  - { offsetInCU: 0x33047, offset: 0x1CFFB5, size: 0x8, addend: 0x0, symName: __ZN26llm_graph_input_cross_embd9set_inputEPK12llama_ubatch, symObjAddr: 0x1514, symBinAddr: 0x3CDFC, symSize: 0x54 }
  - { offsetInCU: 0x330E1, offset: 0x1D004F, size: 0x8, addend: 0x0, symName: __ZN29llm_graph_input_attn_no_cache9set_inputEPK12llama_ubatch, symObjAddr: 0x1568, symBinAddr: 0x3CE50, symSize: 0x150 }
  - { offsetInCU: 0x3323B, offset: 0x1D01A9, size: 0x8, addend: 0x0, symName: __ZN31llm_graph_input_attn_kv_unified9set_inputEPK12llama_ubatch, symObjAddr: 0x16B8, symBinAddr: 0x3CFA0, symSize: 0x54 }
  - { offsetInCU: 0x3324E, offset: 0x1D01BC, size: 0x8, addend: 0x0, symName: __ZN31llm_graph_input_attn_kv_unified9set_inputEPK12llama_ubatch, symObjAddr: 0x16B8, symBinAddr: 0x3CFA0, symSize: 0x54 }
  - { offsetInCU: 0x33288, offset: 0x1D01F6, size: 0x8, addend: 0x0, symName: __ZN31llm_graph_input_attn_kv_unified9can_reuseERK16llm_graph_params, symObjAddr: 0x170C, symBinAddr: 0x3CFF4, symSize: 0x88 }
  - { offsetInCU: 0x332E4, offset: 0x1D0252, size: 0x8, addend: 0x0, symName: __ZN36llm_graph_input_attn_kv_unified_iswa9set_inputEPK12llama_ubatch, symObjAddr: 0x1794, symBinAddr: 0x3D07C, symSize: 0xA8 }
  - { offsetInCU: 0x3331E, offset: 0x1D028C, size: 0x8, addend: 0x0, symName: __ZN36llm_graph_input_attn_kv_unified_iswa9can_reuseERK16llm_graph_params, symObjAddr: 0x183C, symBinAddr: 0x3D124, symSize: 0xF4 }
  - { offsetInCU: 0x33452, offset: 0x1D03C0, size: 0x8, addend: 0x0, symName: __ZN26llm_graph_input_attn_cross9set_inputEPK12llama_ubatch, symObjAddr: 0x1930, symBinAddr: 0x3D218, symSize: 0x238 }
  - { offsetInCU: 0x33673, offset: 0x1D05E1, size: 0x8, addend: 0x0, symName: __ZN26llm_graph_input_mem_hybrid9set_inputEPK12llama_ubatch, symObjAddr: 0x1B68, symBinAddr: 0x3D450, symSize: 0x40 }
  - { offsetInCU: 0x336BC, offset: 0x1D062A, size: 0x8, addend: 0x0, symName: __ZN26llm_graph_input_mem_hybrid9set_inputEPK12llama_ubatch, symObjAddr: 0x1B68, symBinAddr: 0x3D450, symSize: 0x40 }
  - { offsetInCU: 0x339B9, offset: 0x1D0927, size: 0x8, addend: 0x0, symName: __ZN16llm_graph_resultC2Ex, symObjAddr: 0x1BA8, symBinAddr: 0x3D490, symSize: 0x17C }
  - { offsetInCU: 0x33D20, offset: 0x1D0C8E, size: 0x8, addend: 0x0, symName: __ZN16llm_graph_result5resetEv, symObjAddr: 0x1D24, symBinAddr: 0x3D60C, symSize: 0x544 }
  - { offsetInCU: 0x349E4, offset: 0x1D1952, size: 0x8, addend: 0x0, symName: __ZNSt3__16vectorINS_10unique_ptrI17llm_graph_input_iNS_14default_deleteIS2_EEEENS_9allocatorIS5_EEED1B8ue170006Ev, symObjAddr: 0x2330, symBinAddr: 0x3DB50, symSize: 0x74 }
  - { offsetInCU: 0x35505, offset: 0x1D2473, size: 0x8, addend: 0x0, symName: __ZNSt3__16vectorINS_10unique_ptrI17llm_graph_input_iNS_14default_deleteIS2_EEEENS_9allocatorIS5_EEE24__emplace_back_slow_pathIJS5_EEEvDpOT_, symObjAddr: 0x6DE8, symBinAddr: 0x4254C, symSize: 0x128 }
  - { offsetInCU: 0x355B7, offset: 0x1D2525, size: 0x8, addend: 0x0, symName: __ZN16llm_graph_resultC1Ex, symObjAddr: 0x23A4, symBinAddr: 0x3DBC4, symSize: 0x4 }
  - { offsetInCU: 0x355F5, offset: 0x1D2563, size: 0x8, addend: 0x0, symName: __ZN16llm_graph_resultC1Ex, symObjAddr: 0x23A4, symBinAddr: 0x3DBC4, symSize: 0x4 }
  - { offsetInCU: 0x3560F, offset: 0x1D257D, size: 0x8, addend: 0x0, symName: __ZNK16llm_graph_result13get_max_nodesEv, symObjAddr: 0x23A8, symBinAddr: 0x3DBC8, symSize: 0x8 }
  - { offsetInCU: 0x35667, offset: 0x1D25D5, size: 0x8, addend: 0x0, symName: __ZN16llm_graph_result10set_inputsEPK12llama_ubatch, symObjAddr: 0x23B0, symBinAddr: 0x3DBD0, symSize: 0x4C }
  - { offsetInCU: 0x35764, offset: 0x1D26D2, size: 0x8, addend: 0x0, symName: __ZN16llm_graph_result9can_reuseERK16llm_graph_params, symObjAddr: 0x23FC, symBinAddr: 0x3DC1C, symSize: 0x148 }
  - { offsetInCU: 0x358FB, offset: 0x1D2869, size: 0x8, addend: 0x0, symName: __ZNK16llm_graph_params11allow_reuseERKS_, symObjAddr: 0x2544, symBinAddr: 0x3DD64, symSize: 0x368 }
  - { offsetInCU: 0x35CB5, offset: 0x1D2C23, size: 0x8, addend: 0x0, symName: __ZN16llm_graph_result9add_inputENSt3__110unique_ptrI17llm_graph_input_iNS0_14default_deleteIS2_EEEE, symObjAddr: 0x28AC, symBinAddr: 0x3E0CC, symSize: 0x58 }
  - { offsetInCU: 0x35EBB, offset: 0x1D2E29, size: 0x8, addend: 0x0, symName: __ZNSt3__16vectorINS_10unique_ptrI17llm_graph_input_iNS_14default_deleteIS2_EEEENS_9allocatorIS5_EEE24__emplace_back_slow_pathIJS5_EEEvDpOT_, symObjAddr: 0x6DE8, symBinAddr: 0x4254C, symSize: 0x128 }
  - { offsetInCU: 0x36513, offset: 0x1D3481, size: 0x8, addend: 0x0, symName: __ZNKSt3__16vectorINS_10unique_ptrI17llm_graph_input_iNS_14default_deleteIS2_EEEENS_9allocatorIS5_EEE20__throw_length_errorB8ue170006Ev, symObjAddr: 0x6F10, symBinAddr: 0x42674, symSize: 0x14 }
  - { offsetInCU: 0x366E2, offset: 0x1D3650, size: 0x8, addend: 0x0, symName: __ZN16llm_graph_result10set_paramsERK16llm_graph_params, symObjAddr: 0x2904, symBinAddr: 0x3E124, symSize: 0x1B4 }
  - { offsetInCU: 0x36AAF, offset: 0x1D3A1D, size: 0x8, addend: 0x0, symName: __ZNSt3__110__function12__value_funcIFvRK12llama_ubatchP11ggml_tensorPKciEE4swapB8ue170006ERSA_, symObjAddr: 0x6BA0, symBinAddr: 0x423B4, symSize: 0x198 }
  - { offsetInCU: 0x374C9, offset: 0x1D4437, size: 0x8, addend: 0x0, symName: __ZN17llm_graph_contextC2ERK16llm_graph_params, symObjAddr: 0x2AB8, symBinAddr: 0x3E2D8, symSize: 0x180 }
  - { offsetInCU: 0x3756D, offset: 0x1D44DB, size: 0x8, addend: 0x0, symName: __ZN17llm_graph_contextC1ERK16llm_graph_params, symObjAddr: 0x2C38, symBinAddr: 0x3E458, symSize: 0x4 }
  - { offsetInCU: 0x375AB, offset: 0x1D4519, size: 0x8, addend: 0x0, symName: __ZN17llm_graph_contextC1ERK16llm_graph_params, symObjAddr: 0x2C38, symBinAddr: 0x3E458, symSize: 0x4 }
  - { offsetInCU: 0x37689, offset: 0x1D45F7, size: 0x8, addend: 0x0, symName: __ZNK17llm_graph_context2cbEP11ggml_tensorPKci, symObjAddr: 0x2C3C, symBinAddr: 0x3E45C, symSize: 0x54 }
  - { offsetInCU: 0x3778C, offset: 0x1D46FA, size: 0x8, addend: 0x0, symName: __ZNK17llm_graph_context10build_cvecEP11ggml_tensori, symObjAddr: 0x2C90, symBinAddr: 0x3E4B0, symSize: 0x18 }
  - { offsetInCU: 0x3781D, offset: 0x1D478B, size: 0x8, addend: 0x0, symName: __ZNK17llm_graph_context13build_lora_mmEP11ggml_tensorS1_, symObjAddr: 0x2CA8, symBinAddr: 0x3E4C8, symSize: 0xEC }
  - { offsetInCU: 0x37A0A, offset: 0x1D4978, size: 0x8, addend: 0x0, symName: __ZNK17llm_graph_context16build_lora_mm_idEP11ggml_tensorS1_S1_, symObjAddr: 0x2D94, symBinAddr: 0x3E5B4, symSize: 0x100 }
  - { offsetInCU: 0x37C00, offset: 0x1D4B6E, size: 0x8, addend: 0x0, symName: __ZNK17llm_graph_context10build_normEP11ggml_tensorS1_S1_13llm_norm_typei, symObjAddr: 0x2E94, symBinAddr: 0x3E6B4, symSize: 0x180 }
  - { offsetInCU: 0x37FB3, offset: 0x1D4F21, size: 0x8, addend: 0x0, symName: __ZNK17llm_graph_context9build_ffnEP11ggml_tensorS1_S1_S1_S1_S1_S1_S1_S1_S1_S1_15llm_ffn_op_type17llm_ffn_gate_typei, symObjAddr: 0x3014, symBinAddr: 0x3E834, symSize: 0x6B8 }
  - { offsetInCU: 0x39052, offset: 0x1D5FC0, size: 0x8, addend: 0x0, symName: __ZNK17llm_graph_context13build_moe_ffnEP11ggml_tensorS1_S1_S1_S1_S1_xx15llm_ffn_op_typebbf29llama_expert_gating_func_typeiS1_, symObjAddr: 0x36CC, symBinAddr: 0x3EEEC, symSize: 0x6C }
  - { offsetInCU: 0x39194, offset: 0x1D6102, size: 0x8, addend: 0x0, symName: __ZNK17llm_graph_context13build_moe_ffnEP11ggml_tensorS1_S1_S1_S1_S1_xx15llm_ffn_op_typebbf29llama_expert_gating_func_typeiS1_, symObjAddr: 0x36CC, symBinAddr: 0x3EEEC, symSize: 0x6C }
  - { offsetInCU: 0x392EF, offset: 0x1D625D, size: 0x8, addend: 0x0, symName: __ZNK17llm_graph_context13build_moe_ffnEP11ggml_tensorS1_S1_S1_S1_S1_S1_S1_S1_S1_xx15llm_ffn_op_typebbf29llama_expert_gating_func_typeiS1_, symObjAddr: 0x3738, symBinAddr: 0x3EF58, symSize: 0xB0C }
  - { offsetInCU: 0x3AFF1, offset: 0x1D7F5F, size: 0x8, addend: 0x0, symName: __ZNK17llm_graph_context14build_inp_embdEP11ggml_tensor, symObjAddr: 0x4244, symBinAddr: 0x3FA64, symSize: 0x25C }
  - { offsetInCU: 0x3B381, offset: 0x1D82EF, size: 0x8, addend: 0x0, symName: __ZNK17llm_graph_context14build_inp_embdEP11ggml_tensor, symObjAddr: 0x4244, symBinAddr: 0x3FA64, symSize: 0x25C }
  - { offsetInCU: 0x3BD74, offset: 0x1D8CE2, size: 0x8, addend: 0x0, symName: __ZNK17llm_graph_context13build_inp_posEv, symObjAddr: 0x44A0, symBinAddr: 0x3FCC0, symSize: 0x104 }
  - { offsetInCU: 0x3C4D4, offset: 0x1D9442, size: 0x8, addend: 0x0, symName: __ZNK17llm_graph_context20build_inp_attn_scaleEv, symObjAddr: 0x45A4, symBinAddr: 0x3FDC4, symSize: 0xFC }
  - { offsetInCU: 0x3CCA3, offset: 0x1D9C11, size: 0x8, addend: 0x0, symName: __ZNK17llm_graph_context17build_inp_out_idsEv, symObjAddr: 0x46A0, symBinAddr: 0x3FEC0, symSize: 0x128 }
  - { offsetInCU: 0x3D413, offset: 0x1DA381, size: 0x8, addend: 0x0, symName: __ZNK17llm_graph_context14build_inp_meanEv, symObjAddr: 0x47C8, symBinAddr: 0x3FFE8, symSize: 0x10C }
  - { offsetInCU: 0x3DB5E, offset: 0x1DAACC, size: 0x8, addend: 0x0, symName: __ZNK17llm_graph_context13build_inp_clsEv, symObjAddr: 0x48D4, symBinAddr: 0x400F4, symSize: 0x108 }
  - { offsetInCU: 0x3E2B3, offset: 0x1DB221, size: 0x8, addend: 0x0, symName: __ZNK17llm_graph_context20build_inp_cross_embdEv, symObjAddr: 0x49DC, symBinAddr: 0x401FC, symSize: 0xF8 }
  - { offsetInCU: 0x3EA36, offset: 0x1DB9A4, size: 0x8, addend: 0x0, symName: __ZNK17llm_graph_context24build_inp_pos_bucket_encEv, symObjAddr: 0x4AD4, symBinAddr: 0x402F4, symSize: 0xF4 }
  - { offsetInCU: 0x3F19C, offset: 0x1DC10A, size: 0x8, addend: 0x0, symName: __ZNK17llm_graph_context24build_inp_pos_bucket_decEv, symObjAddr: 0x4BC8, symBinAddr: 0x403E8, symSize: 0x10C }
  - { offsetInCU: 0x3F6F7, offset: 0x1DC665, size: 0x8, addend: 0x0, symName: __ZNK17llm_graph_context14build_pos_biasEP11ggml_tensorS1_, symObjAddr: 0x4CD4, symBinAddr: 0x404F4, symSize: 0x114 }
  - { offsetInCU: 0x3F9FB, offset: 0x1DC969, size: 0x8, addend: 0x0, symName: __ZNK17llm_graph_context14build_attn_mhaEP11ggml_tensorS1_S1_S1_S1_S1_S1_f, symObjAddr: 0x4DE8, symBinAddr: 0x40608, symSize: 0x3E4 }
  - { offsetInCU: 0x401C9, offset: 0x1DD137, size: 0x8, addend: 0x0, symName: __ZNK17llm_graph_context23build_attn_inp_no_cacheEv, symObjAddr: 0x51CC, symBinAddr: 0x409EC, symSize: 0x180 }
  - { offsetInCU: 0x40779, offset: 0x1DD6E7, size: 0x8, addend: 0x0, symName: __ZNK17llm_graph_context10build_attnEP29llm_graph_input_attn_no_cacheP11ggml_tensorS3_S3_S3_S3_S3_S3_fi, symObjAddr: 0x534C, symBinAddr: 0x40B6C, symSize: 0x130 }
  - { offsetInCU: 0x40BA7, offset: 0x1DDB15, size: 0x8, addend: 0x0, symName: __ZNK17llm_graph_context25build_attn_inp_kv_unifiedEv, symObjAddr: 0x547C, symBinAddr: 0x40C9C, symSize: 0xC8 }
  - { offsetInCU: 0x41008, offset: 0x1DDF76, size: 0x8, addend: 0x0, symName: __ZL30build_attn_inp_kv_unified_implP12ggml_contextRK12llama_ubatchRK13llama_hparamsRK13llama_cparamsPK30llama_kv_cache_unified_context, symObjAddr: 0x5544, symBinAddr: 0x40D64, symSize: 0x1AC }
  - { offsetInCU: 0x41532, offset: 0x1DE4A0, size: 0x8, addend: 0x0, symName: __ZNK17llm_graph_context10build_attnEP31llm_graph_input_attn_kv_unifiedP11ggml_tensorS3_S3_S3_S3_S3_S3_fi, symObjAddr: 0x56F0, symBinAddr: 0x40F10, symSize: 0x1BC }
  - { offsetInCU: 0x41894, offset: 0x1DE802, size: 0x8, addend: 0x0, symName: __ZNK17llm_graph_context10build_attnEP36llm_graph_input_attn_kv_unified_iswaP11ggml_tensorS3_S3_S3_S3_S3_S3_fi, symObjAddr: 0x58AC, symBinAddr: 0x410CC, symSize: 0x2C }
  - { offsetInCU: 0x419AD, offset: 0x1DE91B, size: 0x8, addend: 0x0, symName: __ZNK17llm_graph_context21build_attn_with_sinksEP36llm_graph_input_attn_kv_unified_iswaP11ggml_tensorS3_S3_S3_S3_S3_S3_S3_fi, symObjAddr: 0x58D8, symBinAddr: 0x410F8, symSize: 0x254 }
  - { offsetInCU: 0x42040, offset: 0x1DEFAE, size: 0x8, addend: 0x0, symName: __ZNK17llm_graph_context20build_attn_inp_crossEv, symObjAddr: 0x5B2C, symBinAddr: 0x4134C, symSize: 0x160 }
  - { offsetInCU: 0x425E2, offset: 0x1DF550, size: 0x8, addend: 0x0, symName: __ZNK17llm_graph_context10build_attnEP26llm_graph_input_attn_crossP11ggml_tensorS3_S3_S3_S3_S3_S3_fi, symObjAddr: 0x5C8C, symBinAddr: 0x414AC, symSize: 0x130 }
  - { offsetInCU: 0x42B11, offset: 0x1DFA7F, size: 0x8, addend: 0x0, symName: __ZNK17llm_graph_context30build_attn_inp_kv_unified_iswaEv, symObjAddr: 0x5DBC, symBinAddr: 0x415DC, symSize: 0x2CC }
  - { offsetInCU: 0x431B0, offset: 0x1E011E, size: 0x8, addend: 0x0, symName: __ZNK17llm_graph_context8build_rsEP11ggml_tensorS1_S1_iijjjiRKNSt3__18functionIFS1_P12ggml_contextS1_S1_EEE, symObjAddr: 0x6088, symBinAddr: 0x418A8, symSize: 0x168 }
  - { offsetInCU: 0x4341F, offset: 0x1E038D, size: 0x8, addend: 0x0, symName: __ZNK17llm_graph_context12build_rs_inpEv, symObjAddr: 0x61F0, symBinAddr: 0x41A10, symSize: 0xC4 }
  - { offsetInCU: 0x435DC, offset: 0x1E054A, size: 0x8, addend: 0x0, symName: __ZNK17llm_graph_context12build_rs_inpEv, symObjAddr: 0x61F0, symBinAddr: 0x41A10, symSize: 0xC4 }
  - { offsetInCU: 0x43A3D, offset: 0x1E09AB, size: 0x8, addend: 0x0, symName: __ZL17build_rs_inp_implP12ggml_contextRK12llama_ubatchPK30llama_memory_recurrent_context, symObjAddr: 0x62B4, symBinAddr: 0x41AD4, symSize: 0xD8 }
  - { offsetInCU: 0x43E9D, offset: 0x1E0E0B, size: 0x8, addend: 0x0, symName: __ZNK17llm_graph_context8build_rsEP18llm_graph_input_rsP11ggml_tensoriiRKNSt3__18functionIFS3_P12ggml_contextS3_S3_EEE, symObjAddr: 0x638C, symBinAddr: 0x41BAC, symSize: 0xB4 }
  - { offsetInCU: 0x4431E, offset: 0x1E128C, size: 0x8, addend: 0x0, symName: __ZNK17llm_graph_context27build_rwkv_token_shift_loadEP18llm_graph_input_rsRK12llama_ubatchi, symObjAddr: 0x6440, symBinAddr: 0x41C60, symSize: 0x1B4 }
  - { offsetInCU: 0x446D4, offset: 0x1E1642, size: 0x8, addend: 0x0, symName: __ZNK17llm_graph_context28build_rwkv_token_shift_storeEP11ggml_tensorRK12llama_ubatchi, symObjAddr: 0x65F4, symBinAddr: 0x41E14, symSize: 0xE4 }
  - { offsetInCU: 0x44AD8, offset: 0x1E1A46, size: 0x8, addend: 0x0, symName: __ZNK17llm_graph_context20build_inp_mem_hybridEv, symObjAddr: 0x66D8, symBinAddr: 0x41EF8, symSize: 0x160 }
  - { offsetInCU: 0x45228, offset: 0x1E2196, size: 0x8, addend: 0x0, symName: __ZNK17llm_graph_context13build_poolingEP11ggml_tensorS1_S1_S1_, symObjAddr: 0x6838, symBinAddr: 0x42058, symSize: 0x20C }
  - { offsetInCU: 0x45546, offset: 0x1E24B4, size: 0x8, addend: 0x0, symName: __ZN19llm_graph_input_posD1Ev, symObjAddr: 0x6A44, symBinAddr: 0x42264, symSize: 0x4 }
  - { offsetInCU: 0x45559, offset: 0x1E24C7, size: 0x8, addend: 0x0, symName: __ZN19llm_graph_input_posD1Ev, symObjAddr: 0x6A44, symBinAddr: 0x42264, symSize: 0x4 }
  - { offsetInCU: 0x45582, offset: 0x1E24F0, size: 0x8, addend: 0x0, symName: __ZN19llm_graph_input_posD0Ev, symObjAddr: 0x6A48, symBinAddr: 0x42268, symSize: 0x4 }
  - { offsetInCU: 0x455A2, offset: 0x1E2510, size: 0x8, addend: 0x0, symName: __ZN25llm_graph_input_attn_tempD1Ev, symObjAddr: 0x6A4C, symBinAddr: 0x4226C, symSize: 0x4 }
  - { offsetInCU: 0x455CB, offset: 0x1E2539, size: 0x8, addend: 0x0, symName: __ZN25llm_graph_input_attn_tempD0Ev, symObjAddr: 0x6A50, symBinAddr: 0x42270, symSize: 0x4 }
  - { offsetInCU: 0x455EB, offset: 0x1E2559, size: 0x8, addend: 0x0, symName: __ZN17llm_graph_input_i9can_reuseERK16llm_graph_params, symObjAddr: 0x6A54, symBinAddr: 0x42274, symSize: 0x8 }
  - { offsetInCU: 0x45620, offset: 0x1E258E, size: 0x8, addend: 0x0, symName: __ZN26llm_graph_input_pos_bucketD1Ev, symObjAddr: 0x6A5C, symBinAddr: 0x4227C, symSize: 0x4 }
  - { offsetInCU: 0x45649, offset: 0x1E25B7, size: 0x8, addend: 0x0, symName: __ZN26llm_graph_input_pos_bucketD0Ev, symObjAddr: 0x6A60, symBinAddr: 0x42280, symSize: 0x4 }
  - { offsetInCU: 0x45669, offset: 0x1E25D7, size: 0x8, addend: 0x0, symName: __ZN29llm_graph_input_pos_bucket_kvD1Ev, symObjAddr: 0x6A64, symBinAddr: 0x42284, symSize: 0x4 }
  - { offsetInCU: 0x45692, offset: 0x1E2600, size: 0x8, addend: 0x0, symName: __ZN29llm_graph_input_pos_bucket_kvD0Ev, symObjAddr: 0x6A68, symBinAddr: 0x42288, symSize: 0x4 }
  - { offsetInCU: 0x456B2, offset: 0x1E2620, size: 0x8, addend: 0x0, symName: __ZN23llm_graph_input_out_idsD1Ev, symObjAddr: 0x6A6C, symBinAddr: 0x4228C, symSize: 0x4 }
  - { offsetInCU: 0x456DB, offset: 0x1E2649, size: 0x8, addend: 0x0, symName: __ZN23llm_graph_input_out_idsD0Ev, symObjAddr: 0x6A70, symBinAddr: 0x42290, symSize: 0x4 }
  - { offsetInCU: 0x456FB, offset: 0x1E2669, size: 0x8, addend: 0x0, symName: __ZN20llm_graph_input_meanD1Ev, symObjAddr: 0x6A74, symBinAddr: 0x42294, symSize: 0x4 }
  - { offsetInCU: 0x45724, offset: 0x1E2692, size: 0x8, addend: 0x0, symName: __ZN20llm_graph_input_meanD0Ev, symObjAddr: 0x6A78, symBinAddr: 0x42298, symSize: 0x4 }
  - { offsetInCU: 0x45744, offset: 0x1E26B2, size: 0x8, addend: 0x0, symName: __ZN19llm_graph_input_clsD1Ev, symObjAddr: 0x6A7C, symBinAddr: 0x4229C, symSize: 0x4 }
  - { offsetInCU: 0x4576D, offset: 0x1E26DB, size: 0x8, addend: 0x0, symName: __ZN19llm_graph_input_clsD0Ev, symObjAddr: 0x6A80, symBinAddr: 0x422A0, symSize: 0x4 }
  - { offsetInCU: 0x4578D, offset: 0x1E26FB, size: 0x8, addend: 0x0, symName: __ZN18llm_graph_input_rsD1Ev, symObjAddr: 0x6A84, symBinAddr: 0x422A4, symSize: 0x4 }
  - { offsetInCU: 0x457B6, offset: 0x1E2724, size: 0x8, addend: 0x0, symName: __ZN18llm_graph_input_rsD0Ev, symObjAddr: 0x6A88, symBinAddr: 0x422A8, symSize: 0x4 }
  - { offsetInCU: 0x457DF, offset: 0x1E274D, size: 0x8, addend: 0x0, symName: __ZN26llm_graph_input_cross_embdD1Ev, symObjAddr: 0x6A8C, symBinAddr: 0x422AC, symSize: 0x4 }
  - { offsetInCU: 0x45808, offset: 0x1E2776, size: 0x8, addend: 0x0, symName: __ZN26llm_graph_input_cross_embdD0Ev, symObjAddr: 0x6A90, symBinAddr: 0x422B0, symSize: 0x4 }
  - { offsetInCU: 0x45828, offset: 0x1E2796, size: 0x8, addend: 0x0, symName: __ZN29llm_graph_input_attn_no_cacheD1Ev, symObjAddr: 0x6A94, symBinAddr: 0x422B4, symSize: 0x4 }
  - { offsetInCU: 0x45851, offset: 0x1E27BF, size: 0x8, addend: 0x0, symName: __ZN29llm_graph_input_attn_no_cacheD0Ev, symObjAddr: 0x6A98, symBinAddr: 0x422B8, symSize: 0x4 }
  - { offsetInCU: 0x45871, offset: 0x1E27DF, size: 0x8, addend: 0x0, symName: __ZN31llm_graph_input_attn_kv_unifiedD1Ev, symObjAddr: 0x6A9C, symBinAddr: 0x422BC, symSize: 0x4 }
  - { offsetInCU: 0x4589A, offset: 0x1E2808, size: 0x8, addend: 0x0, symName: __ZN31llm_graph_input_attn_kv_unifiedD0Ev, symObjAddr: 0x6AA0, symBinAddr: 0x422C0, symSize: 0x4 }
  - { offsetInCU: 0x458C3, offset: 0x1E2831, size: 0x8, addend: 0x0, symName: __ZN36llm_graph_input_attn_kv_unified_iswaD1Ev, symObjAddr: 0x6AA4, symBinAddr: 0x422C4, symSize: 0x4 }
  - { offsetInCU: 0x458EC, offset: 0x1E285A, size: 0x8, addend: 0x0, symName: __ZN36llm_graph_input_attn_kv_unified_iswaD0Ev, symObjAddr: 0x6AA8, symBinAddr: 0x422C8, symSize: 0x4 }
  - { offsetInCU: 0x4590C, offset: 0x1E287A, size: 0x8, addend: 0x0, symName: __ZN26llm_graph_input_attn_crossD1Ev, symObjAddr: 0x6AAC, symBinAddr: 0x422CC, symSize: 0x4 }
  - { offsetInCU: 0x45935, offset: 0x1E28A3, size: 0x8, addend: 0x0, symName: __ZN26llm_graph_input_attn_crossD0Ev, symObjAddr: 0x6AB0, symBinAddr: 0x422D0, symSize: 0x4 }
  - { offsetInCU: 0x4596F, offset: 0x1E28DD, size: 0x8, addend: 0x0, symName: __ZN26llm_graph_input_mem_hybridD1Ev, symObjAddr: 0x6AB4, symBinAddr: 0x422D4, symSize: 0x5C }
  - { offsetInCU: 0x45B00, offset: 0x1E2A6E, size: 0x8, addend: 0x0, symName: __ZN26llm_graph_input_mem_hybridD0Ev, symObjAddr: 0x6B10, symBinAddr: 0x42330, symSize: 0x5C }
  - { offsetInCU: 0x45C9D, offset: 0x1E2C0B, size: 0x8, addend: 0x0, symName: __ZN20llm_graph_input_embdD1Ev, symObjAddr: 0x6B6C, symBinAddr: 0x4238C, symSize: 0x4 }
  - { offsetInCU: 0x45CC6, offset: 0x1E2C34, size: 0x8, addend: 0x0, symName: __ZN20llm_graph_input_embdD0Ev, symObjAddr: 0x6B70, symBinAddr: 0x42390, symSize: 0x4 }
  - { offsetInCU: 0x45CE6, offset: 0x1E2C54, size: 0x8, addend: 0x0, symName: __ZN16llm_graph_resultD1Ev, symObjAddr: 0x6B74, symBinAddr: 0x42394, symSize: 0x4 }
  - { offsetInCU: 0x45D09, offset: 0x1E2C77, size: 0x8, addend: 0x0, symName: __ZN16llm_graph_resultD1Ev, symObjAddr: 0x6B74, symBinAddr: 0x42394, symSize: 0x4 }
  - { offsetInCU: 0x45D1C, offset: 0x1E2C8A, size: 0x8, addend: 0x0, symName: __ZN16llm_graph_resultD2Ev, symObjAddr: 0x7064, symBinAddr: 0x427C8, symSize: 0x10C }
  - { offsetInCU: 0x46303, offset: 0x1E3271, size: 0x8, addend: 0x0, symName: __ZN16llm_graph_resultD0Ev, symObjAddr: 0x6B78, symBinAddr: 0x42398, symSize: 0x14 }
  - { offsetInCU: 0x4635E, offset: 0x1E32CC, size: 0x8, addend: 0x0, symName: __ZN17llm_graph_contextD1Ev, symObjAddr: 0x6B8C, symBinAddr: 0x423AC, symSize: 0x4 }
  - { offsetInCU: 0x46387, offset: 0x1E32F5, size: 0x8, addend: 0x0, symName: __ZN17llm_graph_contextD0Ev, symObjAddr: 0x6B90, symBinAddr: 0x423B0, symSize: 0x4 }
  - { offsetInCU: 0x465DC, offset: 0x1E354A, size: 0x8, addend: 0x0, symName: __ZNKSt3__16vectorINS_10unique_ptrI17llm_graph_input_iNS_14default_deleteIS2_EEEENS_9allocatorIS5_EEE20__throw_length_errorB8ue170006Ev, symObjAddr: 0x6F10, symBinAddr: 0x42674, symSize: 0x14 }
  - { offsetInCU: 0x46606, offset: 0x1E3574, size: 0x8, addend: 0x0, symName: __ZNSt3__125__throw_bad_function_callB8ue170006Ev, symObjAddr: 0x6F24, symBinAddr: 0x42688, symSize: 0x34 }
  - { offsetInCU: 0x4666D, offset: 0x1E35DB, size: 0x8, addend: 0x0, symName: __ZNSt3__117bad_function_callD1Ev, symObjAddr: 0x6F58, symBinAddr: 0x426BC, symSize: 0x4 }
  - { offsetInCU: 0x4668F, offset: 0x1E35FD, size: 0x8, addend: 0x0, symName: __ZNSt3__117bad_function_callD1Ev, symObjAddr: 0x6F58, symBinAddr: 0x426BC, symSize: 0x4 }
  - { offsetInCU: 0x466C4, offset: 0x1E3632, size: 0x8, addend: 0x0, symName: __ZNSt3__117bad_function_callD0Ev, symObjAddr: 0x6F5C, symBinAddr: 0x426C0, symSize: 0x14 }
  - { offsetInCU: 0x46727, offset: 0x1E3695, size: 0x8, addend: 0x0, symName: __ZNSt3__110__function6__funcIPFP11ggml_tensorP12ggml_contextS3_S3_ENS_9allocatorIS7_EES6_ED1Ev, symObjAddr: 0x6F70, symBinAddr: 0x426D4, symSize: 0x4 }
  - { offsetInCU: 0x46753, offset: 0x1E36C1, size: 0x8, addend: 0x0, symName: __ZNSt3__110__function6__funcIPFP11ggml_tensorP12ggml_contextS3_S3_ENS_9allocatorIS7_EES6_ED0Ev, symObjAddr: 0x6F74, symBinAddr: 0x426D8, symSize: 0x4 }
  - { offsetInCU: 0x46957, offset: 0x1E38C5, size: 0x8, addend: 0x0, symName: __ZNKSt3__110__function6__funcIPFP11ggml_tensorP12ggml_contextS3_S3_ENS_9allocatorIS7_EES6_E7__cloneEv, symObjAddr: 0x6F78, symBinAddr: 0x426DC, symSize: 0x38 }
  - { offsetInCU: 0x46C54, offset: 0x1E3BC2, size: 0x8, addend: 0x0, symName: __ZNKSt3__110__function6__funcIPFP11ggml_tensorP12ggml_contextS3_S3_ENS_9allocatorIS7_EES6_E7__cloneEPNS0_6__baseIS6_EE, symObjAddr: 0x6FB0, symBinAddr: 0x42714, symSize: 0x18 }
  - { offsetInCU: 0x46C8D, offset: 0x1E3BFB, size: 0x8, addend: 0x0, symName: __ZNKSt3__110__function6__funcIPFP11ggml_tensorP12ggml_contextS3_S3_ENS_9allocatorIS7_EES6_E7__cloneEPNS0_6__baseIS6_EE, symObjAddr: 0x6FB0, symBinAddr: 0x42714, symSize: 0x18 }
  - { offsetInCU: 0x46CBB, offset: 0x1E3C29, size: 0x8, addend: 0x0, symName: __ZNKSt3__110__function6__funcIPFP11ggml_tensorP12ggml_contextS3_S3_ENS_9allocatorIS7_EES6_E7__cloneEPNS0_6__baseIS6_EE, symObjAddr: 0x6FB0, symBinAddr: 0x42714, symSize: 0x18 }
  - { offsetInCU: 0x46D55, offset: 0x1E3CC3, size: 0x8, addend: 0x0, symName: __ZNSt3__110__function6__funcIPFP11ggml_tensorP12ggml_contextS3_S3_ENS_9allocatorIS7_EES6_E7destroyEv, symObjAddr: 0x6FC8, symBinAddr: 0x4272C, symSize: 0x4 }
  - { offsetInCU: 0x46DA8, offset: 0x1E3D16, size: 0x8, addend: 0x0, symName: __ZNSt3__110__function6__funcIPFP11ggml_tensorP12ggml_contextS3_S3_ENS_9allocatorIS7_EES6_E18destroy_deallocateEv, symObjAddr: 0x6FCC, symBinAddr: 0x42730, symSize: 0x4 }
  - { offsetInCU: 0x46DDE, offset: 0x1E3D4C, size: 0x8, addend: 0x0, symName: __ZNSt3__110__function6__funcIPFP11ggml_tensorP12ggml_contextS3_S3_ENS_9allocatorIS7_EES6_E18destroy_deallocateEv, symObjAddr: 0x6FCC, symBinAddr: 0x42730, symSize: 0x4 }
  - { offsetInCU: 0x46E00, offset: 0x1E3D6E, size: 0x8, addend: 0x0, symName: __ZNSt3__110__function6__funcIPFP11ggml_tensorP12ggml_contextS3_S3_ENS_9allocatorIS7_EES6_E18destroy_deallocateEv, symObjAddr: 0x6FCC, symBinAddr: 0x42730, symSize: 0x4 }
  - { offsetInCU: 0x46E2E, offset: 0x1E3D9C, size: 0x8, addend: 0x0, symName: __ZNSt3__110__function6__funcIPFP11ggml_tensorP12ggml_contextS3_S3_ENS_9allocatorIS7_EES6_E18destroy_deallocateEv, symObjAddr: 0x6FCC, symBinAddr: 0x42730, symSize: 0x4 }
  - { offsetInCU: 0x46E54, offset: 0x1E3DC2, size: 0x8, addend: 0x0, symName: __ZNSt3__110__function6__funcIPFP11ggml_tensorP12ggml_contextS3_S3_ENS_9allocatorIS7_EES6_E18destroy_deallocateEv, symObjAddr: 0x6FCC, symBinAddr: 0x42730, symSize: 0x4 }
  - { offsetInCU: 0x46F06, offset: 0x1E3E74, size: 0x8, addend: 0x0, symName: __ZNSt3__110__function6__funcIPFP11ggml_tensorP12ggml_contextS3_S3_ENS_9allocatorIS7_EES6_EclEOS5_OS3_SC_, symObjAddr: 0x6FD0, symBinAddr: 0x42734, symSize: 0x14 }
  - { offsetInCU: 0x46F61, offset: 0x1E3ECF, size: 0x8, addend: 0x0, symName: __ZNSt3__110__function6__funcIPFP11ggml_tensorP12ggml_contextS3_S3_ENS_9allocatorIS7_EES6_EclEOS5_OS3_SC_, symObjAddr: 0x6FD0, symBinAddr: 0x42734, symSize: 0x14 }
  - { offsetInCU: 0x46F97, offset: 0x1E3F05, size: 0x8, addend: 0x0, symName: __ZNSt3__110__function6__funcIPFP11ggml_tensorP12ggml_contextS3_S3_ENS_9allocatorIS7_EES6_EclEOS5_OS3_SC_, symObjAddr: 0x6FD0, symBinAddr: 0x42734, symSize: 0x14 }
  - { offsetInCU: 0x46FCF, offset: 0x1E3F3D, size: 0x8, addend: 0x0, symName: __ZNSt3__110__function6__funcIPFP11ggml_tensorP12ggml_contextS3_S3_ENS_9allocatorIS7_EES6_EclEOS5_OS3_SC_, symObjAddr: 0x6FD0, symBinAddr: 0x42734, symSize: 0x14 }
  - { offsetInCU: 0x4706C, offset: 0x1E3FDA, size: 0x8, addend: 0x0, symName: __ZNKSt3__110__function6__funcIPFP11ggml_tensorP12ggml_contextS3_S3_ENS_9allocatorIS7_EES6_E6targetERKSt9type_info, symObjAddr: 0x6FE4, symBinAddr: 0x42748, symSize: 0x74 }
  - { offsetInCU: 0x470F1, offset: 0x1E405F, size: 0x8, addend: 0x0, symName: __ZNKSt3__110__function6__funcIPFP11ggml_tensorP12ggml_contextS3_S3_ENS_9allocatorIS7_EES6_E11target_typeEv, symObjAddr: 0x7058, symBinAddr: 0x427BC, symSize: 0xC }
  - { offsetInCU: 0x26, offset: 0x1E419E, size: 0x8, addend: 0x0, symName: __ZN13llama_hparams15set_swa_patternEjb, symObjAddr: 0x0, symBinAddr: 0x428D4, symSize: 0x604 }
  - { offsetInCU: 0x3437, offset: 0x1E75AF, size: 0x8, addend: 0x0, symName: __ZN13llama_hparams15set_swa_patternEjb, symObjAddr: 0x0, symBinAddr: 0x428D4, symSize: 0x604 }
  - { offsetInCU: 0x34D2, offset: 0x1E764A, size: 0x8, addend: 0x0, symName: __ZNK13llama_hparams10is_swa_anyEv, symObjAddr: 0x604, symBinAddr: 0x42ED8, symSize: 0x64 }
  - { offsetInCU: 0x3535, offset: 0x1E76AD, size: 0x8, addend: 0x0, symName: __ZNK13llama_hparams6n_headEj, symObjAddr: 0x668, symBinAddr: 0x42F3C, symSize: 0x3C }
  - { offsetInCU: 0x3563, offset: 0x1E76DB, size: 0x8, addend: 0x0, symName: __ZNK13llama_hparams9n_head_kvEj, symObjAddr: 0x6A4, symBinAddr: 0x42F78, symSize: 0x3C }
  - { offsetInCU: 0x358E, offset: 0x1E7706, size: 0x8, addend: 0x0, symName: __ZNK13llama_hparams9n_head_kvEj, symObjAddr: 0x6A4, symBinAddr: 0x42F78, symSize: 0x3C }
  - { offsetInCU: 0x35BC, offset: 0x1E7734, size: 0x8, addend: 0x0, symName: __ZNK13llama_hparams4n_ffEj, symObjAddr: 0x6E0, symBinAddr: 0x42FB4, symSize: 0x3C }
  - { offsetInCU: 0x35CD, offset: 0x1E7745, size: 0x8, addend: 0x0, symName: __ZNK13llama_hparams4n_ffEj, symObjAddr: 0x6E0, symBinAddr: 0x42FB4, symSize: 0x3C }
  - { offsetInCU: 0x3609, offset: 0x1E7781, size: 0x8, addend: 0x0, symName: __ZNK13llama_hparams5n_gqaEj, symObjAddr: 0x71C, symBinAddr: 0x42FF0, symSize: 0x5C }
  - { offsetInCU: 0x3665, offset: 0x1E77DD, size: 0x8, addend: 0x0, symName: __ZNK13llama_hparams5n_gqaEj, symObjAddr: 0x71C, symBinAddr: 0x42FF0, symSize: 0x5C }
  - { offsetInCU: 0x3705, offset: 0x1E787D, size: 0x8, addend: 0x0, symName: __ZNK13llama_hparams12n_embd_k_gqaEj, symObjAddr: 0x778, symBinAddr: 0x4304C, symSize: 0x44 }
  - { offsetInCU: 0x3716, offset: 0x1E788E, size: 0x8, addend: 0x0, symName: __ZNK13llama_hparams12n_embd_k_gqaEj, symObjAddr: 0x778, symBinAddr: 0x4304C, symSize: 0x44 }
  - { offsetInCU: 0x376D, offset: 0x1E78E5, size: 0x8, addend: 0x0, symName: __ZNK13llama_hparams12n_embd_v_gqaEj, symObjAddr: 0x7BC, symBinAddr: 0x43090, symSize: 0x44 }
  - { offsetInCU: 0x377E, offset: 0x1E78F6, size: 0x8, addend: 0x0, symName: __ZNK13llama_hparams12n_embd_v_gqaEj, symObjAddr: 0x7BC, symBinAddr: 0x43090, symSize: 0x44 }
  - { offsetInCU: 0x37D5, offset: 0x1E794D, size: 0x8, addend: 0x0, symName: __ZNK13llama_hparams24is_n_embd_k_gqa_variableEv, symObjAddr: 0x800, symBinAddr: 0x430D4, symSize: 0x80 }
  - { offsetInCU: 0x3819, offset: 0x1E7991, size: 0x8, addend: 0x0, symName: __ZNK13llama_hparams24is_n_embd_k_gqa_variableEv, symObjAddr: 0x800, symBinAddr: 0x430D4, symSize: 0x80 }
  - { offsetInCU: 0x38E8, offset: 0x1E7A60, size: 0x8, addend: 0x0, symName: __ZNK13llama_hparams24is_n_embd_v_gqa_variableEv, symObjAddr: 0x880, symBinAddr: 0x43154, symSize: 0x80 }
  - { offsetInCU: 0x3927, offset: 0x1E7A9F, size: 0x8, addend: 0x0, symName: __ZNK13llama_hparams24is_n_embd_v_gqa_variableEv, symObjAddr: 0x880, symBinAddr: 0x43154, symSize: 0x80 }
  - { offsetInCU: 0x39F6, offset: 0x1E7B6E, size: 0x8, addend: 0x0, symName: __ZNK13llama_hparams16n_embd_k_gqa_maxEv, symObjAddr: 0x900, symBinAddr: 0x431D4, symSize: 0xE0 }
  - { offsetInCU: 0x3A07, offset: 0x1E7B7F, size: 0x8, addend: 0x0, symName: __ZNK13llama_hparams16n_embd_k_gqa_maxEv, symObjAddr: 0x900, symBinAddr: 0x431D4, symSize: 0xE0 }
  - { offsetInCU: 0x3ADC, offset: 0x1E7C54, size: 0x8, addend: 0x0, symName: __ZNK13llama_hparams16n_embd_v_gqa_maxEv, symObjAddr: 0x9E0, symBinAddr: 0x432B4, symSize: 0xE0 }
  - { offsetInCU: 0x3AED, offset: 0x1E7C65, size: 0x8, addend: 0x0, symName: __ZNK13llama_hparams16n_embd_v_gqa_maxEv, symObjAddr: 0x9E0, symBinAddr: 0x432B4, symSize: 0xE0 }
  - { offsetInCU: 0x3BC2, offset: 0x1E7D3A, size: 0x8, addend: 0x0, symName: __ZNK13llama_hparams8n_embd_rEv, symObjAddr: 0xAC0, symBinAddr: 0x43394, symSize: 0x5C }
  - { offsetInCU: 0x3BD3, offset: 0x1E7D4B, size: 0x8, addend: 0x0, symName: __ZNK13llama_hparams8n_embd_rEv, symObjAddr: 0xAC0, symBinAddr: 0x43394, symSize: 0x5C }
  - { offsetInCU: 0x3BFC, offset: 0x1E7D74, size: 0x8, addend: 0x0, symName: __ZNK13llama_hparams8n_embd_sEv, symObjAddr: 0xB1C, symBinAddr: 0x433F0, symSize: 0x30 }
  - { offsetInCU: 0x3C25, offset: 0x1E7D9D, size: 0x8, addend: 0x0, symName: __ZNK13llama_hparams12is_recurrentEj, symObjAddr: 0xB4C, symBinAddr: 0x43420, symSize: 0x10 }
  - { offsetInCU: 0x3C5C, offset: 0x1E7DD4, size: 0x8, addend: 0x0, symName: __ZNK13llama_hparams14n_pos_per_embdEv, symObjAddr: 0xB5C, symBinAddr: 0x43430, symSize: 0x14 }
  - { offsetInCU: 0x3C85, offset: 0x1E7DFD, size: 0x8, addend: 0x0, symName: __ZNK13llama_hparams6is_swaEj, symObjAddr: 0xB70, symBinAddr: 0x43444, symSize: 0x40 }
  - { offsetInCU: 0x52, offset: 0x1E7EA2, size: 0x8, addend: 0x0, symName: __ZL14g_logger_state.0, symObjAddr: 0x1680, symBinAddr: 0x2643A0, symSize: 0x0 }
  - { offsetInCU: 0x5D, offset: 0x1E7EAD, size: 0x8, addend: 0x0, symName: __ZL14g_logger_state.1, symObjAddr: 0x32150, symBinAddr: 0x2D9320, symSize: 0x0 }
  - { offsetInCU: 0x94DD, offset: 0x1F132D, size: 0x8, addend: 0x0, symName: __ZN9time_measC2ERxb, symObjAddr: 0x0, symBinAddr: 0x43484, symSize: 0x48 }
  - { offsetInCU: 0x9563, offset: 0x1F13B3, size: 0x8, addend: 0x0, symName: __ZN9time_measC1ERxb, symObjAddr: 0x48, symBinAddr: 0x434CC, symSize: 0x48 }
  - { offsetInCU: 0x95E7, offset: 0x1F1437, size: 0x8, addend: 0x0, symName: __ZN9time_measD2Ev, symObjAddr: 0x90, symBinAddr: 0x43514, symSize: 0x44 }
  - { offsetInCU: 0x9633, offset: 0x1F1483, size: 0x8, addend: 0x0, symName: __ZN9time_measD1Ev, symObjAddr: 0xE0, symBinAddr: 0x43558, symSize: 0x44 }
  - { offsetInCU: 0x9685, offset: 0x1F14D5, size: 0x8, addend: 0x0, symName: _llama_log_set, symObjAddr: 0x124, symBinAddr: 0x4359C, symSize: 0x44 }
  - { offsetInCU: 0x96EB, offset: 0x1F153B, size: 0x8, addend: 0x0, symName: __Z26llama_log_callback_default14ggml_log_levelPKcPv, symObjAddr: 0x168, symBinAddr: 0x435E0, symSize: 0x30 }
  - { offsetInCU: 0x97D8, offset: 0x1F1628, size: 0x8, addend: 0x0, symName: __Z18llama_log_internal14ggml_log_levelPKcz, symObjAddr: 0x198, symBinAddr: 0x43610, symSize: 0xF8 }
  - { offsetInCU: 0x9B29, offset: 0x1F1979, size: 0x8, addend: 0x0, symName: __Z11replace_allRNSt3__112basic_stringIcNS_11char_traitsIcEENS_9allocatorIcEEEERKS5_S8_, symObjAddr: 0x290, symBinAddr: 0x43708, symSize: 0x1F8 }
  - { offsetInCU: 0xA504, offset: 0x1F2354, size: 0x8, addend: 0x0, symName: __Z6formatPKcz, symObjAddr: 0x488, symBinAddr: 0x43900, symSize: 0x14C }
  - { offsetInCU: 0xAD1C, offset: 0x1F2B6C, size: 0x8, addend: 0x0, symName: __Z25llama_format_tensor_shapeRKNSt3__16vectorIxNS_9allocatorIxEEEE, symObjAddr: 0x5D4, symBinAddr: 0x43A4C, symSize: 0x160 }
  - { offsetInCU: 0xB16A, offset: 0x1F2FBA, size: 0x8, addend: 0x0, symName: __ZNKSt3__16vectorIxNS_9allocatorIxEEE20__throw_out_of_rangeB8ue170006Ev, symObjAddr: 0x11A0, symBinAddr: 0x443DC, symSize: 0x14 }
  - { offsetInCU: 0xB1C2, offset: 0x1F3012, size: 0x8, addend: 0x0, symName: __Z25llama_format_tensor_shapePK11ggml_tensor, symObjAddr: 0x734, symBinAddr: 0x43BAC, symSize: 0x164 }
  - { offsetInCU: 0xB70E, offset: 0x1F355E, size: 0x8, addend: 0x0, symName: __Z14gguf_kv_to_strPK12gguf_contexti, symObjAddr: 0x898, symBinAddr: 0x43D10, symSize: 0x538 }
  - { offsetInCU: 0xD279, offset: 0x1F50C9, size: 0x8, addend: 0x0, symName: __ZL16gguf_data_to_str9gguf_typePKvi, symObjAddr: 0xEFC, symBinAddr: 0x44248, symSize: 0x194 }
  - { offsetInCU: 0x26, offset: 0x1F5CCD, size: 0x8, addend: 0x0, symName: __ZN16llama_io_write_i12write_stringERKNSt3__112basic_stringIcNS0_11char_traitsIcEENS0_9allocatorIcEEEE, symObjAddr: 0x0, symBinAddr: 0x443F0, symSize: 0x78 }
  - { offsetInCU: 0x4882, offset: 0x1FA529, size: 0x8, addend: 0x0, symName: __ZN16llama_io_write_i12write_stringERKNSt3__112basic_stringIcNS0_11char_traitsIcEENS0_9allocatorIcEEEE, symObjAddr: 0x0, symBinAddr: 0x443F0, symSize: 0x78 }
  - { offsetInCU: 0x4993, offset: 0x1FA63A, size: 0x8, addend: 0x0, symName: __ZN15llama_io_read_i11read_stringERNSt3__112basic_stringIcNS0_11char_traitsIcEENS0_9allocatorIcEEEE, symObjAddr: 0x78, symBinAddr: 0x44468, symSize: 0x60 }
  - { offsetInCU: 0x26, offset: 0x1FA6E5, size: 0x8, addend: 0x0, symName: __ZN27llama_kv_cache_unified_iswaC2ERK11llama_model9ggml_typeS3_bbbbjjjj, symObjAddr: 0x0, symBinAddr: 0x444C8, symSize: 0x330 }
  - { offsetInCU: 0x1DA2D, offset: 0x2180EC, size: 0x8, addend: 0x0, symName: __ZNSt3__111make_uniqueB8ue170006I35llama_kv_cache_unified_iswa_contextJP27llama_kv_cache_unified_iswaNS_6vectorIN22llama_kv_cache_unified9slot_infoENS_9allocatorIS6_EEEES9_NS4_I12llama_ubatchNS7_ISA_EEEEEEENS_11__unique_ifIT_E15__unique_singleEDpOT0_, symObjAddr: 0xCD0, symBinAddr: 0x45138, symSize: 0x26C }
  - { offsetInCU: 0x24B87, offset: 0x21F246, size: 0x8, addend: 0x0, symName: __ZN27llama_kv_cache_unified_iswaC1ERK11llama_model9ggml_typeS3_bbbbjjjj, symObjAddr: 0x330, symBinAddr: 0x447F8, symSize: 0xC }
  - { offsetInCU: 0x27545, offset: 0x221C04, size: 0x8, addend: 0x0, symName: __ZN27llama_kv_cache_unified_iswaC2ERK11llama_model9ggml_typeS3_bbbbjjjj, symObjAddr: 0x0, symBinAddr: 0x444C8, symSize: 0x330 }
  - { offsetInCU: 0x27D92, offset: 0x222451, size: 0x8, addend: 0x0, symName: __ZN27llama_kv_cache_unified_iswa5clearEb, symObjAddr: 0x33C, symBinAddr: 0x44804, symSize: 0x40 }
  - { offsetInCU: 0x27E30, offset: 0x2224EF, size: 0x8, addend: 0x0, symName: __ZN27llama_kv_cache_unified_iswa6seq_rmEiii, symObjAddr: 0x37C, symBinAddr: 0x44844, symSize: 0x6C }
  - { offsetInCU: 0x27F18, offset: 0x2225D7, size: 0x8, addend: 0x0, symName: __ZN27llama_kv_cache_unified_iswa6seq_cpEiiii, symObjAddr: 0x3E8, symBinAddr: 0x448B0, symSize: 0x68 }
  - { offsetInCU: 0x2800D, offset: 0x2226CC, size: 0x8, addend: 0x0, symName: __ZN27llama_kv_cache_unified_iswa8seq_keepEi, symObjAddr: 0x450, symBinAddr: 0x44918, symSize: 0x40 }
  - { offsetInCU: 0x280AB, offset: 0x22276A, size: 0x8, addend: 0x0, symName: __ZN27llama_kv_cache_unified_iswa7seq_addEiiii, symObjAddr: 0x490, symBinAddr: 0x44958, symSize: 0x68 }
  - { offsetInCU: 0x281A0, offset: 0x22285F, size: 0x8, addend: 0x0, symName: __ZN27llama_kv_cache_unified_iswa7seq_divEiiii, symObjAddr: 0x4F8, symBinAddr: 0x449C0, symSize: 0x68 }
  - { offsetInCU: 0x28295, offset: 0x222954, size: 0x8, addend: 0x0, symName: __ZNK27llama_kv_cache_unified_iswa11seq_pos_minEi, symObjAddr: 0x560, symBinAddr: 0x44A28, symSize: 0x10 }
  - { offsetInCU: 0x282CE, offset: 0x22298D, size: 0x8, addend: 0x0, symName: __ZNK27llama_kv_cache_unified_iswa11seq_pos_minEi, symObjAddr: 0x560, symBinAddr: 0x44A28, symSize: 0x10 }
  - { offsetInCU: 0x282FF, offset: 0x2229BE, size: 0x8, addend: 0x0, symName: __ZNK27llama_kv_cache_unified_iswa11seq_pos_maxEi, symObjAddr: 0x570, symBinAddr: 0x44A38, symSize: 0x10 }
  - { offsetInCU: 0x28338, offset: 0x2229F7, size: 0x8, addend: 0x0, symName: __ZNK27llama_kv_cache_unified_iswa11seq_pos_maxEi, symObjAddr: 0x570, symBinAddr: 0x44A38, symSize: 0x10 }
  - { offsetInCU: 0x28DB2, offset: 0x223471, size: 0x8, addend: 0x0, symName: __ZN27llama_kv_cache_unified_iswa10init_batchER18llama_batch_allocrjb, symObjAddr: 0x580, symBinAddr: 0x44A48, symSize: 0x6F0 }
  - { offsetInCU: 0x2B40E, offset: 0x225ACD, size: 0x8, addend: 0x0, symName: __ZNSt3__16vectorI12llama_ubatchNS_9allocatorIS1_EEE21__push_back_slow_pathIS1_EEvOT_, symObjAddr: 0x1F4C, symBinAddr: 0x4638C, symSize: 0x1E0 }
  - { offsetInCU: 0x2BA24, offset: 0x2260E3, size: 0x8, addend: 0x0, symName: __ZNKSt3__16vectorI12llama_ubatchNS_9allocatorIS1_EEE20__throw_length_errorB8ue170006Ev, symObjAddr: 0x212C, symBinAddr: 0x4656C, symSize: 0x14 }
  - { offsetInCU: 0x2BA38, offset: 0x2260F7, size: 0x8, addend: 0x0, symName: __ZNSt3__16vectorIN22llama_kv_cache_unified9slot_infoENS_9allocatorIS2_EEED1B8ue170006Ev, symObjAddr: 0xF3C, symBinAddr: 0x453A4, symSize: 0xC8 }
  - { offsetInCU: 0x2C07E, offset: 0x22673D, size: 0x8, addend: 0x0, symName: __ZNSt3__16vectorI12llama_ubatchNS_9allocatorIS1_EEED1B8ue170006Ev, symObjAddr: 0x1004, symBinAddr: 0x4546C, symSize: 0x98 }
  - { offsetInCU: 0x2C4C4, offset: 0x226B83, size: 0x8, addend: 0x0, symName: __ZN35llama_kv_cache_unified_iswa_contextC2EP27llama_kv_cache_unified_iswaNSt3__16vectorIN22llama_kv_cache_unified9slot_infoENS2_9allocatorIS5_EEEES8_NS3_I12llama_ubatchNS6_IS9_EEEE, symObjAddr: 0x1514, symBinAddr: 0x4597C, symSize: 0x440 }
  - { offsetInCU: 0x2DAAF, offset: 0x22816E, size: 0x8, addend: 0x0, symName: __ZN27llama_kv_cache_unified_iswa9init_fullEv, symObjAddr: 0x109C, symBinAddr: 0x45504, symSize: 0x54 }
  - { offsetInCU: 0x2DBAF, offset: 0x22826E, size: 0x8, addend: 0x0, symName: __ZN35llama_kv_cache_unified_iswa_contextC2EP27llama_kv_cache_unified_iswa, symObjAddr: 0x128C, symBinAddr: 0x456F4, symSize: 0x130 }
  - { offsetInCU: 0x2DEAC, offset: 0x22856B, size: 0x8, addend: 0x0, symName: __ZN27llama_kv_cache_unified_iswa11init_updateEP13llama_contextb, symObjAddr: 0x10F0, symBinAddr: 0x45558, symSize: 0x6C }
  - { offsetInCU: 0x2DFDF, offset: 0x22869E, size: 0x8, addend: 0x0, symName: __ZN35llama_kv_cache_unified_iswa_contextC2EP27llama_kv_cache_unified_iswaP13llama_contextb, symObjAddr: 0x13C0, symBinAddr: 0x45828, symSize: 0x150 }
  - { offsetInCU: 0x2E2D4, offset: 0x228993, size: 0x8, addend: 0x0, symName: __ZNK27llama_kv_cache_unified_iswa13get_can_shiftEv, symObjAddr: 0x115C, symBinAddr: 0x455C4, symSize: 0x38 }
  - { offsetInCU: 0x2E33B, offset: 0x2289FA, size: 0x8, addend: 0x0, symName: __ZNK27llama_kv_cache_unified_iswa11state_writeER16llama_io_write_ii, symObjAddr: 0x1194, symBinAddr: 0x455FC, symSize: 0x50 }
  - { offsetInCU: 0x2E3F6, offset: 0x228AB5, size: 0x8, addend: 0x0, symName: __ZN27llama_kv_cache_unified_iswa10state_readER15llama_io_read_ii, symObjAddr: 0x11E4, symBinAddr: 0x4564C, symSize: 0x50 }
  - { offsetInCU: 0x2E4C7, offset: 0x228B86, size: 0x8, addend: 0x0, symName: __ZNK27llama_kv_cache_unified_iswa8get_baseEv, symObjAddr: 0x1234, symBinAddr: 0x4569C, symSize: 0x8 }
  - { offsetInCU: 0x2E4EB, offset: 0x228BAA, size: 0x8, addend: 0x0, symName: __ZNK27llama_kv_cache_unified_iswa8get_baseEv, symObjAddr: 0x1234, symBinAddr: 0x4569C, symSize: 0x8 }
  - { offsetInCU: 0x2E508, offset: 0x228BC7, size: 0x8, addend: 0x0, symName: __ZNK27llama_kv_cache_unified_iswa7get_swaEv, symObjAddr: 0x123C, symBinAddr: 0x456A4, symSize: 0x8 }
  - { offsetInCU: 0x2E52C, offset: 0x228BEB, size: 0x8, addend: 0x0, symName: __ZNK27llama_kv_cache_unified_iswa7get_swaEv, symObjAddr: 0x123C, symBinAddr: 0x456A4, symSize: 0x8 }
  - { offsetInCU: 0x2E549, offset: 0x228C08, size: 0x8, addend: 0x0, symName: __ZN35llama_kv_cache_unified_iswa_contextC2E19llama_memory_status, symObjAddr: 0x1244, symBinAddr: 0x456AC, symSize: 0x24 }
  - { offsetInCU: 0x2E5AE, offset: 0x228C6D, size: 0x8, addend: 0x0, symName: __ZN35llama_kv_cache_unified_iswa_contextC1E19llama_memory_status, symObjAddr: 0x1268, symBinAddr: 0x456D0, symSize: 0x24 }
  - { offsetInCU: 0x2E5D7, offset: 0x228C96, size: 0x8, addend: 0x0, symName: __ZN35llama_kv_cache_unified_iswa_contextC1E19llama_memory_status, symObjAddr: 0x1268, symBinAddr: 0x456D0, symSize: 0x24 }
  - { offsetInCU: 0x2E729, offset: 0x228DE8, size: 0x8, addend: 0x0, symName: __ZN35llama_kv_cache_unified_iswa_contextC1EP27llama_kv_cache_unified_iswa, symObjAddr: 0x13BC, symBinAddr: 0x45824, symSize: 0x4 }
  - { offsetInCU: 0x2E753, offset: 0x228E12, size: 0x8, addend: 0x0, symName: __ZN35llama_kv_cache_unified_iswa_contextC1EP27llama_kv_cache_unified_iswa, symObjAddr: 0x13BC, symBinAddr: 0x45824, symSize: 0x4 }
  - { offsetInCU: 0x2E76D, offset: 0x228E2C, size: 0x8, addend: 0x0, symName: __ZN35llama_kv_cache_unified_iswa_contextC1EP27llama_kv_cache_unified_iswaP13llama_contextb, symObjAddr: 0x1510, symBinAddr: 0x45978, symSize: 0x4 }
  - { offsetInCU: 0x2E7AA, offset: 0x228E69, size: 0x8, addend: 0x0, symName: __ZN35llama_kv_cache_unified_iswa_contextC1EP27llama_kv_cache_unified_iswaP13llama_contextb, symObjAddr: 0x1510, symBinAddr: 0x45978, symSize: 0x4 }
  - { offsetInCU: 0x2E90D, offset: 0x228FCC, size: 0x8, addend: 0x0, symName: __ZNSt3__16vectorI12llama_ubatchNS_9allocatorIS1_EEEC2ERKS4_, symObjAddr: 0x21B4, symBinAddr: 0x46580, symSize: 0x100 }
  - { offsetInCU: 0x2ECE5, offset: 0x2293A4, size: 0x8, addend: 0x0, symName: __ZN35llama_kv_cache_unified_iswa_contextC1EP27llama_kv_cache_unified_iswaNSt3__16vectorIN22llama_kv_cache_unified9slot_infoENS2_9allocatorIS5_EEEES8_NS3_I12llama_ubatchNS6_IS9_EEEE, symObjAddr: 0x1954, symBinAddr: 0x45DBC, symSize: 0x4 }
  - { offsetInCU: 0x2ED27, offset: 0x2293E6, size: 0x8, addend: 0x0, symName: __ZN35llama_kv_cache_unified_iswa_contextC1EP27llama_kv_cache_unified_iswaNSt3__16vectorIN22llama_kv_cache_unified9slot_infoENS2_9allocatorIS5_EEEES8_NS3_I12llama_ubatchNS6_IS9_EEEE, symObjAddr: 0x1954, symBinAddr: 0x45DBC, symSize: 0x4 }
  - { offsetInCU: 0x2ED56, offset: 0x229415, size: 0x8, addend: 0x0, symName: __ZN35llama_kv_cache_unified_iswa_contextD2Ev, symObjAddr: 0x1958, symBinAddr: 0x45DC0, symSize: 0xD4 }
  - { offsetInCU: 0x2F116, offset: 0x2297D5, size: 0x8, addend: 0x0, symName: __ZN35llama_kv_cache_unified_iswa_contextD1Ev, symObjAddr: 0x1A2C, symBinAddr: 0x45E94, symSize: 0xD4 }
  - { offsetInCU: 0x2F4F3, offset: 0x229BB2, size: 0x8, addend: 0x0, symName: __ZN35llama_kv_cache_unified_iswa_contextD0Ev, symObjAddr: 0x1B00, symBinAddr: 0x45F68, symSize: 0xD4 }
  - { offsetInCU: 0x2F8F7, offset: 0x229FB6, size: 0x8, addend: 0x0, symName: __ZN35llama_kv_cache_unified_iswa_context4nextEv, symObjAddr: 0x1BD4, symBinAddr: 0x4603C, symSize: 0x70 }
  - { offsetInCU: 0x2F995, offset: 0x22A054, size: 0x8, addend: 0x0, symName: __ZN35llama_kv_cache_unified_iswa_context5applyEv, symObjAddr: 0x1C44, symBinAddr: 0x460AC, symSize: 0x44 }
  - { offsetInCU: 0x2FA26, offset: 0x22A0E5, size: 0x8, addend: 0x0, symName: __ZNK35llama_kv_cache_unified_iswa_context10get_statusEv, symObjAddr: 0x1C88, symBinAddr: 0x460F0, symSize: 0x8 }
  - { offsetInCU: 0x2FA74, offset: 0x22A133, size: 0x8, addend: 0x0, symName: __ZNK35llama_kv_cache_unified_iswa_context10get_ubatchEv, symObjAddr: 0x1C90, symBinAddr: 0x460F8, symSize: 0x10 }
  - { offsetInCU: 0x2FADA, offset: 0x22A199, size: 0x8, addend: 0x0, symName: __ZNK35llama_kv_cache_unified_iswa_context8get_baseEv, symObjAddr: 0x1CA0, symBinAddr: 0x46108, symSize: 0x8 }
  - { offsetInCU: 0x2FB06, offset: 0x22A1C5, size: 0x8, addend: 0x0, symName: __ZNK35llama_kv_cache_unified_iswa_context8get_baseEv, symObjAddr: 0x1CA0, symBinAddr: 0x46108, symSize: 0x8 }
  - { offsetInCU: 0x2FB23, offset: 0x22A1E2, size: 0x8, addend: 0x0, symName: __ZNK35llama_kv_cache_unified_iswa_context7get_swaEv, symObjAddr: 0x1CA8, symBinAddr: 0x46110, symSize: 0x8 }
  - { offsetInCU: 0x2FB4F, offset: 0x22A20E, size: 0x8, addend: 0x0, symName: __ZNK35llama_kv_cache_unified_iswa_context7get_swaEv, symObjAddr: 0x1CA8, symBinAddr: 0x46110, symSize: 0x8 }
  - { offsetInCU: 0x2FB86, offset: 0x22A245, size: 0x8, addend: 0x0, symName: __ZN27llama_kv_cache_unified_iswaD1Ev, symObjAddr: 0x1CB0, symBinAddr: 0x46118, symSize: 0x5C }
  - { offsetInCU: 0x2FD17, offset: 0x22A3D6, size: 0x8, addend: 0x0, symName: __ZN27llama_kv_cache_unified_iswaD0Ev, symObjAddr: 0x1D0C, symBinAddr: 0x46174, symSize: 0x5C }
  - { offsetInCU: 0x2FEB4, offset: 0x22A573, size: 0x8, addend: 0x0, symName: '__ZNSt3__110__function6__funcIZN27llama_kv_cache_unified_iswaC1ERK11llama_model9ggml_typeS6_bbbbjjjjE3$_0NS_9allocatorIS7_EEFbiEED1Ev', symObjAddr: 0x1D68, symBinAddr: 0x461D0, symSize: 0x4 }
  - { offsetInCU: 0x2FEE0, offset: 0x22A59F, size: 0x8, addend: 0x0, symName: '__ZNSt3__110__function6__funcIZN27llama_kv_cache_unified_iswaC1ERK11llama_model9ggml_typeS6_bbbbjjjjE3$_0NS_9allocatorIS7_EEFbiEED0Ev', symObjAddr: 0x1D6C, symBinAddr: 0x461D4, symSize: 0x4 }
  - { offsetInCU: 0x2FF96, offset: 0x22A655, size: 0x8, addend: 0x0, symName: '__ZNKSt3__110__function6__funcIZN27llama_kv_cache_unified_iswaC1ERK11llama_model9ggml_typeS6_bbbbjjjjE3$_0NS_9allocatorIS7_EEFbiEE7__cloneEv', symObjAddr: 0x1D70, symBinAddr: 0x461D8, symSize: 0x34 }
  - { offsetInCU: 0x300E4, offset: 0x22A7A3, size: 0x8, addend: 0x0, symName: '__ZNKSt3__110__function6__funcIZN27llama_kv_cache_unified_iswaC1ERK11llama_model9ggml_typeS6_bbbbjjjjE3$_0NS_9allocatorIS7_EEFbiEE7__cloneEPNS0_6__baseISA_EE', symObjAddr: 0x1DA4, symBinAddr: 0x4620C, symSize: 0x14 }
  - { offsetInCU: 0x30154, offset: 0x22A813, size: 0x8, addend: 0x0, symName: '__ZNSt3__110__function6__funcIZN27llama_kv_cache_unified_iswaC1ERK11llama_model9ggml_typeS6_bbbbjjjjE3$_0NS_9allocatorIS7_EEFbiEE7destroyEv', symObjAddr: 0x1DB8, symBinAddr: 0x46220, symSize: 0x4 }
  - { offsetInCU: 0x301A5, offset: 0x22A864, size: 0x8, addend: 0x0, symName: '__ZNSt3__110__function6__funcIZN27llama_kv_cache_unified_iswaC1ERK11llama_model9ggml_typeS6_bbbbjjjjE3$_0NS_9allocatorIS7_EEFbiEE18destroy_deallocateEv', symObjAddr: 0x1DBC, symBinAddr: 0x46224, symSize: 0x4 }
  - { offsetInCU: 0x301DA, offset: 0x22A899, size: 0x8, addend: 0x0, symName: '__ZNSt3__110__function6__funcIZN27llama_kv_cache_unified_iswaC1ERK11llama_model9ggml_typeS6_bbbbjjjjE3$_0NS_9allocatorIS7_EEFbiEE18destroy_deallocateEv', symObjAddr: 0x1DBC, symBinAddr: 0x46224, symSize: 0x4 }
  - { offsetInCU: 0x301FD, offset: 0x22A8BC, size: 0x8, addend: 0x0, symName: '__ZNSt3__110__function6__funcIZN27llama_kv_cache_unified_iswaC1ERK11llama_model9ggml_typeS6_bbbbjjjjE3$_0NS_9allocatorIS7_EEFbiEE18destroy_deallocateEv', symObjAddr: 0x1DBC, symBinAddr: 0x46224, symSize: 0x4 }
  - { offsetInCU: 0x3022A, offset: 0x22A8E9, size: 0x8, addend: 0x0, symName: '__ZNSt3__110__function6__funcIZN27llama_kv_cache_unified_iswaC1ERK11llama_model9ggml_typeS6_bbbbjjjjE3$_0NS_9allocatorIS7_EEFbiEE18destroy_deallocateEv', symObjAddr: 0x1DBC, symBinAddr: 0x46224, symSize: 0x4 }
  - { offsetInCU: 0x30250, offset: 0x22A90F, size: 0x8, addend: 0x0, symName: '__ZNSt3__110__function6__funcIZN27llama_kv_cache_unified_iswaC1ERK11llama_model9ggml_typeS6_bbbbjjjjE3$_0NS_9allocatorIS7_EEFbiEE18destroy_deallocateEv', symObjAddr: 0x1DBC, symBinAddr: 0x46224, symSize: 0x4 }
  - { offsetInCU: 0x302F5, offset: 0x22A9B4, size: 0x8, addend: 0x0, symName: '__ZNSt3__110__function6__funcIZN27llama_kv_cache_unified_iswaC1ERK11llama_model9ggml_typeS6_bbbbjjjjE3$_0NS_9allocatorIS7_EEFbiEEclEOi', symObjAddr: 0x1DC0, symBinAddr: 0x46228, symSize: 0x24 }
  - { offsetInCU: 0x303E9, offset: 0x22AAA8, size: 0x8, addend: 0x0, symName: '__ZNKSt3__110__function6__funcIZN27llama_kv_cache_unified_iswaC1ERK11llama_model9ggml_typeS6_bbbbjjjjE3$_0NS_9allocatorIS7_EEFbiEE6targetERKSt9type_info', symObjAddr: 0x1DE4, symBinAddr: 0x4624C, symSize: 0x60 }
  - { offsetInCU: 0x3046E, offset: 0x22AB2D, size: 0x8, addend: 0x0, symName: '__ZNKSt3__110__function6__funcIZN27llama_kv_cache_unified_iswaC1ERK11llama_model9ggml_typeS6_bbbbjjjjE3$_0NS_9allocatorIS7_EEFbiEE11target_typeEv', symObjAddr: 0x1E44, symBinAddr: 0x462AC, symSize: 0xC }
  - { offsetInCU: 0x30493, offset: 0x22AB52, size: 0x8, addend: 0x0, symName: '__ZNSt3__110__function6__funcIZN27llama_kv_cache_unified_iswaC1ERK11llama_model9ggml_typeS6_bbbbjjjjE3$_1NS_9allocatorIS7_EEFbiEED1Ev', symObjAddr: 0x1E78, symBinAddr: 0x462B8, symSize: 0x4 }
  - { offsetInCU: 0x304BF, offset: 0x22AB7E, size: 0x8, addend: 0x0, symName: '__ZNSt3__110__function6__funcIZN27llama_kv_cache_unified_iswaC1ERK11llama_model9ggml_typeS6_bbbbjjjjE3$_1NS_9allocatorIS7_EEFbiEED0Ev', symObjAddr: 0x1E7C, symBinAddr: 0x462BC, symSize: 0x4 }
  - { offsetInCU: 0x30575, offset: 0x22AC34, size: 0x8, addend: 0x0, symName: '__ZNKSt3__110__function6__funcIZN27llama_kv_cache_unified_iswaC1ERK11llama_model9ggml_typeS6_bbbbjjjjE3$_1NS_9allocatorIS7_EEFbiEE7__cloneEv', symObjAddr: 0x1E80, symBinAddr: 0x462C0, symSize: 0x34 }
  - { offsetInCU: 0x306C3, offset: 0x22AD82, size: 0x8, addend: 0x0, symName: '__ZNKSt3__110__function6__funcIZN27llama_kv_cache_unified_iswaC1ERK11llama_model9ggml_typeS6_bbbbjjjjE3$_1NS_9allocatorIS7_EEFbiEE7__cloneEPNS0_6__baseISA_EE', symObjAddr: 0x1EB4, symBinAddr: 0x462F4, symSize: 0x14 }
  - { offsetInCU: 0x30733, offset: 0x22ADF2, size: 0x8, addend: 0x0, symName: '__ZNSt3__110__function6__funcIZN27llama_kv_cache_unified_iswaC1ERK11llama_model9ggml_typeS6_bbbbjjjjE3$_1NS_9allocatorIS7_EEFbiEE7destroyEv', symObjAddr: 0x1EC8, symBinAddr: 0x46308, symSize: 0x4 }
  - { offsetInCU: 0x30784, offset: 0x22AE43, size: 0x8, addend: 0x0, symName: '__ZNSt3__110__function6__funcIZN27llama_kv_cache_unified_iswaC1ERK11llama_model9ggml_typeS6_bbbbjjjjE3$_1NS_9allocatorIS7_EEFbiEE18destroy_deallocateEv', symObjAddr: 0x1ECC, symBinAddr: 0x4630C, symSize: 0x4 }
  - { offsetInCU: 0x307B9, offset: 0x22AE78, size: 0x8, addend: 0x0, symName: '__ZNSt3__110__function6__funcIZN27llama_kv_cache_unified_iswaC1ERK11llama_model9ggml_typeS6_bbbbjjjjE3$_1NS_9allocatorIS7_EEFbiEE18destroy_deallocateEv', symObjAddr: 0x1ECC, symBinAddr: 0x4630C, symSize: 0x4 }
  - { offsetInCU: 0x307DC, offset: 0x22AE9B, size: 0x8, addend: 0x0, symName: '__ZNSt3__110__function6__funcIZN27llama_kv_cache_unified_iswaC1ERK11llama_model9ggml_typeS6_bbbbjjjjE3$_1NS_9allocatorIS7_EEFbiEE18destroy_deallocateEv', symObjAddr: 0x1ECC, symBinAddr: 0x4630C, symSize: 0x4 }
  - { offsetInCU: 0x30809, offset: 0x22AEC8, size: 0x8, addend: 0x0, symName: '__ZNSt3__110__function6__funcIZN27llama_kv_cache_unified_iswaC1ERK11llama_model9ggml_typeS6_bbbbjjjjE3$_1NS_9allocatorIS7_EEFbiEE18destroy_deallocateEv', symObjAddr: 0x1ECC, symBinAddr: 0x4630C, symSize: 0x4 }
  - { offsetInCU: 0x3082F, offset: 0x22AEEE, size: 0x8, addend: 0x0, symName: '__ZNSt3__110__function6__funcIZN27llama_kv_cache_unified_iswaC1ERK11llama_model9ggml_typeS6_bbbbjjjjE3$_1NS_9allocatorIS7_EEFbiEE18destroy_deallocateEv', symObjAddr: 0x1ECC, symBinAddr: 0x4630C, symSize: 0x4 }
  - { offsetInCU: 0x308D4, offset: 0x22AF93, size: 0x8, addend: 0x0, symName: '__ZNSt3__110__function6__funcIZN27llama_kv_cache_unified_iswaC1ERK11llama_model9ggml_typeS6_bbbbjjjjE3$_1NS_9allocatorIS7_EEFbiEEclEOi', symObjAddr: 0x1ED0, symBinAddr: 0x46310, symSize: 0x10 }
  - { offsetInCU: 0x3096C, offset: 0x22B02B, size: 0x8, addend: 0x0, symName: '__ZNKSt3__110__function6__funcIZN27llama_kv_cache_unified_iswaC1ERK11llama_model9ggml_typeS6_bbbbjjjjE3$_1NS_9allocatorIS7_EEFbiEE6targetERKSt9type_info', symObjAddr: 0x1EE0, symBinAddr: 0x46320, symSize: 0x60 }
  - { offsetInCU: 0x309F1, offset: 0x22B0B0, size: 0x8, addend: 0x0, symName: '__ZNKSt3__110__function6__funcIZN27llama_kv_cache_unified_iswaC1ERK11llama_model9ggml_typeS6_bbbbjjjjE3$_1NS_9allocatorIS7_EEFbiEE11target_typeEv', symObjAddr: 0x1F40, symBinAddr: 0x46380, symSize: 0xC }
  - { offsetInCU: 0x30C2D, offset: 0x22B2EC, size: 0x8, addend: 0x0, symName: __ZNKSt3__16vectorI12llama_ubatchNS_9allocatorIS1_EEE20__throw_length_errorB8ue170006Ev, symObjAddr: 0x212C, symBinAddr: 0x4656C, symSize: 0x14 }
  - { offsetInCU: 0x30F33, offset: 0x22B5F2, size: 0x8, addend: 0x0, symName: __ZNSt3__16vectorI12llama_ubatchNS_9allocatorIS1_EEEC2ERKS4_.cold.1, symObjAddr: 0x22B4, symBinAddr: 0x1FD200, symSize: 0x88 }
  - { offsetInCU: 0x301CC, offset: 0x25BB15, size: 0x8, addend: 0x0, symName: __ZNSt3__113__tree_removeB8ue170006IPNS_16__tree_node_baseIPvEEEEvT_S5_, symObjAddr: 0xBEC4, symBinAddr: 0x51DA4, symSize: 0x3C4 }
  - { offsetInCU: 0x3204E, offset: 0x25D997, size: 0x8, addend: 0x0, symName: __ZNSt3__135__uninitialized_allocator_copy_implB8ue170006INS_9allocatorINS_6vectorIjNS1_IjEEEEEEPS4_S6_S6_EET2_RT_T0_T1_S7_, symObjAddr: 0xC5A4, symBinAddr: 0x52484, symSize: 0xF4 }
  - { offsetInCU: 0x32856, offset: 0x25E19F, size: 0x8, addend: 0x0, symName: __ZNSt3__142__uninitialized_allocator_move_if_noexceptB8ue170006INS_9allocatorI22llama_kv_cells_unifiedEENS_16reverse_iteratorIPS2_EES6_S6_EET2_RT_T0_T1_S7_, symObjAddr: 0xD7E0, symBinAddr: 0x534B8, symSize: 0x14C }
  - { offsetInCU: 0x3A439, offset: 0x265D82, size: 0x8, addend: 0x0, symName: __ZN22llama_kv_cache_unified7prepareERKNSt3__16vectorI12llama_ubatchNS0_9allocatorIS2_EEEE, symObjAddr: 0x2FA0, symBinAddr: 0x495C0, symSize: 0x1460 }
  - { offsetInCU: 0x411C7, offset: 0x26CB10, size: 0x8, addend: 0x0, symName: __ZN22llama_kv_cache_unifiedC2ERK11llama_modelONSt3__18functionIFbiEEE9ggml_typeS8_bbbjjjj14llama_swa_type, symObjAddr: 0x0, symBinAddr: 0x46680, symSize: 0x11B4 }
  - { offsetInCU: 0x45F83, offset: 0x2718CC, size: 0x8, addend: 0x0, symName: __ZNSt3__16vectorIjNS_9allocatorIjEEE8__appendEm, symObjAddr: 0xD3D4, symBinAddr: 0x530C0, symSize: 0x1A4 }
  - { offsetInCU: 0x4640A, offset: 0x271D53, size: 0x8, addend: 0x0, symName: __ZNSt3__16vectorI22llama_kv_cells_unifiedNS_9allocatorIS1_EEE8__appendEm, symObjAddr: 0xD58C, symBinAddr: 0x53264, symSize: 0x1F0 }
  - { offsetInCU: 0x46AB8, offset: 0x272401, size: 0x8, addend: 0x0, symName: __ZN22llama_kv_cells_unifiedD2Ev, symObjAddr: 0xCAD0, symBinAddr: 0x529B0, symSize: 0x360 }
  - { offsetInCU: 0x47500, offset: 0x272E49, size: 0x8, addend: 0x0, symName: __ZN22llama_kv_cells_unified6resizeEj, symObjAddr: 0x11B4, symBinAddr: 0x47834, symSize: 0x13C }
  - { offsetInCU: 0x47976, offset: 0x2732BF, size: 0x8, addend: 0x0, symName: __ZNSt3__16vectorIjNS_9allocatorIjEEE8__appendEmRKj, symObjAddr: 0xD92C, symBinAddr: 0x53604, symSize: 0x268 }
  - { offsetInCU: 0x48364, offset: 0x273CAD, size: 0x8, addend: 0x0, symName: __ZNSt3__112__hash_tableINS_17__hash_value_typeIiiEENS_22__unordered_map_hasherIiS2_NS_4hashIiEENS_8equal_toIiEELb1EEENS_21__unordered_map_equalIiS2_S7_S5_Lb1EEENS_9allocatorIS2_EEE25__emplace_unique_key_argsIiJRKNS_21piecewise_construct_tENS_5tupleIJOiEEENSI_IJEEEEEENS_4pairINS_15__hash_iteratorIPNS_11__hash_nodeIS2_PvEEEEbEERKT_DpOT0_, symObjAddr: 0xDBA8, symBinAddr: 0x5386C, symSize: 0x314 }
  - { offsetInCU: 0x48A1B, offset: 0x274364, size: 0x8, addend: 0x0, symName: __ZNSt3__16vectorIN22llama_kv_cache_unified8kv_layerENS_9allocatorIS2_EEE21__push_back_slow_pathIS2_EEvOT_, symObjAddr: 0xE068, symBinAddr: 0x53D2C, symSize: 0x1EC }
  - { offsetInCU: 0x492D6, offset: 0x274C1F, size: 0x8, addend: 0x0, symName: __ZNKSt3__16vectorIN22llama_kv_cache_unified8kv_layerENS_9allocatorIS2_EEE20__throw_length_errorB8ue170006Ev, symObjAddr: 0xE254, symBinAddr: 0x53F18, symSize: 0x14 }
  - { offsetInCU: 0x4986E, offset: 0x2751B7, size: 0x8, addend: 0x0, symName: __ZNSt3__112__hash_tableINS_17__hash_value_typeIiiEENS_22__unordered_map_hasherIiS2_NS_4hashIiEENS_8equal_toIiEELb1EEENS_21__unordered_map_equalIiS2_S7_S5_Lb1EEENS_9allocatorIS2_EEE25__emplace_unique_key_argsIiJRKNS_21piecewise_construct_tENS_5tupleIJOiEEENSI_IJEEEEEENS_4pairINS_15__hash_iteratorIPNS_11__hash_nodeIS2_PvEEEEbEERKT_DpOT0_, symObjAddr: 0xDBA8, symBinAddr: 0x5386C, symSize: 0x314 }
  - { offsetInCU: 0x49879, offset: 0x2751C2, size: 0x8, addend: 0x0, symName: __ZN22llama_kv_cache_unified8kv_layerD1Ev, symObjAddr: 0x12F0, symBinAddr: 0x47970, symSize: 0x40 }
  - { offsetInCU: 0x49B3E, offset: 0x275487, size: 0x8, addend: 0x0, symName: __ZNSt3__113unordered_mapIiiNS_4hashIiEENS_8equal_toIiEENS_9allocatorINS_4pairIKiiEEEEED1B8ue170006Ev, symObjAddr: 0x13F8, symBinAddr: 0x47A78, symSize: 0x48 }
  - { offsetInCU: 0x49E15, offset: 0x27575E, size: 0x8, addend: 0x0, symName: __ZNSt3__16vectorIN22llama_kv_cache_unified8kv_layerENS_9allocatorIS2_EEED1B8ue170006Ev, symObjAddr: 0x1440, symBinAddr: 0x47AC0, symSize: 0x84 }
  - { offsetInCU: 0x4A27F, offset: 0x275BC8, size: 0x8, addend: 0x0, symName: __ZN22llama_kv_cache_unified16stream_copy_infoD1Ev, symObjAddr: 0x14C4, symBinAddr: 0x47B44, symSize: 0x40 }
  - { offsetInCU: 0x4A554, offset: 0x275E9D, size: 0x8, addend: 0x0, symName: __ZNSt3__16vectorI22llama_kv_cells_unifiedNS_9allocatorIS1_EEED1B8ue170006Ev, symObjAddr: 0x1504, symBinAddr: 0x47B84, symSize: 0x58 }
  - { offsetInCU: 0x4A710, offset: 0x276059, size: 0x8, addend: 0x0, symName: __ZNSt3__16vectorINS_10unique_ptrI19ggml_backend_buffer27ggml_backend_buffer_deleterEENS_9allocatorIS4_EEED1B8ue170006Ev, symObjAddr: 0x155C, symBinAddr: 0x47BDC, symSize: 0x70 }
  - { offsetInCU: 0x4A912, offset: 0x27625B, size: 0x8, addend: 0x0, symName: __ZNSt3__16vectorINS_10unique_ptrI12ggml_context20ggml_context_deleterEENS_9allocatorIS4_EEED1B8ue170006Ev, symObjAddr: 0x15CC, symBinAddr: 0x47C4C, symSize: 0x70 }
  - { offsetInCU: 0x4B053, offset: 0x27699C, size: 0x8, addend: 0x0, symName: __ZNSt3__16vectorINS_6bitsetILm64EEENS_9allocatorIS2_EEE8__appendEm, symObjAddr: 0xB924, symBinAddr: 0x51B7C, symSize: 0x1A8 }
  - { offsetInCU: 0x4B553, offset: 0x276E9C, size: 0x8, addend: 0x0, symName: __ZNSt3__16__treeIjNS_4lessIjEENS_9allocatorIjEEE7destroyEPNS_11__tree_nodeIjPvEE, symObjAddr: 0xBDD0, symBinAddr: 0x51D24, symSize: 0x40 }
  - { offsetInCU: 0x4B68D, offset: 0x276FD6, size: 0x8, addend: 0x0, symName: __ZNSt3__16__treeINS_12__value_typeIiiEENS_19__map_value_compareIiS2_NS_4lessIiEELb1EEENS_9allocatorIS2_EEE7destroyEPNS_11__tree_nodeIS2_PvEE, symObjAddr: 0xBE10, symBinAddr: 0x51D64, symSize: 0x40 }
  - { offsetInCU: 0x4B7C9, offset: 0x277112, size: 0x8, addend: 0x0, symName: __ZNK22llama_kv_cache_unified12size_k_bytesEv, symObjAddr: 0x1330, symBinAddr: 0x479B0, symSize: 0x64 }
  - { offsetInCU: 0x4B878, offset: 0x2771C1, size: 0x8, addend: 0x0, symName: __ZNK22llama_kv_cache_unified12size_v_bytesEv, symObjAddr: 0x1394, symBinAddr: 0x47A14, symSize: 0x64 }
  - { offsetInCU: 0x4C04A, offset: 0x277993, size: 0x8, addend: 0x0, symName: __ZN22llama_kv_cache_unifiedC1ERK11llama_modelONSt3__18functionIFbiEEE9ggml_typeS8_bbbjjjj14llama_swa_type, symObjAddr: 0x163C, symBinAddr: 0x47CBC, symSize: 0x1C }
  - { offsetInCU: 0x4C1CA, offset: 0x277B13, size: 0x8, addend: 0x0, symName: __ZN22llama_kv_cache_unified5clearEb, symObjAddr: 0x1658, symBinAddr: 0x47CD8, symSize: 0x120 }
  - { offsetInCU: 0x4C620, offset: 0x277F69, size: 0x8, addend: 0x0, symName: __ZN22llama_kv_cache_unified6seq_rmEiii, symObjAddr: 0x1778, symBinAddr: 0x47DF8, symSize: 0x1A0 }
  - { offsetInCU: 0x4C87F, offset: 0x2781C8, size: 0x8, addend: 0x0, symName: __ZN22llama_kv_cells_unified6seq_rmEji, symObjAddr: 0x1918, symBinAddr: 0x47F98, symSize: 0x210 }
  - { offsetInCU: 0x4C891, offset: 0x2781DA, size: 0x8, addend: 0x0, symName: __ZN22llama_kv_cells_unified6seq_rmEji, symObjAddr: 0x1918, symBinAddr: 0x47F98, symSize: 0x210 }
  - { offsetInCU: 0x4CF82, offset: 0x2788CB, size: 0x8, addend: 0x0, symName: __ZN22llama_kv_cache_unified6seq_cpEiiii, symObjAddr: 0x1B28, symBinAddr: 0x481A8, symSize: 0x6F0 }
  - { offsetInCU: 0x4DB40, offset: 0x279489, size: 0x8, addend: 0x0, symName: __ZN22llama_kv_cache_unified6seq_cpEiiii, symObjAddr: 0x1B28, symBinAddr: 0x481A8, symSize: 0x6F0 }
  - { offsetInCU: 0x4ED6F, offset: 0x27A6B8, size: 0x8, addend: 0x0, symName: __ZN22llama_kv_cells_unified7seq_addEji, symObjAddr: 0x2218, symBinAddr: 0x48898, symSize: 0x104 }
  - { offsetInCU: 0x4ED7A, offset: 0x27A6C3, size: 0x8, addend: 0x0, symName: __ZN22llama_kv_cells_unified7seq_addEji, symObjAddr: 0x2218, symBinAddr: 0x48898, symSize: 0x104 }
  - { offsetInCU: 0x4F13F, offset: 0x27AA88, size: 0x8, addend: 0x0, symName: __ZNK22llama_kv_cache_unified8get_sizeEv, symObjAddr: 0x231C, symBinAddr: 0x4899C, symSize: 0x24 }
  - { offsetInCU: 0x4F14A, offset: 0x27AA93, size: 0x8, addend: 0x0, symName: __ZN22llama_kv_cells_unified7pos_addEji, symObjAddr: 0x2340, symBinAddr: 0x489C0, symSize: 0x14C }
  - { offsetInCU: 0x4F5A8, offset: 0x27AEF1, size: 0x8, addend: 0x0, symName: __ZNSt3__16vectorI22llama_kv_cells_unifiedNS_9allocatorIS1_EEE8__appendEm, symObjAddr: 0xD58C, symBinAddr: 0x53264, symSize: 0x1F0 }
  - { offsetInCU: 0x4FA21, offset: 0x27B36A, size: 0x8, addend: 0x0, symName: __ZNK22llama_kv_cache_unified8get_sizeEv, symObjAddr: 0x231C, symBinAddr: 0x4899C, symSize: 0x24 }
  - { offsetInCU: 0x4FA4F, offset: 0x27B398, size: 0x8, addend: 0x0, symName: __ZNK22llama_kv_cache_unified8get_sizeEv, symObjAddr: 0x231C, symBinAddr: 0x4899C, symSize: 0x24 }
  - { offsetInCU: 0x4FAD8, offset: 0x27B421, size: 0x8, addend: 0x0, symName: __ZN22llama_kv_cells_unified10seq_pos_rmEj, symObjAddr: 0xC288, symBinAddr: 0x52168, symSize: 0x120 }
  - { offsetInCU: 0x4FE85, offset: 0x27B7CE, size: 0x8, addend: 0x0, symName: __ZN22llama_kv_cells_unified11seq_pos_addEj, symObjAddr: 0xC3A8, symBinAddr: 0x52288, symSize: 0x114 }
  - { offsetInCU: 0x501FF, offset: 0x27BB48, size: 0x8, addend: 0x0, symName: __ZN22llama_kv_cache_unified8seq_keepEi, symObjAddr: 0x248C, symBinAddr: 0x48B0C, symSize: 0xE8 }
  - { offsetInCU: 0x50319, offset: 0x27BC62, size: 0x8, addend: 0x0, symName: __ZN22llama_kv_cells_unified8seq_keepEji, symObjAddr: 0x2574, symBinAddr: 0x48BF4, symSize: 0x23C }
  - { offsetInCU: 0x5032B, offset: 0x27BC74, size: 0x8, addend: 0x0, symName: __ZN22llama_kv_cells_unified8seq_keepEji, symObjAddr: 0x2574, symBinAddr: 0x48BF4, symSize: 0x23C }
  - { offsetInCU: 0x50BAA, offset: 0x27C4F3, size: 0x8, addend: 0x0, symName: __ZN22llama_kv_cache_unified7seq_addEiiii, symObjAddr: 0x27B0, symBinAddr: 0x48E30, symSize: 0x1A4 }
  - { offsetInCU: 0x50BF9, offset: 0x27C542, size: 0x8, addend: 0x0, symName: __ZN22llama_kv_cache_unified7seq_addEiiii, symObjAddr: 0x27B0, symBinAddr: 0x48E30, symSize: 0x1A4 }
  - { offsetInCU: 0x50E0D, offset: 0x27C756, size: 0x8, addend: 0x0, symName: __ZN22llama_kv_cache_unified7seq_divEiiii, symObjAddr: 0x2954, symBinAddr: 0x48FD4, symSize: 0x1AC }
  - { offsetInCU: 0x50E57, offset: 0x27C7A0, size: 0x8, addend: 0x0, symName: __ZN22llama_kv_cache_unified7seq_divEiiii, symObjAddr: 0x2954, symBinAddr: 0x48FD4, symSize: 0x1AC }
  - { offsetInCU: 0x5108C, offset: 0x27C9D5, size: 0x8, addend: 0x0, symName: __ZNK22llama_kv_cache_unified11seq_pos_minEi, symObjAddr: 0x2B00, symBinAddr: 0x49180, symSize: 0x8C }
  - { offsetInCU: 0x51100, offset: 0x27CA49, size: 0x8, addend: 0x0, symName: __ZNK22llama_kv_cache_unified11seq_pos_minEi, symObjAddr: 0x2B00, symBinAddr: 0x49180, symSize: 0x8C }
  - { offsetInCU: 0x511F4, offset: 0x27CB3D, size: 0x8, addend: 0x0, symName: __ZNK22llama_kv_cache_unified11seq_pos_maxEi, symObjAddr: 0x2B8C, symBinAddr: 0x4920C, symSize: 0xB8 }
  - { offsetInCU: 0x5129A, offset: 0x27CBE3, size: 0x8, addend: 0x0, symName: __ZNK22llama_kv_cache_unified11seq_pos_maxEi, symObjAddr: 0x2B8C, symBinAddr: 0x4920C, symSize: 0xB8 }
  - { offsetInCU: 0x51426, offset: 0x27CD6F, size: 0x8, addend: 0x0, symName: __ZN22llama_kv_cache_unified10init_batchER18llama_batch_allocrjb, symObjAddr: 0x2C44, symBinAddr: 0x492C4, symSize: 0x2FC }
  - { offsetInCU: 0x51C0F, offset: 0x27D558, size: 0x8, addend: 0x0, symName: __ZN22llama_kv_cache_unified10init_batchER18llama_batch_allocrjb, symObjAddr: 0x2C44, symBinAddr: 0x492C4, symSize: 0x2FC }
  - { offsetInCU: 0x54CF9, offset: 0x280642, size: 0x8, addend: 0x0, symName: __ZNK22llama_kv_cache_unified9find_slotERK12llama_ubatchb, symObjAddr: 0x4CB4, symBinAddr: 0x4B174, symSize: 0xD14 }
  - { offsetInCU: 0x57296, offset: 0x282BDF, size: 0x8, addend: 0x0, symName: __ZNSt3__16vectorINS0_IjNS_9allocatorIjEEEENS1_IS3_EEEC2ERKS5_, symObjAddr: 0xC4BC, symBinAddr: 0x5239C, symSize: 0xD4 }
  - { offsetInCU: 0x57549, offset: 0x282E92, size: 0x8, addend: 0x0, symName: __ZNSt3__16vectorIN22llama_kv_cache_unified9slot_infoENS_9allocatorIS2_EEE21__push_back_slow_pathIRKS2_EEvOT_, symObjAddr: 0xE598, symBinAddr: 0x53F2C, symSize: 0x2D4 }
  - { offsetInCU: 0x5832B, offset: 0x283C74, size: 0x8, addend: 0x0, symName: __ZNSt3__16vectorI22llama_kv_cells_unifiedNS_9allocatorIS1_EEE21__push_back_slow_pathIS1_EEvOT_, symObjAddr: 0xE938, symBinAddr: 0x542CC, symSize: 0x24C }
  - { offsetInCU: 0x58A42, offset: 0x28438B, size: 0x8, addend: 0x0, symName: __ZZN22llama_kv_cache_unified7prepareERKNSt3__16vectorI12llama_ubatchNS0_9allocatorIS2_EEEEEN7state_tD1Ev, symObjAddr: 0x5A4C, symBinAddr: 0x4BF0C, symSize: 0xCC }
  - { offsetInCU: 0x591B9, offset: 0x284B02, size: 0x8, addend: 0x0, symName: __ZN22llama_kv_cache_unified12apply_ubatchERKNS_9slot_infoERK12llama_ubatch, symObjAddr: 0x5B18, symBinAddr: 0x4BFD8, symSize: 0xA60 }
  - { offsetInCU: 0x5A930, offset: 0x286279, size: 0x8, addend: 0x0, symName: __ZN22llama_kv_cells_unified3setERKNSt3__16vectorIjNS0_9allocatorIjEEEERKS_, symObjAddr: 0x6578, symBinAddr: 0x4CA38, symSize: 0x238 }
  - { offsetInCU: 0x5B02A, offset: 0x286973, size: 0x8, addend: 0x0, symName: __ZNKSt3__16vectorIZN22llama_kv_cache_unified7prepareERKNS0_I12llama_ubatchNS_9allocatorIS2_EEEEE7state_tNS3_IS8_EEE20__throw_length_errorB8ue170006Ev, symObjAddr: 0xEB84, symBinAddr: 0x54518, symSize: 0x14 }
  - { offsetInCU: 0x5B050, offset: 0x286999, size: 0x8, addend: 0x0, symName: __ZNKSt3__16vectorINS_4pairIjjEENS_9allocatorIS2_EEE20__throw_length_errorB8ue170006Ev, symObjAddr: 0xEB98, symBinAddr: 0x5452C, symSize: 0x14 }
  - { offsetInCU: 0x5B05B, offset: 0x2869A4, size: 0x8, addend: 0x0, symName: __ZN22llama_kv_cache_unified9slot_infoD1Ev, symObjAddr: 0x59C8, symBinAddr: 0x4BE88, symSize: 0x84 }
  - { offsetInCU: 0x5B4AA, offset: 0x286DF3, size: 0x8, addend: 0x0, symName: __ZNSt3__16vectorIZN22llama_kv_cache_unified7prepareERKNS0_I12llama_ubatchNS_9allocatorIS2_EEEEE7state_tNS3_IS8_EEED1B8ue170006Ev, symObjAddr: 0x67B0, symBinAddr: 0x4CC70, symSize: 0x58 }
  - { offsetInCU: 0x5B660, offset: 0x286FA9, size: 0x8, addend: 0x0, symName: __ZN22llama_kv_cache_unified9init_fullEv, symObjAddr: 0x4560, symBinAddr: 0x4AA20, symSize: 0x54 }
  - { offsetInCU: 0x5B761, offset: 0x2870AA, size: 0x8, addend: 0x0, symName: __ZN30llama_kv_cache_unified_contextC2EP22llama_kv_cache_unified, symObjAddr: 0xAACC, symBinAddr: 0x50F8C, symSize: 0x348 }
  - { offsetInCU: 0x5C47A, offset: 0x287DC3, size: 0x8, addend: 0x0, symName: __ZN22llama_kv_cache_unified11init_updateEP13llama_contextb, symObjAddr: 0x45B4, symBinAddr: 0x4AA74, symSize: 0x2B8 }
  - { offsetInCU: 0x5CB90, offset: 0x2884D9, size: 0x8, addend: 0x0, symName: __ZNK22llama_kv_cache_unified14defrag_prepareEi, symObjAddr: 0x494C, symBinAddr: 0x4AE0C, symSize: 0x368 }
  - { offsetInCU: 0x5D334, offset: 0x288C7D, size: 0x8, addend: 0x0, symName: __ZNK22llama_kv_cache_unified13get_has_shiftEv, symObjAddr: 0x486C, symBinAddr: 0x4AD2C, symSize: 0xE0 }
  - { offsetInCU: 0x5D83C, offset: 0x289185, size: 0x8, addend: 0x0, symName: __ZNSt3__16vectorINS0_IjNS_9allocatorIjEEEENS1_IS3_EEE8__appendEm, symObjAddr: 0xD1A4, symBinAddr: 0x52ED0, symSize: 0x1F0 }
  - { offsetInCU: 0x5E0AF, offset: 0x2899F8, size: 0x8, addend: 0x0, symName: __ZN22llama_kv_cache_unified6updateEP13llama_contextbRKNS_11defrag_infoERKNS_16stream_copy_infoE, symObjAddr: 0x6808, symBinAddr: 0x4CCC8, symSize: 0x3D0 }
  - { offsetInCU: 0x5E683, offset: 0x289FCC, size: 0x8, addend: 0x0, symName: __ZNK22llama_kv_cache_unified17build_graph_shiftEP16llm_graph_resultP13llama_context, symObjAddr: 0x6BD8, symBinAddr: 0x4D098, symSize: 0x294 }
  - { offsetInCU: 0x5E6C3, offset: 0x28A00C, size: 0x8, addend: 0x0, symName: __ZNK22llama_kv_cache_unified17build_graph_shiftEP16llm_graph_resultP13llama_context, symObjAddr: 0x6BD8, symBinAddr: 0x4D098, symSize: 0x294 }
  - { offsetInCU: 0x5EDD5, offset: 0x28A71E, size: 0x8, addend: 0x0, symName: __ZN22llama_kv_cells_unified2mvEjj, symObjAddr: 0x6E6C, symBinAddr: 0x4D32C, symSize: 0x1AC }
  - { offsetInCU: 0x5F472, offset: 0x28ADBB, size: 0x8, addend: 0x0, symName: __ZNK22llama_kv_cache_unified18build_graph_defragEP16llm_graph_resultP13llama_contextRKNS_11defrag_infoE, symObjAddr: 0x7018, symBinAddr: 0x4D4D8, symSize: 0x378 }
  - { offsetInCU: 0x5F920, offset: 0x28B269, size: 0x8, addend: 0x0, symName: __ZNK22llama_kv_cache_unified13is_masked_swaEii, symObjAddr: 0x7390, symBinAddr: 0x4D850, symSize: 0x50 }
  - { offsetInCU: 0x5FCA6, offset: 0x28B5EF, size: 0x8, addend: 0x0, symName: __ZNK22llama_kv_cache_unified16build_rope_shiftERK13llama_cparamsP12ggml_contextP11ggml_tensorS6_S6_ff, symObjAddr: 0x8D78, symBinAddr: 0x4F238, symSize: 0x158 }
  - { offsetInCU: 0x5FE9C, offset: 0x28B7E5, size: 0x8, addend: 0x0, symName: __ZNK22llama_kv_cache_unified13is_masked_swaEii, symObjAddr: 0x7390, symBinAddr: 0x4D850, symSize: 0x50 }
  - { offsetInCU: 0x5FEE4, offset: 0x28B82D, size: 0x8, addend: 0x0, symName: __ZNK22llama_kv_cache_unified13get_can_shiftEv, symObjAddr: 0x73E0, symBinAddr: 0x4D8A0, symSize: 0x8 }
  - { offsetInCU: 0x5FF0A, offset: 0x28B853, size: 0x8, addend: 0x0, symName: __ZNK22llama_kv_cache_unified12get_n_streamEv, symObjAddr: 0x73E8, symBinAddr: 0x4D8A8, symSize: 0x8 }
  - { offsetInCU: 0x5FF6A, offset: 0x28B8B3, size: 0x8, addend: 0x0, symName: __ZNK22llama_kv_cache_unified8get_n_kvEv, symObjAddr: 0x73F0, symBinAddr: 0x4D8B0, symSize: 0xAC }
  - { offsetInCU: 0x60136, offset: 0x28BA7F, size: 0x8, addend: 0x0, symName: __ZNK22llama_kv_cache_unified21get_supports_set_rowsEv, symObjAddr: 0x749C, symBinAddr: 0x4D95C, symSize: 0x8 }
  - { offsetInCU: 0x60232, offset: 0x28BB7B, size: 0x8, addend: 0x0, symName: __ZNK22llama_kv_cache_unified5get_kEP12ggml_contextijRKNS_9slot_infoE, symObjAddr: 0x74A4, symBinAddr: 0x4D964, symSize: 0x200 }
  - { offsetInCU: 0x605D3, offset: 0x28BF1C, size: 0x8, addend: 0x0, symName: __ZNK22llama_kv_cache_unified5get_vEP12ggml_contextijRKNS_9slot_infoE, symObjAddr: 0x76A4, symBinAddr: 0x4DB64, symSize: 0x294 }
  - { offsetInCU: 0x6061E, offset: 0x28BF67, size: 0x8, addend: 0x0, symName: __ZNK22llama_kv_cache_unified5get_vEP12ggml_contextijRKNS_9slot_infoE, symObjAddr: 0x76A4, symBinAddr: 0x4DB64, symSize: 0x294 }
  - { offsetInCU: 0x609D7, offset: 0x28C320, size: 0x8, addend: 0x0, symName: __ZNK22llama_kv_cache_unified5cpy_kEP12ggml_contextP11ggml_tensorS3_iRKNS_9slot_infoE, symObjAddr: 0x7938, symBinAddr: 0x4DDF8, symSize: 0x27C }
  - { offsetInCU: 0x609F8, offset: 0x28C341, size: 0x8, addend: 0x0, symName: __ZNK22llama_kv_cache_unified5cpy_kEP12ggml_contextP11ggml_tensorS3_iRKNS_9slot_infoE, symObjAddr: 0x7938, symBinAddr: 0x4DDF8, symSize: 0x27C }
  - { offsetInCU: 0x60DA1, offset: 0x28C6EA, size: 0x8, addend: 0x0, symName: __ZNK22llama_kv_cache_unified5cpy_vEP12ggml_contextP11ggml_tensorS3_iRKNS_9slot_infoE, symObjAddr: 0x7BB4, symBinAddr: 0x4E074, symSize: 0x370 }
  - { offsetInCU: 0x60E18, offset: 0x28C761, size: 0x8, addend: 0x0, symName: __ZNK22llama_kv_cache_unified5cpy_vEP12ggml_contextP11ggml_tensorS3_iRKNS_9slot_infoE, symObjAddr: 0x7BB4, symBinAddr: 0x4E074, symSize: 0x370 }
  - { offsetInCU: 0x612EA, offset: 0x28CC33, size: 0x8, addend: 0x0, symName: __ZNK22llama_kv_cache_unified18build_input_k_idxsEP12ggml_contextRK12llama_ubatch, symObjAddr: 0x7F24, symBinAddr: 0x4E3E4, symSize: 0x34 }
  - { offsetInCU: 0x61352, offset: 0x28CC9B, size: 0x8, addend: 0x0, symName: __ZNK22llama_kv_cache_unified18build_input_k_idxsEP12ggml_contextRK12llama_ubatch, symObjAddr: 0x7F24, symBinAddr: 0x4E3E4, symSize: 0x34 }
  - { offsetInCU: 0x613BD, offset: 0x28CD06, size: 0x8, addend: 0x0, symName: __ZNK22llama_kv_cache_unified18build_input_v_idxsEP12ggml_contextRK12llama_ubatch, symObjAddr: 0x7F58, symBinAddr: 0x4E418, symSize: 0x50 }
  - { offsetInCU: 0x61430, offset: 0x28CD79, size: 0x8, addend: 0x0, symName: __ZNK22llama_kv_cache_unified16set_input_k_idxsEP11ggml_tensorPK12llama_ubatchRKNS_9slot_infoE, symObjAddr: 0x7FA8, symBinAddr: 0x4E468, symSize: 0x384 }
  - { offsetInCU: 0x615CA, offset: 0x28CF13, size: 0x8, addend: 0x0, symName: __ZNK22llama_kv_cache_unified16set_input_v_idxsEP11ggml_tensorPK12llama_ubatchRKNS_9slot_infoE, symObjAddr: 0x832C, symBinAddr: 0x4E7EC, symSize: 0x550 }
  - { offsetInCU: 0x615EE, offset: 0x28CF37, size: 0x8, addend: 0x0, symName: __ZNK22llama_kv_cache_unified16set_input_v_idxsEP11ggml_tensorPK12llama_ubatchRKNS_9slot_infoE, symObjAddr: 0x832C, symBinAddr: 0x4E7EC, symSize: 0x550 }
  - { offsetInCU: 0x618CA, offset: 0x28D213, size: 0x8, addend: 0x0, symName: __ZNK22llama_kv_cache_unified17set_input_k_shiftEP11ggml_tensor, symObjAddr: 0x887C, symBinAddr: 0x4ED3C, symSize: 0xF0 }
  - { offsetInCU: 0x618DC, offset: 0x28D225, size: 0x8, addend: 0x0, symName: __ZNK22llama_kv_cache_unified17set_input_k_shiftEP11ggml_tensor, symObjAddr: 0x887C, symBinAddr: 0x4ED3C, symSize: 0xF0 }
  - { offsetInCU: 0x619F1, offset: 0x28D33A, size: 0x8, addend: 0x0, symName: __ZNK22llama_kv_cache_unified17set_input_kq_maskEP11ggml_tensorPK12llama_ubatchb, symObjAddr: 0x896C, symBinAddr: 0x4EE2C, symSize: 0x264 }
  - { offsetInCU: 0x61A03, offset: 0x28D34C, size: 0x8, addend: 0x0, symName: __ZNK22llama_kv_cache_unified17set_input_kq_maskEP11ggml_tensorPK12llama_ubatchb, symObjAddr: 0x896C, symBinAddr: 0x4EE2C, symSize: 0x264 }
  - { offsetInCU: 0x61D35, offset: 0x28D67E, size: 0x8, addend: 0x0, symName: __ZNK22llama_kv_cache_unified20set_input_pos_bucketEP11ggml_tensorPK12llama_ubatch, symObjAddr: 0x8BD0, symBinAddr: 0x4F090, symSize: 0x148 }
  - { offsetInCU: 0x61D70, offset: 0x28D6B9, size: 0x8, addend: 0x0, symName: __ZNK22llama_kv_cache_unified20set_input_pos_bucketEP11ggml_tensorPK12llama_ubatch, symObjAddr: 0x8BD0, symBinAddr: 0x4F090, symSize: 0x148 }
  - { offsetInCU: 0x61F3F, offset: 0x28D888, size: 0x8, addend: 0x0, symName: __ZNK22llama_kv_cache_unified10total_sizeEv, symObjAddr: 0x8D18, symBinAddr: 0x4F1D8, symSize: 0x60 }
  - { offsetInCU: 0x61F93, offset: 0x28D8DC, size: 0x8, addend: 0x0, symName: __ZNK22llama_kv_cache_unified10total_sizeEv, symObjAddr: 0x8D18, symBinAddr: 0x4F1D8, symSize: 0x60 }
  - { offsetInCU: 0x6219B, offset: 0x28DAE4, size: 0x8, addend: 0x0, symName: __ZN23llm_graph_input_k_shift9set_inputEPK12llama_ubatch, symObjAddr: 0x8ED0, symBinAddr: 0x4F390, symSize: 0xF4 }
  - { offsetInCU: 0x622DA, offset: 0x28DC23, size: 0x8, addend: 0x0, symName: __ZNK22llama_kv_cache_unified11state_writeER16llama_io_write_ii, symObjAddr: 0x8FC4, symBinAddr: 0x4F484, symSize: 0x634 }
  - { offsetInCU: 0x62AD5, offset: 0x28E41E, size: 0x8, addend: 0x0, symName: __ZNK22llama_kv_cache_unified11state_writeER16llama_io_write_ii, symObjAddr: 0x8FC4, symBinAddr: 0x4F484, symSize: 0x634 }
  - { offsetInCU: 0x63A41, offset: 0x28F38A, size: 0x8, addend: 0x0, symName: __ZNK22llama_kv_cache_unified16state_write_metaER16llama_io_write_iRKNS_13cell_ranges_tEi, symObjAddr: 0x95F8, symBinAddr: 0x4FAB8, symSize: 0x37C }
  - { offsetInCU: 0x643F3, offset: 0x28FD3C, size: 0x8, addend: 0x0, symName: __ZNK22llama_kv_cache_unified16state_write_dataER16llama_io_write_iRKNS_13cell_ranges_tE, symObjAddr: 0x9974, symBinAddr: 0x4FE34, symSize: 0x374 }
  - { offsetInCU: 0x64BF1, offset: 0x29053A, size: 0x8, addend: 0x0, symName: __ZNKSt3__16vectorINS_4pairIjjEENS_9allocatorIS2_EEE20__throw_length_errorB8ue170006Ev, symObjAddr: 0xEB98, symBinAddr: 0x5452C, symSize: 0x14 }
  - { offsetInCU: 0x64C1B, offset: 0x290564, size: 0x8, addend: 0x0, symName: __ZNSt3__16vectorIN22llama_kv_cache_unified9slot_infoENS_9allocatorIS2_EEE8__appendEm, symObjAddr: 0xEBAC, symBinAddr: 0x54540, symSize: 0x280 }
  - { offsetInCU: 0x64DAA, offset: 0x2906F3, size: 0x8, addend: 0x0, symName: __ZN22llama_kv_cache_unified10state_readER15llama_io_read_ii, symObjAddr: 0x9CE8, symBinAddr: 0x501A8, symSize: 0x230 }
  - { offsetInCU: 0x64FBD, offset: 0x290906, size: 0x8, addend: 0x0, symName: __ZN22llama_kv_cache_unified15state_read_metaER15llama_io_read_ijji, symObjAddr: 0x9F18, symBinAddr: 0x503D8, symSize: 0x5C8 }
  - { offsetInCU: 0x65D12, offset: 0x29165B, size: 0x8, addend: 0x0, symName: __ZN22llama_kv_cache_unified15state_read_dataER15llama_io_read_ijj, symObjAddr: 0xA4E0, symBinAddr: 0x509A0, symSize: 0x574 }
  - { offsetInCU: 0x670F0, offset: 0x292A39, size: 0x8, addend: 0x0, symName: __ZN30llama_kv_cache_unified_contextC2E19llama_memory_status, symObjAddr: 0xAA54, symBinAddr: 0x50F14, symSize: 0x3C }
  - { offsetInCU: 0x67193, offset: 0x292ADC, size: 0x8, addend: 0x0, symName: __ZN30llama_kv_cache_unified_contextC1E19llama_memory_status, symObjAddr: 0xAA90, symBinAddr: 0x50F50, symSize: 0x3C }
  - { offsetInCU: 0x671BD, offset: 0x292B06, size: 0x8, addend: 0x0, symName: __ZN30llama_kv_cache_unified_contextC1E19llama_memory_status, symObjAddr: 0xAA90, symBinAddr: 0x50F50, symSize: 0x3C }
  - { offsetInCU: 0x673BA, offset: 0x292D03, size: 0x8, addend: 0x0, symName: __ZNSt3__16vectorIN22llama_kv_cache_unified9slot_infoENS_9allocatorIS2_EEE6resizeEm, symObjAddr: 0xAE14, symBinAddr: 0x512D4, symSize: 0xF8 }
  - { offsetInCU: 0x67945, offset: 0x29328E, size: 0x8, addend: 0x0, symName: __ZNSt3__16vectorIN22llama_kv_cache_unified9slot_infoENS_9allocatorIS2_EEE8__appendEm, symObjAddr: 0xEBAC, symBinAddr: 0x54540, symSize: 0x280 }
  - { offsetInCU: 0x683E3, offset: 0x293D2C, size: 0x8, addend: 0x0, symName: __ZNSt3__16vectorINS0_IjNS_9allocatorIjEEEENS1_IS3_EEEC2ERKS5_.cold.1, symObjAddr: 0xEE2C, symBinAddr: 0x1FD288, symSize: 0x64 }
  - { offsetInCU: 0x683EE, offset: 0x293D37, size: 0x8, addend: 0x0, symName: __ZN30llama_kv_cache_unified_contextC1EP22llama_kv_cache_unified, symObjAddr: 0xAF0C, symBinAddr: 0x513CC, symSize: 0x4 }
  - { offsetInCU: 0x68418, offset: 0x293D61, size: 0x8, addend: 0x0, symName: __ZN30llama_kv_cache_unified_contextC1EP22llama_kv_cache_unified, symObjAddr: 0xAF0C, symBinAddr: 0x513CC, symSize: 0x4 }
  - { offsetInCU: 0x68432, offset: 0x293D7B, size: 0x8, addend: 0x0, symName: __ZN30llama_kv_cache_unified_contextC2EP22llama_kv_cache_unifiedP13llama_contextbNS0_11defrag_infoENS0_16stream_copy_infoE, symObjAddr: 0xAF10, symBinAddr: 0x513D0, symSize: 0xB4 }
  - { offsetInCU: 0x68692, offset: 0x293FDB, size: 0x8, addend: 0x0, symName: __ZN30llama_kv_cache_unified_contextC1EP22llama_kv_cache_unifiedP13llama_contextbNS0_11defrag_infoENS0_16stream_copy_infoE, symObjAddr: 0xAFC4, symBinAddr: 0x51484, symSize: 0xB4 }
  - { offsetInCU: 0x68933, offset: 0x29427C, size: 0x8, addend: 0x0, symName: __ZN30llama_kv_cache_unified_contextC2EP22llama_kv_cache_unifiedNSt3__16vectorINS0_9slot_infoENS2_9allocatorIS4_EEEENS3_I12llama_ubatchNS5_IS8_EEEE, symObjAddr: 0xB078, symBinAddr: 0x51538, symSize: 0x74 }
  - { offsetInCU: 0x68A82, offset: 0x2943CB, size: 0x8, addend: 0x0, symName: __ZN30llama_kv_cache_unified_contextC1EP22llama_kv_cache_unifiedNSt3__16vectorINS0_9slot_infoENS2_9allocatorIS4_EEEENS3_I12llama_ubatchNS5_IS8_EEEE, symObjAddr: 0xB0EC, symBinAddr: 0x515AC, symSize: 0x74 }
  - { offsetInCU: 0x68ABC, offset: 0x294405, size: 0x8, addend: 0x0, symName: __ZN30llama_kv_cache_unified_contextC1EP22llama_kv_cache_unifiedNSt3__16vectorINS0_9slot_infoENS2_9allocatorIS4_EEEENS3_I12llama_ubatchNS5_IS8_EEEE, symObjAddr: 0xB0EC, symBinAddr: 0x515AC, symSize: 0x74 }
  - { offsetInCU: 0x68C21, offset: 0x29456A, size: 0x8, addend: 0x0, symName: __ZN30llama_kv_cache_unified_contextD2Ev, symObjAddr: 0xB160, symBinAddr: 0x51620, symSize: 0x16C }
  - { offsetInCU: 0x698C8, offset: 0x295211, size: 0x8, addend: 0x0, symName: __ZN30llama_kv_cache_unified_contextD1Ev, symObjAddr: 0xB2CC, symBinAddr: 0x5178C, symSize: 0x4 }
  - { offsetInCU: 0x698EB, offset: 0x295234, size: 0x8, addend: 0x0, symName: __ZN30llama_kv_cache_unified_contextD1Ev, symObjAddr: 0xB2CC, symBinAddr: 0x5178C, symSize: 0x4 }
  - { offsetInCU: 0x6991B, offset: 0x295264, size: 0x8, addend: 0x0, symName: __ZN30llama_kv_cache_unified_contextD0Ev, symObjAddr: 0xB2D0, symBinAddr: 0x51790, symSize: 0x14 }
  - { offsetInCU: 0x6998F, offset: 0x2952D8, size: 0x8, addend: 0x0, symName: __ZN30llama_kv_cache_unified_context4nextEv, symObjAddr: 0xB2E4, symBinAddr: 0x517A4, symSize: 0x38 }
  - { offsetInCU: 0x69A54, offset: 0x29539D, size: 0x8, addend: 0x0, symName: __ZN30llama_kv_cache_unified_context5applyEv, symObjAddr: 0xB31C, symBinAddr: 0x517DC, symSize: 0x118 }
  - { offsetInCU: 0x69CD4, offset: 0x29561D, size: 0x8, addend: 0x0, symName: __ZNK30llama_kv_cache_unified_context10get_statusEv, symObjAddr: 0xB434, symBinAddr: 0x518F4, symSize: 0x8 }
  - { offsetInCU: 0x69D22, offset: 0x29566B, size: 0x8, addend: 0x0, symName: __ZNK30llama_kv_cache_unified_context10get_ubatchEv, symObjAddr: 0xB43C, symBinAddr: 0x518FC, symSize: 0x14 }
  - { offsetInCU: 0x69D73, offset: 0x2956BC, size: 0x8, addend: 0x0, symName: __ZNK30llama_kv_cache_unified_context8get_n_kvEv, symObjAddr: 0xB450, symBinAddr: 0x51910, symSize: 0x8 }
  - { offsetInCU: 0x69DB6, offset: 0x2956FF, size: 0x8, addend: 0x0, symName: __ZNK30llama_kv_cache_unified_context21get_supports_set_rowsEv, symObjAddr: 0xB458, symBinAddr: 0x51918, symSize: 0xC }
  - { offsetInCU: 0x69E21, offset: 0x29576A, size: 0x8, addend: 0x0, symName: __ZNK30llama_kv_cache_unified_context5get_kEP12ggml_contexti, symObjAddr: 0xB464, symBinAddr: 0x51924, symSize: 0x1C }
  - { offsetInCU: 0x69EAD, offset: 0x2957F6, size: 0x8, addend: 0x0, symName: __ZNK30llama_kv_cache_unified_context5get_vEP12ggml_contexti, symObjAddr: 0xB480, symBinAddr: 0x51940, symSize: 0x1C }
  - { offsetInCU: 0x69F39, offset: 0x295882, size: 0x8, addend: 0x0, symName: __ZNK30llama_kv_cache_unified_context5cpy_kEP12ggml_contextP11ggml_tensorS3_i, symObjAddr: 0xB49C, symBinAddr: 0x5195C, symSize: 0x18 }
  - { offsetInCU: 0x69FF1, offset: 0x29593A, size: 0x8, addend: 0x0, symName: __ZNK30llama_kv_cache_unified_context5cpy_vEP12ggml_contextP11ggml_tensorS3_i, symObjAddr: 0xB4B4, symBinAddr: 0x51974, symSize: 0x18 }
  - { offsetInCU: 0x6A0F2, offset: 0x295A3B, size: 0x8, addend: 0x0, symName: __ZNK30llama_kv_cache_unified_context18build_input_k_idxsEP12ggml_contextRK12llama_ubatch, symObjAddr: 0xB4CC, symBinAddr: 0x5198C, symSize: 0x34 }
  - { offsetInCU: 0x6A1DE, offset: 0x295B27, size: 0x8, addend: 0x0, symName: __ZNK30llama_kv_cache_unified_context18build_input_v_idxsEP12ggml_contextRK12llama_ubatch, symObjAddr: 0xB500, symBinAddr: 0x519C0, symSize: 0x54 }
  - { offsetInCU: 0x6A28F, offset: 0x295BD8, size: 0x8, addend: 0x0, symName: __ZNK30llama_kv_cache_unified_context17set_input_k_shiftEP11ggml_tensor, symObjAddr: 0xB554, symBinAddr: 0x51A14, symSize: 0xF0 }
  - { offsetInCU: 0x6A3D3, offset: 0x295D1C, size: 0x8, addend: 0x0, symName: __ZNK30llama_kv_cache_unified_context16set_input_k_idxsEP11ggml_tensorPK12llama_ubatch, symObjAddr: 0xB644, symBinAddr: 0x51B04, symSize: 0x18 }
  - { offsetInCU: 0x6A3E5, offset: 0x295D2E, size: 0x8, addend: 0x0, symName: __ZNK30llama_kv_cache_unified_context16set_input_k_idxsEP11ggml_tensorPK12llama_ubatch, symObjAddr: 0xB644, symBinAddr: 0x51B04, symSize: 0x18 }
  - { offsetInCU: 0x6A471, offset: 0x295DBA, size: 0x8, addend: 0x0, symName: __ZNK30llama_kv_cache_unified_context16set_input_v_idxsEP11ggml_tensorPK12llama_ubatch, symObjAddr: 0xB65C, symBinAddr: 0x51B1C, symSize: 0x18 }
  - { offsetInCU: 0x6A4FD, offset: 0x295E46, size: 0x8, addend: 0x0, symName: __ZNK30llama_kv_cache_unified_context17set_input_kq_maskEP11ggml_tensorPK12llama_ubatchb, symObjAddr: 0xB674, symBinAddr: 0x51B34, symSize: 0x8 }
  - { offsetInCU: 0x6A57D, offset: 0x295EC6, size: 0x8, addend: 0x0, symName: __ZNK30llama_kv_cache_unified_context20set_input_pos_bucketEP11ggml_tensorPK12llama_ubatch, symObjAddr: 0xB67C, symBinAddr: 0x51B3C, symSize: 0x8 }
  - { offsetInCU: 0x6A5E2, offset: 0x295F2B, size: 0x8, addend: 0x0, symName: __ZN22llama_kv_cache_unified11get_paddingERK13llama_cparams, symObjAddr: 0xB684, symBinAddr: 0x51B44, symSize: 0x18 }
  - { offsetInCU: 0x6A60A, offset: 0x295F53, size: 0x8, addend: 0x0, symName: __ZN22llama_kv_cache_unifiedD1Ev, symObjAddr: 0xB69C, symBinAddr: 0x51B5C, symSize: 0x4 }
  - { offsetInCU: 0x6A62D, offset: 0x295F76, size: 0x8, addend: 0x0, symName: __ZN22llama_kv_cache_unifiedD1Ev, symObjAddr: 0xB69C, symBinAddr: 0x51B5C, symSize: 0x4 }
  - { offsetInCU: 0x6A640, offset: 0x295F89, size: 0x8, addend: 0x0, symName: __ZN22llama_kv_cache_unifiedD2Ev, symObjAddr: 0xCFE4, symBinAddr: 0x52D10, symSize: 0x1C0 }
  - { offsetInCU: 0x6B8F4, offset: 0x29723D, size: 0x8, addend: 0x0, symName: __ZN22llama_kv_cache_unifiedD0Ev, symObjAddr: 0xB6A0, symBinAddr: 0x51B60, symSize: 0x14 }
  - { offsetInCU: 0x6B94F, offset: 0x297298, size: 0x8, addend: 0x0, symName: __ZN23llm_graph_input_k_shiftD1Ev, symObjAddr: 0xB6B4, symBinAddr: 0x51B74, symSize: 0x4 }
  - { offsetInCU: 0x6B978, offset: 0x2972C1, size: 0x8, addend: 0x0, symName: __ZN23llm_graph_input_k_shiftD0Ev, symObjAddr: 0xB6B8, symBinAddr: 0x51B78, symSize: 0x4 }
  - { offsetInCU: 0x6BDBF, offset: 0x297708, size: 0x8, addend: 0x0, symName: __ZNSt3__16__treeIjNS_4lessIjEENS_9allocatorIjEEE7destroyEPNS_11__tree_nodeIjPvEE, symObjAddr: 0xBDD0, symBinAddr: 0x51D24, symSize: 0x40 }
  - { offsetInCU: 0x6BFD3, offset: 0x29791C, size: 0x8, addend: 0x0, symName: __ZNKSt3__16vectorINS0_IjNS_9allocatorIjEEEENS1_IS3_EEE20__throw_length_errorB8ue170006Ev, symObjAddr: 0xC590, symBinAddr: 0x52470, symSize: 0x14 }
  - { offsetInCU: 0x6BFFD, offset: 0x297946, size: 0x8, addend: 0x0, symName: __ZNSt3__135__uninitialized_allocator_copy_implB8ue170006INS_9allocatorINS_6vectorIjNS1_IjEEEEEEPS4_S6_S6_EET2_RT_T0_T1_S7_, symObjAddr: 0xC5A4, symBinAddr: 0x52484, symSize: 0xF4 }
  - { offsetInCU: 0x6C008, offset: 0x297951, size: 0x8, addend: 0x0, symName: __ZNSt3__16vectorINS0_IjNS_9allocatorIjEEEENS1_IS3_EEEC2ERKS5_.cold.1, symObjAddr: 0xEE2C, symBinAddr: 0x1FD288, symSize: 0x64 }
  - { offsetInCU: 0x6C3B3, offset: 0x297CFC, size: 0x8, addend: 0x0, symName: __ZNSt3__128__exception_guard_exceptionsINS_29_AllocatorDestroyRangeReverseINS_9allocatorINS_6vectorIjNS2_IjEEEEEEPS5_EEED1B8ue170006Ev, symObjAddr: 0xC698, symBinAddr: 0x52578, symSize: 0x6C }
  - { offsetInCU: 0x6C5E6, offset: 0x297F2F, size: 0x8, addend: 0x0, symName: __ZN22llama_kv_cells_unifiedC2Ev, symObjAddr: 0xC704, symBinAddr: 0x525E4, symSize: 0x3CC }
  - { offsetInCU: 0x6DABE, offset: 0x299407, size: 0x8, addend: 0x0, symName: __ZNKSt3__16vectorI22llama_kv_cells_unifiedNS_9allocatorIS1_EEE20__throw_length_errorB8ue170006Ev, symObjAddr: 0xD7CC, symBinAddr: 0x534A4, symSize: 0x14 }
  - { offsetInCU: 0x6DAE8, offset: 0x299431, size: 0x8, addend: 0x0, symName: __ZNSt3__142__uninitialized_allocator_move_if_noexceptB8ue170006INS_9allocatorI22llama_kv_cells_unifiedEENS_16reverse_iteratorIPS2_EES6_S6_EET2_RT_T0_T1_S7_, symObjAddr: 0xD7E0, symBinAddr: 0x534B8, symSize: 0x14C }
  - { offsetInCU: 0x6DAF3, offset: 0x29943C, size: 0x8, addend: 0x0, symName: __ZNSt3__114__split_bufferI22llama_kv_cells_unifiedRNS_9allocatorIS1_EEED1Ev, symObjAddr: 0xD77C, symBinAddr: 0x53454, symSize: 0x50 }
  - { offsetInCU: 0x6E1AD, offset: 0x299AF6, size: 0x8, addend: 0x0, symName: __ZNSt3__112__hash_tableINS_17__hash_value_typeIiiEENS_22__unordered_map_hasherIiS2_NS_4hashIiEENS_8equal_toIiEELb1EEENS_21__unordered_map_equalIiS2_S7_S5_Lb1EEENS_9allocatorIS2_EEE11__do_rehashILb1EEEvm, symObjAddr: 0xDEBC, symBinAddr: 0x53B80, symSize: 0x1AC }
  - { offsetInCU: 0x6E60D, offset: 0x299F56, size: 0x8, addend: 0x0, symName: __ZNSt3__16vectorIN22llama_kv_cache_unified8kv_layerENS_9allocatorIS2_EEE21__push_back_slow_pathIS2_EEvOT_, symObjAddr: 0xE068, symBinAddr: 0x53D2C, symSize: 0x1EC }
  - { offsetInCU: 0x6E8B1, offset: 0x29A1FA, size: 0x8, addend: 0x0, symName: __ZNKSt3__16vectorIN22llama_kv_cache_unified8kv_layerENS_9allocatorIS2_EEE20__throw_length_errorB8ue170006Ev, symObjAddr: 0xE254, symBinAddr: 0x53F18, symSize: 0x14 }
  - { offsetInCU: 0x6EEBB, offset: 0x29A804, size: 0x8, addend: 0x0, symName: __ZNSt3__16vectorIN22llama_kv_cache_unified9slot_infoENS_9allocatorIS2_EEE21__push_back_slow_pathIRKS2_EEvOT_, symObjAddr: 0xE598, symBinAddr: 0x53F2C, symSize: 0x2D4 }
  - { offsetInCU: 0x6F1BD, offset: 0x29AB06, size: 0x8, addend: 0x0, symName: __ZNKSt3__16vectorIN22llama_kv_cache_unified9slot_infoENS_9allocatorIS2_EEE20__throw_length_errorB8ue170006Ev, symObjAddr: 0xE86C, symBinAddr: 0x54200, symSize: 0x14 }
  - { offsetInCU: 0x6F1E7, offset: 0x29AB30, size: 0x8, addend: 0x0, symName: __ZNSt3__114__split_bufferIN22llama_kv_cache_unified9slot_infoERNS_9allocatorIS2_EEED2Ev, symObjAddr: 0xE880, symBinAddr: 0x54214, symSize: 0xB8 }
  - { offsetInCU: 0x6F1F2, offset: 0x29AB3B, size: 0x8, addend: 0x0, symName: __ZNSt3__114__split_bufferIN22llama_kv_cache_unified9slot_infoERNS_9allocatorIS2_EEED2Ev, symObjAddr: 0xE880, symBinAddr: 0x54214, symSize: 0xB8 }
  - { offsetInCU: 0x26, offset: 0x29B283, size: 0x8, addend: 0x0, symName: __ZN19llama_memory_hybridC2ERK11llama_model9ggml_typeS3_bjjj14llama_swa_typeS3_S3_jjbbONSt3__18functionIFbiEEES9_, symObjAddr: 0x0, symBinAddr: 0x547C0, symSize: 0x2EC }
  - { offsetInCU: 0x25434, offset: 0x2C0691, size: 0x8, addend: 0x0, symName: __ZNSt3__111make_uniqueB8ue170006I27llama_memory_hybrid_contextJP19llama_memory_hybridNS_6vectorIN22llama_kv_cache_unified9slot_infoENS_9allocatorIS6_EEEENS4_I12llama_ubatchNS7_ISA_EEEEEEENS_11__unique_ifIT_E15__unique_singleEDpOT0_, symObjAddr: 0x920, symBinAddr: 0x55080, symSize: 0x1B8 }
  - { offsetInCU: 0x2D9AC, offset: 0x2C8C09, size: 0x8, addend: 0x0, symName: __ZN19llama_memory_hybridC1ERK11llama_model9ggml_typeS3_bjjj14llama_swa_typeS3_S3_jjbbONSt3__18functionIFbiEEES9_, symObjAddr: 0x2EC, symBinAddr: 0x54AAC, symSize: 0x34 }
  - { offsetInCU: 0x30571, offset: 0x2CB7CE, size: 0x8, addend: 0x0, symName: __ZN19llama_memory_hybridC2ERK11llama_model9ggml_typeS3_bjjj14llama_swa_typeS3_S3_jjbbONSt3__18functionIFbiEEES9_, symObjAddr: 0x0, symBinAddr: 0x547C0, symSize: 0x2EC }
  - { offsetInCU: 0x319BE, offset: 0x2CCC1B, size: 0x8, addend: 0x0, symName: __ZN19llama_memory_hybrid10init_batchER18llama_batch_allocrjb, symObjAddr: 0x320, symBinAddr: 0x54AE0, symSize: 0x5A0 }
  - { offsetInCU: 0x33A25, offset: 0x2CEC82, size: 0x8, addend: 0x0, symName: __ZN27llama_memory_hybrid_contextC2EP19llama_memory_hybridNSt3__16vectorIN22llama_kv_cache_unified9slot_infoENS2_9allocatorIS5_EEEENS3_I12llama_ubatchNS6_IS9_EEEE, symObjAddr: 0x135C, symBinAddr: 0x5595C, symSize: 0x380 }
  - { offsetInCU: 0x349E7, offset: 0x2CFC44, size: 0x8, addend: 0x0, symName: __ZN19llama_memory_hybrid9init_fullEv, symObjAddr: 0xC38, symBinAddr: 0x55238, symSize: 0x54 }
  - { offsetInCU: 0x34AE7, offset: 0x2CFD44, size: 0x8, addend: 0x0, symName: __ZN27llama_memory_hybrid_contextC2EP19llama_memory_hybrid, symObjAddr: 0x10D4, symBinAddr: 0x556D4, symSize: 0x130 }
  - { offsetInCU: 0x34DE4, offset: 0x2D0041, size: 0x8, addend: 0x0, symName: __ZN19llama_memory_hybrid11init_updateEP13llama_contextb, symObjAddr: 0xC8C, symBinAddr: 0x5528C, symSize: 0x6C }
  - { offsetInCU: 0x34F17, offset: 0x2D0174, size: 0x8, addend: 0x0, symName: __ZN27llama_memory_hybrid_contextC2EP19llama_memory_hybridP13llama_contextb, symObjAddr: 0x1208, symBinAddr: 0x55808, symSize: 0x150 }
  - { offsetInCU: 0x3520C, offset: 0x2D0469, size: 0x8, addend: 0x0, symName: __ZNK19llama_memory_hybrid13get_can_shiftEv, symObjAddr: 0xCF8, symBinAddr: 0x552F8, symSize: 0x10 }
  - { offsetInCU: 0x35238, offset: 0x2D0495, size: 0x8, addend: 0x0, symName: __ZNK19llama_memory_hybrid13get_can_shiftEv, symObjAddr: 0xCF8, symBinAddr: 0x552F8, symSize: 0x10 }
  - { offsetInCU: 0x35260, offset: 0x2D04BD, size: 0x8, addend: 0x0, symName: __ZN19llama_memory_hybrid5clearEb, symObjAddr: 0xD08, symBinAddr: 0x55308, symSize: 0x40 }
  - { offsetInCU: 0x352FE, offset: 0x2D055B, size: 0x8, addend: 0x0, symName: __ZN19llama_memory_hybrid6seq_rmEiii, symObjAddr: 0xD48, symBinAddr: 0x55348, symSize: 0x6C }
  - { offsetInCU: 0x353D6, offset: 0x2D0633, size: 0x8, addend: 0x0, symName: __ZN19llama_memory_hybrid6seq_cpEiiii, symObjAddr: 0xDB4, symBinAddr: 0x553B4, symSize: 0x68 }
  - { offsetInCU: 0x354CB, offset: 0x2D0728, size: 0x8, addend: 0x0, symName: __ZN19llama_memory_hybrid8seq_keepEi, symObjAddr: 0xE1C, symBinAddr: 0x5541C, symSize: 0x40 }
  - { offsetInCU: 0x35569, offset: 0x2D07C6, size: 0x8, addend: 0x0, symName: __ZN19llama_memory_hybrid7seq_addEiiii, symObjAddr: 0xE5C, symBinAddr: 0x5545C, symSize: 0x68 }
  - { offsetInCU: 0x3565E, offset: 0x2D08BB, size: 0x8, addend: 0x0, symName: __ZN19llama_memory_hybrid7seq_divEiiii, symObjAddr: 0xEC4, symBinAddr: 0x554C4, symSize: 0x68 }
  - { offsetInCU: 0x35753, offset: 0x2D09B0, size: 0x8, addend: 0x0, symName: __ZNK19llama_memory_hybrid11seq_pos_minEi, symObjAddr: 0xF2C, symBinAddr: 0x5552C, symSize: 0x58 }
  - { offsetInCU: 0x357F1, offset: 0x2D0A4E, size: 0x8, addend: 0x0, symName: __ZNK19llama_memory_hybrid11seq_pos_maxEi, symObjAddr: 0xF84, symBinAddr: 0x55584, symSize: 0x58 }
  - { offsetInCU: 0x3588F, offset: 0x2D0AEC, size: 0x8, addend: 0x0, symName: __ZNK19llama_memory_hybrid11state_writeER16llama_io_write_ii, symObjAddr: 0xFDC, symBinAddr: 0x555DC, symSize: 0x50 }
  - { offsetInCU: 0x3594A, offset: 0x2D0BA7, size: 0x8, addend: 0x0, symName: __ZN19llama_memory_hybrid10state_readER15llama_io_read_ii, symObjAddr: 0x102C, symBinAddr: 0x5562C, symSize: 0x50 }
  - { offsetInCU: 0x35A1B, offset: 0x2D0C78, size: 0x8, addend: 0x0, symName: __ZNK19llama_memory_hybrid12get_mem_attnEv, symObjAddr: 0x107C, symBinAddr: 0x5567C, symSize: 0x8 }
  - { offsetInCU: 0x35A40, offset: 0x2D0C9D, size: 0x8, addend: 0x0, symName: __ZNK19llama_memory_hybrid12get_mem_attnEv, symObjAddr: 0x107C, symBinAddr: 0x5567C, symSize: 0x8 }
  - { offsetInCU: 0x35A72, offset: 0x2D0CCF, size: 0x8, addend: 0x0, symName: __ZNK19llama_memory_hybrid12get_mem_recrEv, symObjAddr: 0x1084, symBinAddr: 0x55684, symSize: 0x8 }
  - { offsetInCU: 0x35A97, offset: 0x2D0CF4, size: 0x8, addend: 0x0, symName: __ZNK19llama_memory_hybrid12get_mem_recrEv, symObjAddr: 0x1084, symBinAddr: 0x55684, symSize: 0x8 }
  - { offsetInCU: 0x35AB3, offset: 0x2D0D10, size: 0x8, addend: 0x0, symName: __ZN27llama_memory_hybrid_contextC2E19llama_memory_status, symObjAddr: 0x108C, symBinAddr: 0x5568C, symSize: 0x24 }
  - { offsetInCU: 0x35B18, offset: 0x2D0D75, size: 0x8, addend: 0x0, symName: __ZN27llama_memory_hybrid_contextC1E19llama_memory_status, symObjAddr: 0x10B0, symBinAddr: 0x556B0, symSize: 0x24 }
  - { offsetInCU: 0x35B42, offset: 0x2D0D9F, size: 0x8, addend: 0x0, symName: __ZN27llama_memory_hybrid_contextC1E19llama_memory_status, symObjAddr: 0x10B0, symBinAddr: 0x556B0, symSize: 0x24 }
  - { offsetInCU: 0x35C93, offset: 0x2D0EF0, size: 0x8, addend: 0x0, symName: __ZN27llama_memory_hybrid_contextC1EP19llama_memory_hybrid, symObjAddr: 0x1204, symBinAddr: 0x55804, symSize: 0x4 }
  - { offsetInCU: 0x35CBD, offset: 0x2D0F1A, size: 0x8, addend: 0x0, symName: __ZN27llama_memory_hybrid_contextC1EP19llama_memory_hybrid, symObjAddr: 0x1204, symBinAddr: 0x55804, symSize: 0x4 }
  - { offsetInCU: 0x35CD7, offset: 0x2D0F34, size: 0x8, addend: 0x0, symName: __ZN27llama_memory_hybrid_contextC1EP19llama_memory_hybridP13llama_contextb, symObjAddr: 0x1358, symBinAddr: 0x55958, symSize: 0x4 }
  - { offsetInCU: 0x35D14, offset: 0x2D0F71, size: 0x8, addend: 0x0, symName: __ZN27llama_memory_hybrid_contextC1EP19llama_memory_hybridP13llama_contextb, symObjAddr: 0x1358, symBinAddr: 0x55958, symSize: 0x4 }
  - { offsetInCU: 0x360CD, offset: 0x2D132A, size: 0x8, addend: 0x0, symName: __ZN27llama_memory_hybrid_contextC1EP19llama_memory_hybridNSt3__16vectorIN22llama_kv_cache_unified9slot_infoENS2_9allocatorIS5_EEEENS3_I12llama_ubatchNS6_IS9_EEEE, symObjAddr: 0x16DC, symBinAddr: 0x55CDC, symSize: 0x4 }
  - { offsetInCU: 0x36107, offset: 0x2D1364, size: 0x8, addend: 0x0, symName: __ZN27llama_memory_hybrid_contextC1EP19llama_memory_hybridNSt3__16vectorIN22llama_kv_cache_unified9slot_infoENS2_9allocatorIS5_EEEENS3_I12llama_ubatchNS6_IS9_EEEE, symObjAddr: 0x16DC, symBinAddr: 0x55CDC, symSize: 0x4 }
  - { offsetInCU: 0x3614A, offset: 0x2D13A7, size: 0x8, addend: 0x0, symName: __ZN27llama_memory_hybrid_context4nextEv, symObjAddr: 0x16E0, symBinAddr: 0x55CE0, symSize: 0x70 }
  - { offsetInCU: 0x361E8, offset: 0x2D1445, size: 0x8, addend: 0x0, symName: __ZN27llama_memory_hybrid_context5applyEv, symObjAddr: 0x1750, symBinAddr: 0x55D50, symSize: 0x44 }
  - { offsetInCU: 0x36277, offset: 0x2D14D4, size: 0x8, addend: 0x0, symName: __ZNK27llama_memory_hybrid_context10get_statusEv, symObjAddr: 0x1794, symBinAddr: 0x55D94, symSize: 0x8 }
  - { offsetInCU: 0x362C4, offset: 0x2D1521, size: 0x8, addend: 0x0, symName: __ZNK27llama_memory_hybrid_context10get_ubatchEv, symObjAddr: 0x179C, symBinAddr: 0x55D9C, symSize: 0x10 }
  - { offsetInCU: 0x36329, offset: 0x2D1586, size: 0x8, addend: 0x0, symName: __ZNK27llama_memory_hybrid_context8get_attnEv, symObjAddr: 0x17AC, symBinAddr: 0x55DAC, symSize: 0x8 }
  - { offsetInCU: 0x36355, offset: 0x2D15B2, size: 0x8, addend: 0x0, symName: __ZNK27llama_memory_hybrid_context8get_attnEv, symObjAddr: 0x17AC, symBinAddr: 0x55DAC, symSize: 0x8 }
  - { offsetInCU: 0x36371, offset: 0x2D15CE, size: 0x8, addend: 0x0, symName: __ZNK27llama_memory_hybrid_context8get_recrEv, symObjAddr: 0x17B4, symBinAddr: 0x55DB4, symSize: 0x8 }
  - { offsetInCU: 0x3639D, offset: 0x2D15FA, size: 0x8, addend: 0x0, symName: __ZNK27llama_memory_hybrid_context8get_recrEv, symObjAddr: 0x17B4, symBinAddr: 0x55DB4, symSize: 0x8 }
  - { offsetInCU: 0x3645B, offset: 0x2D16B8, size: 0x8, addend: 0x0, symName: __ZN19llama_memory_hybridD1Ev, symObjAddr: 0x17BC, symBinAddr: 0x55DBC, symSize: 0x5C }
  - { offsetInCU: 0x365EC, offset: 0x2D1849, size: 0x8, addend: 0x0, symName: __ZN19llama_memory_hybridD0Ev, symObjAddr: 0x1818, symBinAddr: 0x55E18, symSize: 0x5C }
  - { offsetInCU: 0x367A3, offset: 0x2D1A00, size: 0x8, addend: 0x0, symName: __ZN27llama_memory_hybrid_contextD1Ev, symObjAddr: 0x1874, symBinAddr: 0x55E74, symSize: 0xD4 }
  - { offsetInCU: 0x36B7E, offset: 0x2D1DDB, size: 0x8, addend: 0x0, symName: __ZN27llama_memory_hybrid_contextD0Ev, symObjAddr: 0x1948, symBinAddr: 0x55F48, symSize: 0xD4 }
  - { offsetInCU: 0x36F65, offset: 0x2D21C2, size: 0x8, addend: 0x0, symName: '__ZNSt3__110__function6__funcIZN19llama_memory_hybridC1ERK11llama_model9ggml_typeS6_bjjj14llama_swa_typeS6_S6_jjbbONS_8functionIFbiEEESB_E3$_0NS_9allocatorISC_EES9_ED1Ev', symObjAddr: 0x1A1C, symBinAddr: 0x5601C, symSize: 0x4 }
  - { offsetInCU: 0x36F91, offset: 0x2D21EE, size: 0x8, addend: 0x0, symName: '__ZNSt3__110__function6__funcIZN19llama_memory_hybridC1ERK11llama_model9ggml_typeS6_bjjj14llama_swa_typeS6_S6_jjbbONS_8functionIFbiEEESB_E3$_0NS_9allocatorISC_EES9_ED0Ev', symObjAddr: 0x1A20, symBinAddr: 0x56020, symSize: 0x4 }
  - { offsetInCU: 0x37047, offset: 0x2D22A4, size: 0x8, addend: 0x0, symName: '__ZNKSt3__110__function6__funcIZN19llama_memory_hybridC1ERK11llama_model9ggml_typeS6_bjjj14llama_swa_typeS6_S6_jjbbONS_8functionIFbiEEESB_E3$_0NS_9allocatorISC_EES9_E7__cloneEv', symObjAddr: 0x1A24, symBinAddr: 0x56024, symSize: 0x34 }
  - { offsetInCU: 0x37195, offset: 0x2D23F2, size: 0x8, addend: 0x0, symName: '__ZNKSt3__110__function6__funcIZN19llama_memory_hybridC1ERK11llama_model9ggml_typeS6_bjjj14llama_swa_typeS6_S6_jjbbONS_8functionIFbiEEESB_E3$_0NS_9allocatorISC_EES9_E7__cloneEPNS0_6__baseIS9_EE', symObjAddr: 0x1A58, symBinAddr: 0x56058, symSize: 0x14 }
  - { offsetInCU: 0x37205, offset: 0x2D2462, size: 0x8, addend: 0x0, symName: '__ZNSt3__110__function6__funcIZN19llama_memory_hybridC1ERK11llama_model9ggml_typeS6_bjjj14llama_swa_typeS6_S6_jjbbONS_8functionIFbiEEESB_E3$_0NS_9allocatorISC_EES9_E7destroyEv', symObjAddr: 0x1A6C, symBinAddr: 0x5606C, symSize: 0x4 }
  - { offsetInCU: 0x37256, offset: 0x2D24B3, size: 0x8, addend: 0x0, symName: '__ZNSt3__110__function6__funcIZN19llama_memory_hybridC1ERK11llama_model9ggml_typeS6_bjjj14llama_swa_typeS6_S6_jjbbONS_8functionIFbiEEESB_E3$_0NS_9allocatorISC_EES9_E18destroy_deallocateEv', symObjAddr: 0x1A70, symBinAddr: 0x56070, symSize: 0x4 }
  - { offsetInCU: 0x3728C, offset: 0x2D24E9, size: 0x8, addend: 0x0, symName: '__ZNSt3__110__function6__funcIZN19llama_memory_hybridC1ERK11llama_model9ggml_typeS6_bjjj14llama_swa_typeS6_S6_jjbbONS_8functionIFbiEEESB_E3$_0NS_9allocatorISC_EES9_E18destroy_deallocateEv', symObjAddr: 0x1A70, symBinAddr: 0x56070, symSize: 0x4 }
  - { offsetInCU: 0x372AF, offset: 0x2D250C, size: 0x8, addend: 0x0, symName: '__ZNSt3__110__function6__funcIZN19llama_memory_hybridC1ERK11llama_model9ggml_typeS6_bjjj14llama_swa_typeS6_S6_jjbbONS_8functionIFbiEEESB_E3$_0NS_9allocatorISC_EES9_E18destroy_deallocateEv', symObjAddr: 0x1A70, symBinAddr: 0x56070, symSize: 0x4 }
  - { offsetInCU: 0x372DC, offset: 0x2D2539, size: 0x8, addend: 0x0, symName: '__ZNSt3__110__function6__funcIZN19llama_memory_hybridC1ERK11llama_model9ggml_typeS6_bjjj14llama_swa_typeS6_S6_jjbbONS_8functionIFbiEEESB_E3$_0NS_9allocatorISC_EES9_E18destroy_deallocateEv', symObjAddr: 0x1A70, symBinAddr: 0x56070, symSize: 0x4 }
  - { offsetInCU: 0x37302, offset: 0x2D255F, size: 0x8, addend: 0x0, symName: '__ZNSt3__110__function6__funcIZN19llama_memory_hybridC1ERK11llama_model9ggml_typeS6_bjjj14llama_swa_typeS6_S6_jjbbONS_8functionIFbiEEESB_E3$_0NS_9allocatorISC_EES9_E18destroy_deallocateEv', symObjAddr: 0x1A70, symBinAddr: 0x56070, symSize: 0x4 }
  - { offsetInCU: 0x373A6, offset: 0x2D2603, size: 0x8, addend: 0x0, symName: '__ZNSt3__110__function6__funcIZN19llama_memory_hybridC1ERK11llama_model9ggml_typeS6_bjjj14llama_swa_typeS6_S6_jjbbONS_8functionIFbiEEESB_E3$_0NS_9allocatorISC_EES9_EclEOi', symObjAddr: 0x1A74, symBinAddr: 0x56074, symSize: 0x24 }
  - { offsetInCU: 0x3749A, offset: 0x2D26F7, size: 0x8, addend: 0x0, symName: '__ZNKSt3__110__function6__funcIZN19llama_memory_hybridC1ERK11llama_model9ggml_typeS6_bjjj14llama_swa_typeS6_S6_jjbbONS_8functionIFbiEEESB_E3$_0NS_9allocatorISC_EES9_E6targetERKSt9type_info', symObjAddr: 0x1A98, symBinAddr: 0x56098, symSize: 0x60 }
  - { offsetInCU: 0x3751F, offset: 0x2D277C, size: 0x8, addend: 0x0, symName: '__ZNKSt3__110__function6__funcIZN19llama_memory_hybridC1ERK11llama_model9ggml_typeS6_bjjj14llama_swa_typeS6_S6_jjbbONS_8functionIFbiEEESB_E3$_0NS_9allocatorISC_EES9_E11target_typeEv', symObjAddr: 0x1AF8, symBinAddr: 0x560F8, symSize: 0xC }
  - { offsetInCU: 0x37544, offset: 0x2D27A1, size: 0x8, addend: 0x0, symName: '__ZNSt3__110__function6__funcIZN19llama_memory_hybridC1ERK11llama_model9ggml_typeS6_bjjj14llama_swa_typeS6_S6_jjbbONS_8functionIFbiEEESB_E3$_1NS_9allocatorISC_EES9_ED1Ev', symObjAddr: 0x1B2C, symBinAddr: 0x56104, symSize: 0x4 }
  - { offsetInCU: 0x37570, offset: 0x2D27CD, size: 0x8, addend: 0x0, symName: '__ZNSt3__110__function6__funcIZN19llama_memory_hybridC1ERK11llama_model9ggml_typeS6_bjjj14llama_swa_typeS6_S6_jjbbONS_8functionIFbiEEESB_E3$_1NS_9allocatorISC_EES9_ED0Ev', symObjAddr: 0x1B30, symBinAddr: 0x56108, symSize: 0x4 }
  - { offsetInCU: 0x37626, offset: 0x2D2883, size: 0x8, addend: 0x0, symName: '__ZNKSt3__110__function6__funcIZN19llama_memory_hybridC1ERK11llama_model9ggml_typeS6_bjjj14llama_swa_typeS6_S6_jjbbONS_8functionIFbiEEESB_E3$_1NS_9allocatorISC_EES9_E7__cloneEv', symObjAddr: 0x1B34, symBinAddr: 0x5610C, symSize: 0x34 }
  - { offsetInCU: 0x37774, offset: 0x2D29D1, size: 0x8, addend: 0x0, symName: '__ZNKSt3__110__function6__funcIZN19llama_memory_hybridC1ERK11llama_model9ggml_typeS6_bjjj14llama_swa_typeS6_S6_jjbbONS_8functionIFbiEEESB_E3$_1NS_9allocatorISC_EES9_E7__cloneEPNS0_6__baseIS9_EE', symObjAddr: 0x1B68, symBinAddr: 0x56140, symSize: 0x14 }
  - { offsetInCU: 0x377E4, offset: 0x2D2A41, size: 0x8, addend: 0x0, symName: '__ZNSt3__110__function6__funcIZN19llama_memory_hybridC1ERK11llama_model9ggml_typeS6_bjjj14llama_swa_typeS6_S6_jjbbONS_8functionIFbiEEESB_E3$_1NS_9allocatorISC_EES9_E7destroyEv', symObjAddr: 0x1B7C, symBinAddr: 0x56154, symSize: 0x4 }
  - { offsetInCU: 0x37835, offset: 0x2D2A92, size: 0x8, addend: 0x0, symName: '__ZNSt3__110__function6__funcIZN19llama_memory_hybridC1ERK11llama_model9ggml_typeS6_bjjj14llama_swa_typeS6_S6_jjbbONS_8functionIFbiEEESB_E3$_1NS_9allocatorISC_EES9_E18destroy_deallocateEv', symObjAddr: 0x1B80, symBinAddr: 0x56158, symSize: 0x4 }
  - { offsetInCU: 0x3786B, offset: 0x2D2AC8, size: 0x8, addend: 0x0, symName: '__ZNSt3__110__function6__funcIZN19llama_memory_hybridC1ERK11llama_model9ggml_typeS6_bjjj14llama_swa_typeS6_S6_jjbbONS_8functionIFbiEEESB_E3$_1NS_9allocatorISC_EES9_E18destroy_deallocateEv', symObjAddr: 0x1B80, symBinAddr: 0x56158, symSize: 0x4 }
  - { offsetInCU: 0x3788E, offset: 0x2D2AEB, size: 0x8, addend: 0x0, symName: '__ZNSt3__110__function6__funcIZN19llama_memory_hybridC1ERK11llama_model9ggml_typeS6_bjjj14llama_swa_typeS6_S6_jjbbONS_8functionIFbiEEESB_E3$_1NS_9allocatorISC_EES9_E18destroy_deallocateEv', symObjAddr: 0x1B80, symBinAddr: 0x56158, symSize: 0x4 }
  - { offsetInCU: 0x378BB, offset: 0x2D2B18, size: 0x8, addend: 0x0, symName: '__ZNSt3__110__function6__funcIZN19llama_memory_hybridC1ERK11llama_model9ggml_typeS6_bjjj14llama_swa_typeS6_S6_jjbbONS_8functionIFbiEEESB_E3$_1NS_9allocatorISC_EES9_E18destroy_deallocateEv', symObjAddr: 0x1B80, symBinAddr: 0x56158, symSize: 0x4 }
  - { offsetInCU: 0x378E1, offset: 0x2D2B3E, size: 0x8, addend: 0x0, symName: '__ZNSt3__110__function6__funcIZN19llama_memory_hybridC1ERK11llama_model9ggml_typeS6_bjjj14llama_swa_typeS6_S6_jjbbONS_8functionIFbiEEESB_E3$_1NS_9allocatorISC_EES9_E18destroy_deallocateEv', symObjAddr: 0x1B80, symBinAddr: 0x56158, symSize: 0x4 }
  - { offsetInCU: 0x37985, offset: 0x2D2BE2, size: 0x8, addend: 0x0, symName: '__ZNSt3__110__function6__funcIZN19llama_memory_hybridC1ERK11llama_model9ggml_typeS6_bjjj14llama_swa_typeS6_S6_jjbbONS_8functionIFbiEEESB_E3$_1NS_9allocatorISC_EES9_EclEOi', symObjAddr: 0x1B84, symBinAddr: 0x5615C, symSize: 0x10 }
  - { offsetInCU: 0x37A1D, offset: 0x2D2C7A, size: 0x8, addend: 0x0, symName: '__ZNKSt3__110__function6__funcIZN19llama_memory_hybridC1ERK11llama_model9ggml_typeS6_bjjj14llama_swa_typeS6_S6_jjbbONS_8functionIFbiEEESB_E3$_1NS_9allocatorISC_EES9_E6targetERKSt9type_info', symObjAddr: 0x1B94, symBinAddr: 0x5616C, symSize: 0x60 }
  - { offsetInCU: 0x37AA2, offset: 0x2D2CFF, size: 0x8, addend: 0x0, symName: '__ZNKSt3__110__function6__funcIZN19llama_memory_hybridC1ERK11llama_model9ggml_typeS6_bjjj14llama_swa_typeS6_S6_jjbbONS_8functionIFbiEEESB_E3$_1NS_9allocatorISC_EES9_E11target_typeEv', symObjAddr: 0x1BF4, symBinAddr: 0x561CC, symSize: 0xC }
  - { offsetInCU: 0x37FD2, offset: 0x2D322F, size: 0x8, addend: 0x0, symName: __ZNSt3__16vectorI12llama_ubatchNS_9allocatorIS1_EEEC2ERKS4_.cold.1, symObjAddr: 0x1F68, symBinAddr: 0x1FD2EC, symSize: 0x88 }
  - { offsetInCU: 0x21FB7, offset: 0x2F553D, size: 0x8, addend: 0x0, symName: __ZN22llama_memory_recurrentC2ERK11llama_modelONSt3__18functionIFbiEEE9ggml_typeS8_bjj, symObjAddr: 0x0, symBinAddr: 0x561D8, symSize: 0x724 }
  - { offsetInCU: 0x241C3, offset: 0x2F7749, size: 0x8, addend: 0x0, symName: __ZNSt3__16vectorIN22llama_memory_recurrent8mem_cellENS_9allocatorIS2_EEE8__appendEm, symObjAddr: 0x4748, symBinAddr: 0x5A1FC, symSize: 0x210 }
  - { offsetInCU: 0x24B12, offset: 0x2F8098, size: 0x8, addend: 0x0, symName: __ZNKSt3__16vectorIN22llama_memory_recurrent8mem_cellENS_9allocatorIS2_EEE20__throw_length_errorB8ue170006Ev, symObjAddr: 0x4958, symBinAddr: 0x5A40C, symSize: 0x14 }
  - { offsetInCU: 0x24B1D, offset: 0x2F80A3, size: 0x8, addend: 0x0, symName: __ZNSt3__16vectorIP11ggml_tensorNS_9allocatorIS2_EEE8__appendEm, symObjAddr: 0x49AC, symBinAddr: 0x5A420, symSize: 0x11C }
  - { offsetInCU: 0x25C2C, offset: 0x2F91B2, size: 0x8, addend: 0x0, symName: __ZNSt3__16vectorIN22llama_memory_recurrent8mem_cellENS_9allocatorIS2_EEED1B8ue170006Ev, symObjAddr: 0x8BC, symBinAddr: 0x569B4, symSize: 0x68 }
  - { offsetInCU: 0x25EC7, offset: 0x2F944D, size: 0x8, addend: 0x0, symName: __ZNK22llama_memory_recurrent12size_r_bytesEv, symObjAddr: 0x724, symBinAddr: 0x568FC, symSize: 0x5C }
  - { offsetInCU: 0x25F75, offset: 0x2F94FB, size: 0x8, addend: 0x0, symName: __ZNK22llama_memory_recurrent12size_s_bytesEv, symObjAddr: 0x780, symBinAddr: 0x56958, symSize: 0x5C }
  - { offsetInCU: 0x2660A, offset: 0x2F9B90, size: 0x8, addend: 0x0, symName: __ZN22llama_memory_recurrentC1ERK11llama_modelONSt3__18functionIFbiEEE9ggml_typeS8_bjj, symObjAddr: 0x924, symBinAddr: 0x56A1C, symSize: 0x4 }
  - { offsetInCU: 0x2669F, offset: 0x2F9C25, size: 0x8, addend: 0x0, symName: __ZN22llama_memory_recurrentC1ERK11llama_modelONSt3__18functionIFbiEEE9ggml_typeS8_bjj, symObjAddr: 0x924, symBinAddr: 0x56A1C, symSize: 0x4 }
  - { offsetInCU: 0x26763, offset: 0x2F9CE9, size: 0x8, addend: 0x0, symName: __ZN22llama_memory_recurrent5clearEb, symObjAddr: 0x928, symBinAddr: 0x56A20, symSize: 0xC8 }
  - { offsetInCU: 0x26C18, offset: 0x2FA19E, size: 0x8, addend: 0x0, symName: __ZN22llama_memory_recurrent6seq_rmEiii, symObjAddr: 0x9F0, symBinAddr: 0x56AE8, symSize: 0x314 }
  - { offsetInCU: 0x273E5, offset: 0x2FA96B, size: 0x8, addend: 0x0, symName: __ZN22llama_memory_recurrent6seq_cpEiiii, symObjAddr: 0xD04, symBinAddr: 0x56DFC, symSize: 0x1E8 }
  - { offsetInCU: 0x279D4, offset: 0x2FAF5A, size: 0x8, addend: 0x0, symName: __ZN22llama_memory_recurrent8seq_keepEi, symObjAddr: 0xEEC, symBinAddr: 0x56FE4, symSize: 0x1DC }
  - { offsetInCU: 0x27E37, offset: 0x2FB3BD, size: 0x8, addend: 0x0, symName: __ZN22llama_memory_recurrent7seq_addEiiii, symObjAddr: 0x10C8, symBinAddr: 0x571C0, symSize: 0xA8 }
  - { offsetInCU: 0x2801A, offset: 0x2FB5A0, size: 0x8, addend: 0x0, symName: __ZN22llama_memory_recurrent7seq_divEiiii, symObjAddr: 0x1170, symBinAddr: 0x57268, symSize: 0xAC }
  - { offsetInCU: 0x2826E, offset: 0x2FB7F4, size: 0x8, addend: 0x0, symName: __ZNK22llama_memory_recurrent11seq_pos_minEi, symObjAddr: 0x121C, symBinAddr: 0x57314, symSize: 0x90 }
  - { offsetInCU: 0x28450, offset: 0x2FB9D6, size: 0x8, addend: 0x0, symName: __ZNK22llama_memory_recurrent11seq_pos_maxEi, symObjAddr: 0x12AC, symBinAddr: 0x573A4, symSize: 0x84 }
  - { offsetInCU: 0x28D33, offset: 0x2FC2B9, size: 0x8, addend: 0x0, symName: __ZN22llama_memory_recurrent10init_batchER18llama_batch_allocrjb, symObjAddr: 0x1330, symBinAddr: 0x57428, symSize: 0x450 }
  - { offsetInCU: 0x29DB7, offset: 0x2FD33D, size: 0x8, addend: 0x0, symName: __ZN22llama_memory_recurrent7prepareERKNSt3__16vectorI12llama_ubatchNS0_9allocatorIS2_EEEE, symObjAddr: 0x17E0, symBinAddr: 0x57878, symSize: 0x128 }
  - { offsetInCU: 0x2A54B, offset: 0x2FDAD1, size: 0x8, addend: 0x0, symName: __ZNSt3__16vectorIN22llama_memory_recurrent8mem_cellENS_9allocatorIS2_EEE16__init_with_sizeB8ue170006IPS2_S7_EEvT_T0_m, symObjAddr: 0x51D0, symBinAddr: 0x5A53C, symSize: 0x144 }
  - { offsetInCU: 0x2AC43, offset: 0x2FE1C9, size: 0x8, addend: 0x0, symName: __ZN22llama_memory_recurrent9find_slotERK12llama_ubatch, symObjAddr: 0x1A40, symBinAddr: 0x57A40, symSize: 0xCA8 }
  - { offsetInCU: 0x2C6B5, offset: 0x2FFC3B, size: 0x8, addend: 0x0, symName: __ZN22llama_memory_recurrent9init_fullEv, symObjAddr: 0x19A0, symBinAddr: 0x579A0, symSize: 0x54 }
  - { offsetInCU: 0x2C80C, offset: 0x2FFD92, size: 0x8, addend: 0x0, symName: __ZN22llama_memory_recurrent11init_updateEP13llama_contextb, symObjAddr: 0x19F4, symBinAddr: 0x579F4, symSize: 0x4C }
  - { offsetInCU: 0x2CD53, offset: 0x3002D9, size: 0x8, addend: 0x0, symName: __ZNK22llama_memory_recurrent13get_can_shiftEv, symObjAddr: 0x26E8, symBinAddr: 0x586E8, symSize: 0x8 }
  - { offsetInCU: 0x2CD96, offset: 0x30031C, size: 0x8, addend: 0x0, symName: __ZNK22llama_memory_recurrent10total_sizeEv, symObjAddr: 0x26F0, symBinAddr: 0x586F0, symSize: 0x60 }
  - { offsetInCU: 0x2D61F, offset: 0x300BA5, size: 0x8, addend: 0x0, symName: __ZNK22llama_memory_recurrent11state_writeER16llama_io_write_ii, symObjAddr: 0x2750, symBinAddr: 0x58750, symSize: 0x5A4 }
  - { offsetInCU: 0x2E55D, offset: 0x301AE3, size: 0x8, addend: 0x0, symName: __ZNK22llama_memory_recurrent16state_write_metaER16llama_io_write_iRKNSt3__16vectorINS2_4pairIjjEENS2_9allocatorIS5_EEEEi, symObjAddr: 0x2CF4, symBinAddr: 0x58CF4, symSize: 0x164 }
  - { offsetInCU: 0x2E8CE, offset: 0x301E54, size: 0x8, addend: 0x0, symName: __ZNK22llama_memory_recurrent16state_write_dataER16llama_io_write_iRKNSt3__16vectorINS2_4pairIjjEENS2_9allocatorIS5_EEEE, symObjAddr: 0x2E58, symBinAddr: 0x58E58, symSize: 0x22C }
  - { offsetInCU: 0x2EE4B, offset: 0x3023D1, size: 0x8, addend: 0x0, symName: __ZN22llama_memory_recurrent10state_readER15llama_io_read_ii, symObjAddr: 0x3084, symBinAddr: 0x59084, symSize: 0xF4 }
  - { offsetInCU: 0x2EF40, offset: 0x3024C6, size: 0x8, addend: 0x0, symName: __ZN22llama_memory_recurrent15state_read_metaER15llama_io_read_iji, symObjAddr: 0x3178, symBinAddr: 0x59178, symSize: 0x5D0 }
  - { offsetInCU: 0x2F817, offset: 0x302D9D, size: 0x8, addend: 0x0, symName: __ZN22llama_memory_recurrent15state_read_dataER15llama_io_read_ij, symObjAddr: 0x3748, symBinAddr: 0x59748, symSize: 0x544 }
  - { offsetInCU: 0x30AD6, offset: 0x30405C, size: 0x8, addend: 0x0, symName: __ZN30llama_memory_recurrent_contextC2E19llama_memory_status, symObjAddr: 0x3C8C, symBinAddr: 0x59C8C, symSize: 0x24 }
  - { offsetInCU: 0x30B3B, offset: 0x3040C1, size: 0x8, addend: 0x0, symName: __ZN30llama_memory_recurrent_contextC1E19llama_memory_status, symObjAddr: 0x3CB0, symBinAddr: 0x59CB0, symSize: 0x24 }
  - { offsetInCU: 0x30B64, offset: 0x3040EA, size: 0x8, addend: 0x0, symName: __ZN30llama_memory_recurrent_contextC1E19llama_memory_status, symObjAddr: 0x3CB0, symBinAddr: 0x59CB0, symSize: 0x24 }
  - { offsetInCU: 0x30BC4, offset: 0x30414A, size: 0x8, addend: 0x0, symName: __ZN30llama_memory_recurrent_contextC2EP22llama_memory_recurrent, symObjAddr: 0x3CD4, symBinAddr: 0x59CD4, symSize: 0x2C }
  - { offsetInCU: 0x30C29, offset: 0x3041AF, size: 0x8, addend: 0x0, symName: __ZN30llama_memory_recurrent_contextC1EP22llama_memory_recurrent, symObjAddr: 0x3D00, symBinAddr: 0x59D00, symSize: 0x2C }
  - { offsetInCU: 0x30C52, offset: 0x3041D8, size: 0x8, addend: 0x0, symName: __ZN30llama_memory_recurrent_contextC1EP22llama_memory_recurrent, symObjAddr: 0x3D00, symBinAddr: 0x59D00, symSize: 0x2C }
  - { offsetInCU: 0x30CB2, offset: 0x304238, size: 0x8, addend: 0x0, symName: __ZN30llama_memory_recurrent_contextC2EP22llama_memory_recurrentNSt3__16vectorI12llama_ubatchNS2_9allocatorIS4_EEEE, symObjAddr: 0x3D2C, symBinAddr: 0x59D2C, symSize: 0x40 }
  - { offsetInCU: 0x30D2D, offset: 0x3042B3, size: 0x8, addend: 0x0, symName: __ZN30llama_memory_recurrent_contextC1EP22llama_memory_recurrentNSt3__16vectorI12llama_ubatchNS2_9allocatorIS4_EEEE, symObjAddr: 0x3D6C, symBinAddr: 0x59D6C, symSize: 0x40 }
  - { offsetInCU: 0x30D5E, offset: 0x3042E4, size: 0x8, addend: 0x0, symName: __ZN30llama_memory_recurrent_contextC1EP22llama_memory_recurrentNSt3__16vectorI12llama_ubatchNS2_9allocatorIS4_EEEE, symObjAddr: 0x3D6C, symBinAddr: 0x59D6C, symSize: 0x40 }
  - { offsetInCU: 0x30DD4, offset: 0x30435A, size: 0x8, addend: 0x0, symName: __ZN30llama_memory_recurrent_contextD2Ev, symObjAddr: 0x3DAC, symBinAddr: 0x59DAC, symSize: 0xA4 }
  - { offsetInCU: 0x3105D, offset: 0x3045E3, size: 0x8, addend: 0x0, symName: __ZN30llama_memory_recurrent_contextD1Ev, symObjAddr: 0x3E50, symBinAddr: 0x59E50, symSize: 0xA4 }
  - { offsetInCU: 0x31303, offset: 0x304889, size: 0x8, addend: 0x0, symName: __ZN30llama_memory_recurrent_contextD0Ev, symObjAddr: 0x3EF4, symBinAddr: 0x59EF4, symSize: 0xA4 }
  - { offsetInCU: 0x315CB, offset: 0x304B51, size: 0x8, addend: 0x0, symName: __ZN30llama_memory_recurrent_context4nextEv, symObjAddr: 0x3F98, symBinAddr: 0x59F98, symSize: 0x38 }
  - { offsetInCU: 0x3164E, offset: 0x304BD4, size: 0x8, addend: 0x0, symName: __ZN30llama_memory_recurrent_context5applyEv, symObjAddr: 0x3FD0, symBinAddr: 0x59FD0, symSize: 0x34 }
  - { offsetInCU: 0x316C2, offset: 0x304C48, size: 0x8, addend: 0x0, symName: __ZNK30llama_memory_recurrent_context10get_statusEv, symObjAddr: 0x4004, symBinAddr: 0x5A004, symSize: 0x8 }
  - { offsetInCU: 0x31710, offset: 0x304C96, size: 0x8, addend: 0x0, symName: __ZNK30llama_memory_recurrent_context10get_ubatchEv, symObjAddr: 0x400C, symBinAddr: 0x5A00C, symSize: 0x10 }
  - { offsetInCU: 0x31760, offset: 0x304CE6, size: 0x8, addend: 0x0, symName: __ZNK30llama_memory_recurrent_context8get_n_rsEv, symObjAddr: 0x401C, symBinAddr: 0x5A01C, symSize: 0x20 }
  - { offsetInCU: 0x3178A, offset: 0x304D10, size: 0x8, addend: 0x0, symName: __ZNK30llama_memory_recurrent_context8get_headEv, symObjAddr: 0x403C, symBinAddr: 0x5A03C, symSize: 0x1C }
  - { offsetInCU: 0x317B4, offset: 0x304D3A, size: 0x8, addend: 0x0, symName: __ZNK30llama_memory_recurrent_context8get_rs_zEv, symObjAddr: 0x4058, symBinAddr: 0x5A058, symSize: 0x1C }
  - { offsetInCU: 0x317DE, offset: 0x304D64, size: 0x8, addend: 0x0, symName: __ZNK30llama_memory_recurrent_context8get_sizeEv, symObjAddr: 0x4074, symBinAddr: 0x5A074, symSize: 0xC }
  - { offsetInCU: 0x31808, offset: 0x304D8E, size: 0x8, addend: 0x0, symName: __ZNK30llama_memory_recurrent_context7get_r_lEi, symObjAddr: 0x4080, symBinAddr: 0x5A080, symSize: 0x10 }
  - { offsetInCU: 0x31860, offset: 0x304DE6, size: 0x8, addend: 0x0, symName: __ZNK30llama_memory_recurrent_context7get_s_lEi, symObjAddr: 0x4090, symBinAddr: 0x5A090, symSize: 0x10 }
  - { offsetInCU: 0x318B9, offset: 0x304E3F, size: 0x8, addend: 0x0, symName: __ZNK30llama_memory_recurrent_context6s_copyEi, symObjAddr: 0x40A0, symBinAddr: 0x5A0A0, symSize: 0x20 }
  - { offsetInCU: 0x31911, offset: 0x304E97, size: 0x8, addend: 0x0, symName: __ZN22llama_memory_recurrentD1Ev, symObjAddr: 0x40C0, symBinAddr: 0x5A0C0, symSize: 0x4 }
  - { offsetInCU: 0x31934, offset: 0x304EBA, size: 0x8, addend: 0x0, symName: __ZN22llama_memory_recurrentD1Ev, symObjAddr: 0x40C0, symBinAddr: 0x5A0C0, symSize: 0x4 }
  - { offsetInCU: 0x31947, offset: 0x304ECD, size: 0x8, addend: 0x0, symName: __ZN22llama_memory_recurrentD2Ev, symObjAddr: 0x4624, symBinAddr: 0x5A0D8, symSize: 0x124 }
  - { offsetInCU: 0x3228A, offset: 0x305810, size: 0x8, addend: 0x0, symName: __ZN22llama_memory_recurrentD0Ev, symObjAddr: 0x40C4, symBinAddr: 0x5A0C4, symSize: 0x14 }
  - { offsetInCU: 0x33623, offset: 0x306BA9, size: 0x8, addend: 0x0, symName: __ZNKSt3__16vectorIN22llama_memory_recurrent8mem_cellENS_9allocatorIS2_EEE20__throw_length_errorB8ue170006Ev, symObjAddr: 0x4958, symBinAddr: 0x5A40C, symSize: 0x14 }
  - { offsetInCU: 0x33FB1, offset: 0x307537, size: 0x8, addend: 0x0, symName: __ZNSt3__16vectorIN22llama_memory_recurrent8mem_cellENS_9allocatorIS2_EEE16__init_with_sizeB8ue170006IPS2_S7_EEvT_T0_m, symObjAddr: 0x51D0, symBinAddr: 0x5A53C, symSize: 0x144 }
  - { offsetInCU: 0x34343, offset: 0x3078C9, size: 0x8, addend: 0x0, symName: __ZNSt3__13setIiNS_4lessIiEENS_9allocatorIiEEE6insertB8ue170006INS_21__tree_const_iteratorIiPNS_11__tree_nodeIiPvEElEEEEvT_SD_, symObjAddr: 0x53A0, symBinAddr: 0x5A70C, symSize: 0x10C }
  - { offsetInCU: 0x34650, offset: 0x307BD6, size: 0x8, addend: 0x0, symName: __ZNSt3__128__exception_guard_exceptionsINS_6vectorIN22llama_memory_recurrent8mem_cellENS_9allocatorIS3_EEE16__destroy_vectorEED1B8ue170006Ev, symObjAddr: 0x5314, symBinAddr: 0x5A680, symSize: 0x8C }
  - { offsetInCU: 0x349F2, offset: 0x307F78, size: 0x8, addend: 0x0, symName: __ZNSt3__16__treeIiNS_4lessIiEENS_9allocatorIiEEE12__find_equalIiEERPNS_16__tree_node_baseIPvEENS_21__tree_const_iteratorIiPNS_11__tree_nodeIiS8_EElEERPNS_15__tree_end_nodeISA_EESB_RKT_, symObjAddr: 0x54AC, symBinAddr: 0x5A818, symSize: 0x1A8 }
  - { offsetInCU: 0x34A5A, offset: 0x307FE0, size: 0x8, addend: 0x0, symName: __ZNSt3__16__treeIiNS_4lessIiEENS_9allocatorIiEEE12__find_equalIiEERPNS_16__tree_node_baseIPvEENS_21__tree_const_iteratorIiPNS_11__tree_nodeIiS8_EElEERPNS_15__tree_end_nodeISA_EESB_RKT_, symObjAddr: 0x54AC, symBinAddr: 0x5A818, symSize: 0x1A8 }
  - { offsetInCU: 0x34A76, offset: 0x307FFC, size: 0x8, addend: 0x0, symName: __ZNSt3__16__treeIiNS_4lessIiEENS_9allocatorIiEEE12__find_equalIiEERPNS_16__tree_node_baseIPvEENS_21__tree_const_iteratorIiPNS_11__tree_nodeIiS8_EElEERPNS_15__tree_end_nodeISA_EESB_RKT_, symObjAddr: 0x54AC, symBinAddr: 0x5A818, symSize: 0x1A8 }
  - { offsetInCU: 0x26, offset: 0x308336, size: 0x8, addend: 0x0, symName: __Z27llama_memory_status_combine19llama_memory_statusS_, symObjAddr: 0x0, symBinAddr: 0x5A9C0, symSize: 0x38 }
  - { offsetInCU: 0x17DA, offset: 0x309AEA, size: 0x8, addend: 0x0, symName: __Z27llama_memory_status_combine19llama_memory_statusS_, symObjAddr: 0x0, symBinAddr: 0x5A9C0, symSize: 0x38 }
  - { offsetInCU: 0x1827, offset: 0x309B37, size: 0x8, addend: 0x0, symName: __Z27llama_memory_status_is_fail19llama_memory_status, symObjAddr: 0x38, symBinAddr: 0x5A9F8, symSize: 0x10 }
  - { offsetInCU: 0x39, offset: 0x309B9F, size: 0x8, addend: 0x0, symName: __ZN10llama_mmap9SUPPORTEDE, symObjAddr: 0x15C0, symBinAddr: 0x20E948, symSize: 0x0 }
  - { offsetInCU: 0x5F3F, offset: 0x30FAA5, size: 0x8, addend: 0x0, symName: __ZN11llama_mlock9SUPPORTEDE, symObjAddr: 0x15C1, symBinAddr: 0x20E949, symSize: 0x0 }
  - { offsetInCU: 0x8065, offset: 0x311BCB, size: 0x8, addend: 0x0, symName: __ZN10llama_fileC2EPKcS1_, symObjAddr: 0x0, symBinAddr: 0x5AA08, symSize: 0x60 }
  - { offsetInCU: 0x818B, offset: 0x311CF1, size: 0x8, addend: 0x0, symName: __ZN10llama_file4implC2EPKcS2_, symObjAddr: 0x1024, symBinAddr: 0x5B984, symSize: 0x108 }
  - { offsetInCU: 0x83AE, offset: 0x311F14, size: 0x8, addend: 0x0, symName: __ZN10llama_fileC1EPKcS1_, symObjAddr: 0x60, symBinAddr: 0x5AA68, symSize: 0x60 }
  - { offsetInCU: 0x85D2, offset: 0x312138, size: 0x8, addend: 0x0, symName: __ZN10llama_fileD2Ev, symObjAddr: 0xC0, symBinAddr: 0x5AAC8, symSize: 0x40 }
  - { offsetInCU: 0x86F5, offset: 0x31225B, size: 0x8, addend: 0x0, symName: __ZN10llama_fileD1Ev, symObjAddr: 0x100, symBinAddr: 0x5AB08, symSize: 0x40 }
  - { offsetInCU: 0x882D, offset: 0x312393, size: 0x8, addend: 0x0, symName: __ZNK10llama_file4tellEv, symObjAddr: 0x140, symBinAddr: 0x5AB48, symSize: 0x8 }
  - { offsetInCU: 0x8859, offset: 0x3123BF, size: 0x8, addend: 0x0, symName: __ZNK10llama_file4tellEv, symObjAddr: 0x140, symBinAddr: 0x5AB48, symSize: 0x8 }
  - { offsetInCU: 0x8881, offset: 0x3123E7, size: 0x8, addend: 0x0, symName: __ZNK10llama_file4impl4tellEv, symObjAddr: 0x148, symBinAddr: 0x5AB50, symSize: 0xCC }
  - { offsetInCU: 0x8AF4, offset: 0x31265A, size: 0x8, addend: 0x0, symName: __ZNK10llama_file4sizeEv, symObjAddr: 0x214, symBinAddr: 0x5AC1C, symSize: 0xC }
  - { offsetInCU: 0x8B19, offset: 0x31267F, size: 0x8, addend: 0x0, symName: __ZNK10llama_file4sizeEv, symObjAddr: 0x214, symBinAddr: 0x5AC1C, symSize: 0xC }
  - { offsetInCU: 0x8B33, offset: 0x312699, size: 0x8, addend: 0x0, symName: __ZNK10llama_file7file_idEv, symObjAddr: 0x220, symBinAddr: 0x5AC28, symSize: 0xC }
  - { offsetInCU: 0x8B58, offset: 0x3126BE, size: 0x8, addend: 0x0, symName: __ZNK10llama_file7file_idEv, symObjAddr: 0x220, symBinAddr: 0x5AC28, symSize: 0xC }
  - { offsetInCU: 0x8B92, offset: 0x3126F8, size: 0x8, addend: 0x0, symName: __ZNK10llama_file4seekEmi, symObjAddr: 0x22C, symBinAddr: 0x5AC34, symSize: 0x8 }
  - { offsetInCU: 0x8BDD, offset: 0x312743, size: 0x8, addend: 0x0, symName: __ZNK10llama_file4seekEmi, symObjAddr: 0x22C, symBinAddr: 0x5AC34, symSize: 0x8 }
  - { offsetInCU: 0x8C14, offset: 0x31277A, size: 0x8, addend: 0x0, symName: __ZNK10llama_file4impl4seekEmi, symObjAddr: 0x234, symBinAddr: 0x5AC3C, symSize: 0xC8 }
  - { offsetInCU: 0x8DDD, offset: 0x312943, size: 0x8, addend: 0x0, symName: __ZNK10llama_file8read_rawEPvm, symObjAddr: 0x2FC, symBinAddr: 0x5AD04, symSize: 0x8 }
  - { offsetInCU: 0x8E28, offset: 0x31298E, size: 0x8, addend: 0x0, symName: __ZNK10llama_file8read_rawEPvm, symObjAddr: 0x2FC, symBinAddr: 0x5AD04, symSize: 0x8 }
  - { offsetInCU: 0x8E5F, offset: 0x3129C5, size: 0x8, addend: 0x0, symName: __ZNK10llama_file4impl8read_rawEPvm, symObjAddr: 0x304, symBinAddr: 0x5AD0C, symSize: 0x138 }
  - { offsetInCU: 0x9036, offset: 0x312B9C, size: 0x8, addend: 0x0, symName: __ZNK10llama_file8read_u32Ev, symObjAddr: 0x43C, symBinAddr: 0x5AE44, symSize: 0x2C }
  - { offsetInCU: 0x90BE, offset: 0x312C24, size: 0x8, addend: 0x0, symName: __ZNK10llama_file9write_rawEPKvm, symObjAddr: 0x468, symBinAddr: 0x5AE70, symSize: 0x8 }
  - { offsetInCU: 0x9109, offset: 0x312C6F, size: 0x8, addend: 0x0, symName: __ZNK10llama_file9write_rawEPKvm, symObjAddr: 0x468, symBinAddr: 0x5AE70, symSize: 0x8 }
  - { offsetInCU: 0x9140, offset: 0x312CA6, size: 0x8, addend: 0x0, symName: __ZNK10llama_file4impl9write_rawEPKvm, symObjAddr: 0x470, symBinAddr: 0x5AE78, symSize: 0xF0 }
  - { offsetInCU: 0x92F2, offset: 0x312E58, size: 0x8, addend: 0x0, symName: __ZNK10llama_file9write_u32Ej, symObjAddr: 0x560, symBinAddr: 0x5AF68, symSize: 0x2C }
  - { offsetInCU: 0x94EE, offset: 0x313054, size: 0x8, addend: 0x0, symName: __ZN10llama_mmapC2EP10llama_filemb, symObjAddr: 0x58C, symBinAddr: 0x5AF94, symSize: 0x70 }
  - { offsetInCU: 0x9623, offset: 0x313189, size: 0x8, addend: 0x0, symName: __ZN10llama_mmap4implC2EP10llama_filemb, symObjAddr: 0x112C, symBinAddr: 0x5BA8C, symSize: 0x2B4 }
  - { offsetInCU: 0xA05C, offset: 0x313BC2, size: 0x8, addend: 0x0, symName: __ZN10llama_mmapC1EP10llama_filemb, symObjAddr: 0x5FC, symBinAddr: 0x5B004, symSize: 0x70 }
  - { offsetInCU: 0xA286, offset: 0x313DEC, size: 0x8, addend: 0x0, symName: __ZN10llama_mmapD2Ev, symObjAddr: 0x66C, symBinAddr: 0x5B074, symSize: 0x34 }
  - { offsetInCU: 0xA35E, offset: 0x313EC4, size: 0x8, addend: 0x0, symName: __ZN10llama_mmap4implD2Ev, symObjAddr: 0x13E0, symBinAddr: 0x5BD40, symSize: 0xA4 }
  - { offsetInCU: 0xA5B3, offset: 0x314119, size: 0x8, addend: 0x0, symName: __ZN10llama_mmapD1Ev, symObjAddr: 0x6A0, symBinAddr: 0x5B0A8, symSize: 0x34 }
  - { offsetInCU: 0xA6CF, offset: 0x314235, size: 0x8, addend: 0x0, symName: __ZNK10llama_mmap4sizeEv, symObjAddr: 0x6D4, symBinAddr: 0x5B0DC, symSize: 0xC }
  - { offsetInCU: 0xA6FC, offset: 0x314262, size: 0x8, addend: 0x0, symName: __ZNK10llama_mmap4sizeEv, symObjAddr: 0x6D4, symBinAddr: 0x5B0DC, symSize: 0xC }
  - { offsetInCU: 0xA716, offset: 0x31427C, size: 0x8, addend: 0x0, symName: __ZNK10llama_mmap4addrEv, symObjAddr: 0x6E0, symBinAddr: 0x5B0E8, symSize: 0xC }
  - { offsetInCU: 0xA743, offset: 0x3142A9, size: 0x8, addend: 0x0, symName: __ZNK10llama_mmap4addrEv, symObjAddr: 0x6E0, symBinAddr: 0x5B0E8, symSize: 0xC }
  - { offsetInCU: 0xA75D, offset: 0x3142C3, size: 0x8, addend: 0x0, symName: __ZN10llama_mmap14unmap_fragmentEmm, symObjAddr: 0x6EC, symBinAddr: 0x5B0F4, symSize: 0x8 }
  - { offsetInCU: 0xA7A8, offset: 0x31430E, size: 0x8, addend: 0x0, symName: __ZN10llama_mmap14unmap_fragmentEmm, symObjAddr: 0x6EC, symBinAddr: 0x5B0F4, symSize: 0x8 }
  - { offsetInCU: 0xA7DF, offset: 0x314345, size: 0x8, addend: 0x0, symName: __ZN10llama_mmap4impl14unmap_fragmentEmm, symObjAddr: 0x6F4, symBinAddr: 0x5B0FC, symSize: 0x640 }
  - { offsetInCU: 0xCF0B, offset: 0x316A71, size: 0x8, addend: 0x0, symName: __ZNKSt3__16vectorINS_4pairImmEENS_9allocatorIS2_EEE20__throw_length_errorB8ue170006Ev, symObjAddr: 0xF74, symBinAddr: 0x5B970, symSize: 0x14 }
  - { offsetInCU: 0xD0A6, offset: 0x316C0C, size: 0x8, addend: 0x0, symName: __ZN11llama_mlockC2Ev, symObjAddr: 0xD34, symBinAddr: 0x5B73C, symSize: 0x34 }
  - { offsetInCU: 0xD1D9, offset: 0x316D3F, size: 0x8, addend: 0x0, symName: __ZN11llama_mlockC1Ev, symObjAddr: 0xD68, symBinAddr: 0x5B770, symSize: 0x34 }
  - { offsetInCU: 0xD39B, offset: 0x316F01, size: 0x8, addend: 0x0, symName: __ZN11llama_mlockD2Ev, symObjAddr: 0xD9C, symBinAddr: 0x5B7A4, symSize: 0x30 }
  - { offsetInCU: 0xD465, offset: 0x316FCB, size: 0x8, addend: 0x0, symName: __ZN11llama_mlockD1Ev, symObjAddr: 0xDCC, symBinAddr: 0x5B7D4, symSize: 0x30 }
  - { offsetInCU: 0xD578, offset: 0x3170DE, size: 0x8, addend: 0x0, symName: __ZN11llama_mlock4initEPv, symObjAddr: 0xDFC, symBinAddr: 0x5B804, symSize: 0x54 }
  - { offsetInCU: 0xD5E8, offset: 0x31714E, size: 0x8, addend: 0x0, symName: __ZN11llama_mlock7grow_toEm, symObjAddr: 0xE50, symBinAddr: 0x5B858, symSize: 0x8 }
  - { offsetInCU: 0xD5FB, offset: 0x317161, size: 0x8, addend: 0x0, symName: __ZN11llama_mlock7grow_toEm, symObjAddr: 0xE50, symBinAddr: 0x5B858, symSize: 0x8 }
  - { offsetInCU: 0xD637, offset: 0x31719D, size: 0x8, addend: 0x0, symName: __ZN11llama_mlock7grow_toEm, symObjAddr: 0xE50, symBinAddr: 0x5B858, symSize: 0x8 }
  - { offsetInCU: 0xD667, offset: 0x3171CD, size: 0x8, addend: 0x0, symName: __ZN11llama_mlock4impl7grow_toEm, symObjAddr: 0xE58, symBinAddr: 0x5B860, symSize: 0x108 }
  - { offsetInCU: 0xD73F, offset: 0x3172A5, size: 0x8, addend: 0x0, symName: __Z14llama_path_maxv, symObjAddr: 0xF60, symBinAddr: 0x5B968, symSize: 0x8 }
  - { offsetInCU: 0xD7BB, offset: 0x317321, size: 0x8, addend: 0x0, symName: __Z14llama_path_maxv, symObjAddr: 0xF60, symBinAddr: 0x5B968, symSize: 0x8 }
  - { offsetInCU: 0x2540B, offset: 0x33CA78, size: 0x8, addend: 0x0, symName: __ZNSt3__120__throw_future_errorB8ue170006ENS_11future_errcE, symObjAddr: 0xA89C, symBinAddr: 0x65B6C, symSize: 0x5C }
  - { offsetInCU: 0x2637B, offset: 0x33D9E8, size: 0x8, addend: 0x0, symName: '__ZNSt3__114__thread_proxyB8ue170006INS_5tupleIJNS_10unique_ptrINS_15__thread_structENS_14default_deleteIS3_EEEEMNS_19__async_assoc_stateINS_4pairIP11ggml_tensorbEENS_12__async_funcIZN18llama_model_loader13load_all_dataEP12ggml_contextRNS_13unordered_mapIjP19ggml_backend_bufferNS_4hashIjEENS_8equal_toIjEENS_9allocatorINS8_IKjSI_EEEEEEPNS_6vectorINS2_I11llama_mlockNS4_ISU_EEEENSN_ISW_EEEEPFbfPvES10_E3$_1JEEEEEFvvEPS15_EEEEES10_S10_', symObjAddr: 0xA8F8, symBinAddr: 0x65BC8, symSize: 0x8C }
  - { offsetInCU: 0x268B5, offset: 0x33DF22, size: 0x8, addend: 0x0, symName: '__ZNSt3__114__thread_proxyB8ue170006INS_5tupleIJNS_10unique_ptrINS_15__thread_structENS_14default_deleteIS3_EEEEMNS_19__async_assoc_stateINS_4pairIP11ggml_tensorbEENS_12__async_funcIZN18llama_model_loader13load_all_dataEP12ggml_contextRNS_13unordered_mapIjP19ggml_backend_bufferNS_4hashIjEENS_8equal_toIjEENS_9allocatorINS8_IKjSI_EEEEEEPNS_6vectorINS2_I11llama_mlockNS4_ISU_EEEENSN_ISW_EEEEPFbfPvES10_E3$_2JEEEEEFvvEPS15_EEEEES10_S10_', symObjAddr: 0xAD04, symBinAddr: 0x65FD4, symSize: 0x8C }
  - { offsetInCU: 0x2B005, offset: 0x342672, size: 0x8, addend: 0x0, symName: __ZN18llama_model_loader13load_all_dataEP12ggml_contextRNSt3__113unordered_mapIjP19ggml_backend_bufferNS2_4hashIjEENS2_8equal_toIjEENS2_9allocatorINS2_4pairIKjS5_EEEEEEPNS2_6vectorINS2_10unique_ptrI11llama_mlockNS2_14default_deleteISJ_EEEENSA_ISM_EEEEPFbfPvESQ_, symObjAddr: 0x539C, symBinAddr: 0x60FC8, symSize: 0x1554 }
  - { offsetInCU: 0x31B02, offset: 0x34916F, size: 0x8, addend: 0x0, symName: __Z23llama_file_version_name10llama_fver, symObjAddr: 0x0, symBinAddr: 0x5BDE4, symSize: 0x28 }
  - { offsetInCU: 0x31BE6, offset: 0x349253, size: 0x8, addend: 0x0, symName: __ZN18llama_model_loader9get_arr_nIjEENSt3__19enable_ifIXsr3std11is_integralIT_EE5valueEbE4typeE6llm_kvRS3_b, symObjAddr: 0x28, symBinAddr: 0x5BE0C, symSize: 0xA0 }
  - { offsetInCU: 0x31EA8, offset: 0x349515, size: 0x8, addend: 0x0, symName: __ZN18llama_model_loader9get_arr_nIjEENSt3__19enable_ifIXsr3std11is_integralIT_EE5valueEbE4typeERKNS1_12basic_stringIcNS1_11char_traitsIcEENS1_9allocatorIcEEEERS3_b, symObjAddr: 0xC8, symBinAddr: 0x5BEAC, symSize: 0x120 }
  - { offsetInCU: 0x3222B, offset: 0x349898, size: 0x8, addend: 0x0, symName: __ZN8GGUFMeta3GKVINS_9ArrayInfoEE6get_kvEPK12gguf_contexti, symObjAddr: 0x71D8, symBinAddr: 0x62CBC, symSize: 0x150 }
  - { offsetInCU: 0x3248A, offset: 0x349AF7, size: 0x8, addend: 0x0, symName: __ZN18llama_model_loader7get_arrINSt3__16vectorINS1_12basic_stringIcNS1_11char_traitsIcEENS1_9allocatorIcEEEENS6_IS8_EEEEEEb6llm_kvRT_b, symObjAddr: 0x1E8, symBinAddr: 0x5BFCC, symSize: 0xA0 }
  - { offsetInCU: 0x3274C, offset: 0x349DB9, size: 0x8, addend: 0x0, symName: __ZN18llama_model_loader7get_arrINSt3__112basic_stringIcNS1_11char_traitsIcEENS1_9allocatorIcEEEEEEbRKS7_RNS1_6vectorIT_NS5_ISB_EEEEb, symObjAddr: 0x288, symBinAddr: 0x5C06C, symSize: 0x3F4 }
  - { offsetInCU: 0x33CCE, offset: 0x34B33B, size: 0x8, addend: 0x0, symName: __ZNSt3__16vectorINS_12basic_stringIcNS_11char_traitsIcEENS_9allocatorIcEEEENS4_IS6_EEE24__emplace_back_slow_pathIJRKS6_EEEvDpOT_, symObjAddr: 0x7328, symBinAddr: 0x62E0C, symSize: 0x228 }
  - { offsetInCU: 0x34712, offset: 0x34BD7F, size: 0x8, addend: 0x0, symName: __ZNSt3__16vectorINS_12basic_stringIcNS_11char_traitsIcEENS_9allocatorIcEEEENS4_IS6_EEE21__push_back_slow_pathIS6_EEvOT_, symObjAddr: 0x6FB8, symBinAddr: 0x62B14, symSize: 0x16C }
  - { offsetInCU: 0x3473C, offset: 0x34BDA9, size: 0x8, addend: 0x0, symName: __ZN18llama_model_loader7get_keyIbEEb6llm_kvRT_b, symObjAddr: 0x67C, symBinAddr: 0x5C460, symSize: 0xA0 }
  - { offsetInCU: 0x349FE, offset: 0x34C06B, size: 0x8, addend: 0x0, symName: __ZN18llama_model_loader7get_keyIbEEbRKNSt3__112basic_stringIcNS1_11char_traitsIcEENS1_9allocatorIcEEEERT_b, symObjAddr: 0x71C, symBinAddr: 0x5C500, symSize: 0x15C }
  - { offsetInCU: 0x34EE8, offset: 0x34C555, size: 0x8, addend: 0x0, symName: __ZNSt3__112__hash_tableINS_17__hash_value_typeINS_12basic_stringIcNS_11char_traitsIcEENS_9allocatorIcEEEE23llama_model_kv_overrideEENS_22__unordered_map_hasherIS7_S9_NS_4hashIS7_EENS_8equal_toIS7_EELb1EEENS_21__unordered_map_equalIS7_S9_SE_SC_Lb1EEENS5_IS9_EEE4findIS7_EENS_15__hash_iteratorIPNS_11__hash_nodeIS9_PvEEEERKT_, symObjAddr: 0x7550, symBinAddr: 0x63034, symSize: 0x23C }
  - { offsetInCU: 0x35172, offset: 0x34C7DF, size: 0x8, addend: 0x0, symName: __ZN8GGUFMeta3GKVIbE17validate_overrideE28llama_model_kv_override_typePK23llama_model_kv_override, symObjAddr: 0x7D28, symBinAddr: 0x63370, symSize: 0x23C }
  - { offsetInCU: 0x35378, offset: 0x34C9E5, size: 0x8, addend: 0x0, symName: __ZN8GGUFMeta3GKVIbE6get_kvEPK12gguf_contexti, symObjAddr: 0x7C28, symBinAddr: 0x63270, symSize: 0x100 }
  - { offsetInCU: 0x35572, offset: 0x34CBDF, size: 0x8, addend: 0x0, symName: __ZN18llama_model_loader7get_keyIfEEb6llm_kvRT_b, symObjAddr: 0x878, symBinAddr: 0x5C65C, symSize: 0xA0 }
  - { offsetInCU: 0x35834, offset: 0x34CEA1, size: 0x8, addend: 0x0, symName: __ZN18llama_model_loader7get_keyIfEEbRKNSt3__112basic_stringIcNS1_11char_traitsIcEENS1_9allocatorIcEEEERT_b, symObjAddr: 0x918, symBinAddr: 0x5C6FC, symSize: 0x160 }
  - { offsetInCU: 0x35CF7, offset: 0x34D364, size: 0x8, addend: 0x0, symName: __ZN8GGUFMeta3GKVIfE17validate_overrideE28llama_model_kv_override_typePK23llama_model_kv_override, symObjAddr: 0x8064, symBinAddr: 0x636AC, symSize: 0x23C }
  - { offsetInCU: 0x35EFD, offset: 0x34D56A, size: 0x8, addend: 0x0, symName: __ZN8GGUFMeta3GKVIfE6get_kvEPK12gguf_contexti, symObjAddr: 0x7F64, symBinAddr: 0x635AC, symSize: 0x100 }
  - { offsetInCU: 0x360F7, offset: 0x34D764, size: 0x8, addend: 0x0, symName: __ZN18llama_model_loader7get_keyIjEEb6llm_kvRT_b, symObjAddr: 0xA78, symBinAddr: 0x5C85C, symSize: 0xA0 }
  - { offsetInCU: 0x36396, offset: 0x34DA03, size: 0x8, addend: 0x0, symName: __ZN18llama_model_loader7get_keyIjEEbRKNSt3__112basic_stringIcNS1_11char_traitsIcEENS1_9allocatorIcEEEERT_b, symObjAddr: 0xB18, symBinAddr: 0x5C8FC, symSize: 0x15C }
  - { offsetInCU: 0x36859, offset: 0x34DEC6, size: 0x8, addend: 0x0, symName: __ZN8GGUFMeta3GKVIjE17validate_overrideE28llama_model_kv_override_typePK23llama_model_kv_override, symObjAddr: 0x83A0, symBinAddr: 0x639E8, symSize: 0x23C }
  - { offsetInCU: 0x36A5F, offset: 0x34E0CC, size: 0x8, addend: 0x0, symName: __ZN8GGUFMeta3GKVIjE6get_kvEPK12gguf_contexti, symObjAddr: 0x82A0, symBinAddr: 0x638E8, symSize: 0x100 }
  - { offsetInCU: 0x36C59, offset: 0x34E2C6, size: 0x8, addend: 0x0, symName: __ZN18llama_model_loader7get_keyINSt3__112basic_stringIcNS1_11char_traitsIcEENS1_9allocatorIcEEEEEEb6llm_kvRT_b, symObjAddr: 0xC74, symBinAddr: 0x5CA58, symSize: 0xA0 }
  - { offsetInCU: 0x36F1B, offset: 0x34E588, size: 0x8, addend: 0x0, symName: __ZN18llama_model_loader7get_keyINSt3__112basic_stringIcNS1_11char_traitsIcEENS1_9allocatorIcEEEEEEbRKS7_RT_b, symObjAddr: 0xD14, symBinAddr: 0x5CAF8, symSize: 0x184 }
  - { offsetInCU: 0x375A6, offset: 0x34EC13, size: 0x8, addend: 0x0, symName: __ZN8GGUFMeta3GKVINSt3__112basic_stringIcNS1_11char_traitsIcEENS1_9allocatorIcEEEEE17validate_overrideE28llama_model_kv_override_typePK23llama_model_kv_override, symObjAddr: 0x875C, symBinAddr: 0x63DA4, symSize: 0x23C }
  - { offsetInCU: 0x377AC, offset: 0x34EE19, size: 0x8, addend: 0x0, symName: __ZN8GGUFMeta3GKVINSt3__112basic_stringIcNS1_11char_traitsIcEENS1_9allocatorIcEEEEE6get_kvEPK12gguf_contexti, symObjAddr: 0x85DC, symBinAddr: 0x63C24, symSize: 0x180 }
  - { offsetInCU: 0x37D83, offset: 0x34F3F0, size: 0x8, addend: 0x0, symName: __ZN18llama_model_loader7get_keyI18llama_pooling_typeEEb6llm_kvRT_b, symObjAddr: 0xE98, symBinAddr: 0x5CC7C, symSize: 0x98 }
  - { offsetInCU: 0x380A0, offset: 0x34F70D, size: 0x8, addend: 0x0, symName: __ZN18llama_model_loader14get_key_or_arrINSt3__15arrayIiLm4EEEEEb6llm_kvRT_jb, symObjAddr: 0xF30, symBinAddr: 0x5CD14, symSize: 0xA8 }
  - { offsetInCU: 0x38378, offset: 0x34F9E5, size: 0x8, addend: 0x0, symName: __ZN18llama_model_loader14get_key_or_arrIiLm4EEEbRKNSt3__112basic_stringIcNS1_11char_traitsIcEENS1_9allocatorIcEEEERNS1_5arrayIT_XT0_EEEjb, symObjAddr: 0xFD8, symBinAddr: 0x5CDBC, symSize: 0x328 }
  - { offsetInCU: 0x38947, offset: 0x34FFB4, size: 0x8, addend: 0x0, symName: __ZN18llama_model_loader7get_arrIiLm4EEEbRKNSt3__112basic_stringIcNS1_11char_traitsIcEENS1_9allocatorIcEEEERNS1_5arrayIT_XT0_EEEb, symObjAddr: 0x8998, symBinAddr: 0x63FE0, symSize: 0x2C8 }
  - { offsetInCU: 0x38F80, offset: 0x3505ED, size: 0x8, addend: 0x0, symName: __ZN18llama_model_loader7get_keyIiEEbRKNSt3__112basic_stringIcNS1_11char_traitsIcEENS1_9allocatorIcEEEERT_b, symObjAddr: 0x3CF0, symBinAddr: 0x5F98C, symSize: 0x15C }
  - { offsetInCU: 0x39377, offset: 0x3509E4, size: 0x8, addend: 0x0, symName: __ZN18llama_model_loader14get_key_or_arrINSt3__15arrayIjLm512EEEEEb6llm_kvRT_jb, symObjAddr: 0x1300, symBinAddr: 0x5D0E4, symSize: 0xA8 }
  - { offsetInCU: 0x3964F, offset: 0x350CBC, size: 0x8, addend: 0x0, symName: __ZN18llama_model_loader14get_key_or_arrIjLm512EEEbRKNSt3__112basic_stringIcNS1_11char_traitsIcEENS1_9allocatorIcEEEERNS1_5arrayIT_XT0_EEEjb, symObjAddr: 0x13A8, symBinAddr: 0x5D18C, symSize: 0x2F4 }
  - { offsetInCU: 0x39C1F, offset: 0x35128C, size: 0x8, addend: 0x0, symName: __ZN18llama_model_loader7get_arrIjLm512EEEbRKNSt3__112basic_stringIcNS1_11char_traitsIcEENS1_9allocatorIcEEEERNS1_5arrayIT_XT0_EEEb, symObjAddr: 0x8C60, symBinAddr: 0x642A8, symSize: 0x2C8 }
  - { offsetInCU: 0x3C5F7, offset: 0x353C64, size: 0x8, addend: 0x0, symName: __ZN18llama_model_loaderC2ERKNSt3__112basic_stringIcNS0_11char_traitsIcEENS0_9allocatorIcEEEERNS0_6vectorIS6_NS4_IS6_EEEEbbPK23llama_model_kv_overridePK32llama_model_tensor_buft_override, symObjAddr: 0x169C, symBinAddr: 0x5D480, symSize: 0x23B0 }
  - { offsetInCU: 0x45A62, offset: 0x35D0CF, size: 0x8, addend: 0x0, symName: __ZNSt3__112__hash_tableINS_17__hash_value_typeINS_12basic_stringIcNS_11char_traitsIcEENS_9allocatorIcEEEE23llama_model_kv_overrideEENS_22__unordered_map_hasherIS7_S9_NS_4hashIS7_EENS_8equal_toIS7_EELb1EEENS_21__unordered_map_equalIS7_S9_SE_SC_Lb1EEENS5_IS9_EEE25__emplace_unique_key_argsIS7_JNS_4pairIKS7_S8_EEEEENSL_INS_15__hash_iteratorIPNS_11__hash_nodeIS9_PvEEEEbEERKT_DpOT0_, symObjAddr: 0x8F88, symBinAddr: 0x645D0, symSize: 0x498 }
  - { offsetInCU: 0x465AB, offset: 0x35DC18, size: 0x8, addend: 0x0, symName: __ZNSt3__16vectorINS_10unique_ptrI10llama_fileNS_14default_deleteIS2_EEEENS_9allocatorIS5_EEE24__emplace_back_slow_pathIJPS2_EEEvDpOT_, symObjAddr: 0x9618, symBinAddr: 0x64C60, symSize: 0x128 }
  - { offsetInCU: 0x46BD1, offset: 0x35E23E, size: 0x8, addend: 0x0, symName: __ZNKSt3__16vectorINS_10unique_ptrI10llama_fileNS_14default_deleteIS2_EEEENS_9allocatorIS5_EEE20__throw_length_errorB8ue170006Ev, symObjAddr: 0x9740, symBinAddr: 0x64D88, symSize: 0x14 }
  - { offsetInCU: 0x47005, offset: 0x35E672, size: 0x8, addend: 0x0, symName: __ZNK18llama_model_loader20weight_name_comparerclERKNSt3__112basic_stringIcNS1_11char_traitsIcEENS1_9allocatorIcEEEES9_, symObjAddr: 0x9890, symBinAddr: 0x64D9C, symSize: 0xF4 }
  - { offsetInCU: 0x47288, offset: 0x35E8F5, size: 0x8, addend: 0x0, symName: __ZN18llama_model_loader19llama_tensor_weightC2EPK10llama_filetPK12gguf_contextP11ggml_tensor, symObjAddr: 0x6D3C, symBinAddr: 0x6295C, symSize: 0x1B8 }
  - { offsetInCU: 0x4748C, offset: 0x35EAF9, size: 0x8, addend: 0x0, symName: __ZNSt3__16__treeINS_12__value_typeINS_12basic_stringIcNS_11char_traitsIcEENS_9allocatorIcEEEEN18llama_model_loader19llama_tensor_weightEEENS_19__map_value_compareIS7_SA_NS8_20weight_name_comparerELb1EEENS5_ISA_EEE25__emplace_unique_key_argsIS7_JRS7_S9_EEENS_4pairINS_15__tree_iteratorISA_PNS_11__tree_nodeISA_PvEElEEbEERKT_DpOT0_, symObjAddr: 0x9984, symBinAddr: 0x64E90, symSize: 0x194 }
  - { offsetInCU: 0x47C4A, offset: 0x35F2B7, size: 0x8, addend: 0x0, symName: __ZN8GGUFMeta3GKVItE17validate_overrideE28llama_model_kv_override_typePK23llama_model_kv_override, symObjAddr: 0x9DCC, symBinAddr: 0x65124, symSize: 0x23C }
  - { offsetInCU: 0x47E50, offset: 0x35F4BD, size: 0x8, addend: 0x0, symName: __ZN8GGUFMeta3GKVItE6get_kvEPK12gguf_contexti, symObjAddr: 0x9CCC, symBinAddr: 0x65024, symSize: 0x100 }
  - { offsetInCU: 0x48065, offset: 0x35F6D2, size: 0x8, addend: 0x0, symName: __ZN18llama_model_loader7get_keyItEEbRKNSt3__112basic_stringIcNS1_11char_traitsIcEENS1_9allocatorIcEEEERT_b, symObjAddr: 0x3AEC, symBinAddr: 0x5F830, symSize: 0x15C }
  - { offsetInCU: 0x4847F, offset: 0x35FAEC, size: 0x8, addend: 0x0, symName: __ZNSt3__16vectorINS_12basic_stringIcNS_11char_traitsIcEENS_9allocatorIcEEEENS4_IS6_EEE21__push_back_slow_pathIS6_EEvOT_, symObjAddr: 0x6FB8, symBinAddr: 0x62B14, symSize: 0x16C }
  - { offsetInCU: 0x48BD4, offset: 0x360241, size: 0x8, addend: 0x0, symName: __ZNSt3__16__treeINS_12__value_typeI9ggml_typejEENS_19__map_value_compareIS2_S3_NS_4lessIS2_EELb1EEENS_9allocatorIS3_EEE7destroyEPNS_11__tree_nodeIS3_PvEE, symObjAddr: 0xA344, symBinAddr: 0x6569C, symSize: 0x40 }
  - { offsetInCU: 0x490AC, offset: 0x360719, size: 0x8, addend: 0x0, symName: __ZNSt3__113unordered_mapINS_12basic_stringIcNS_11char_traitsIcEENS_9allocatorIcEEEE23llama_model_kv_overrideNS_4hashIS6_EENS_8equal_toIS6_EENS4_INS_4pairIKS6_S7_EEEEED1B8ue170006Ev, symObjAddr: 0x3EBC, symBinAddr: 0x5FAE8, symSize: 0x68 }
  - { offsetInCU: 0x494FA, offset: 0x360B67, size: 0x8, addend: 0x0, symName: __ZNSt3__16__treeINS_12__value_typeINS_12basic_stringIcNS_11char_traitsIcEENS_9allocatorIcEEEEN18llama_model_loader19llama_tensor_weightEEENS_19__map_value_compareIS7_SA_NS8_20weight_name_comparerELb1EEENS5_ISA_EEE7destroyEPNS_11__tree_nodeISA_PvEE, symObjAddr: 0x8F28, symBinAddr: 0x64570, symSize: 0x60 }
  - { offsetInCU: 0x49762, offset: 0x360DCF, size: 0x8, addend: 0x0, symName: __ZNSt3__16vectorINS_10unique_ptrI10llama_mmapNS_14default_deleteIS2_EEEENS_9allocatorIS5_EEED1B8ue170006Ev, symObjAddr: 0x3F24, symBinAddr: 0x5FB50, symSize: 0x70 }
  - { offsetInCU: 0x49993, offset: 0x361000, size: 0x8, addend: 0x0, symName: __ZNSt3__16vectorINS_10unique_ptrI10llama_fileNS_14default_deleteIS2_EEEENS_9allocatorIS5_EEED1B8ue170006Ev, symObjAddr: 0x3F94, symBinAddr: 0x5FBC0, symSize: 0x70 }
  - { offsetInCU: 0x49DF8, offset: 0x361465, size: 0x8, addend: 0x0, symName: __ZN18llama_model_loader7get_keyItEEbRKNSt3__112basic_stringIcNS1_11char_traitsIcEENS1_9allocatorIcEEEERT_b, symObjAddr: 0x3AEC, symBinAddr: 0x5F830, symSize: 0x15C }
  - { offsetInCU: 0x49F09, offset: 0x361576, size: 0x8, addend: 0x0, symName: __ZN8GGUFMeta3GKVIiE17validate_overrideE28llama_model_kv_override_typePK23llama_model_kv_override, symObjAddr: 0xA108, symBinAddr: 0x65460, symSize: 0x23C }
  - { offsetInCU: 0x4A10F, offset: 0x36177C, size: 0x8, addend: 0x0, symName: __ZN8GGUFMeta3GKVIiE6get_kvEPK12gguf_contexti, symObjAddr: 0xA008, symBinAddr: 0x65360, symSize: 0x100 }
  - { offsetInCU: 0x4AA0F, offset: 0x36207C, size: 0x8, addend: 0x0, symName: __ZN18llama_model_loaderC1ERKNSt3__112basic_stringIcNS0_11char_traitsIcEENS0_9allocatorIcEEEERNS0_6vectorIS6_NS4_IS6_EEEEbbPK23llama_model_kv_overridePK32llama_model_tensor_buft_override, symObjAddr: 0x4004, symBinAddr: 0x5FC30, symSize: 0x4 }
  - { offsetInCU: 0x4AAA2, offset: 0x36210F, size: 0x8, addend: 0x0, symName: __ZN18llama_model_loaderC1ERKNSt3__112basic_stringIcNS0_11char_traitsIcEENS0_9allocatorIcEEEERNS0_6vectorIS6_NS4_IS6_EEEEbbPK23llama_model_kv_overridePK32llama_model_tensor_buft_override, symObjAddr: 0x4004, symBinAddr: 0x5FC30, symSize: 0x4 }
  - { offsetInCU: 0x4AADF, offset: 0x36214C, size: 0x8, addend: 0x0, symName: __ZNK18llama_model_loader13get_arch_nameEv, symObjAddr: 0x4008, symBinAddr: 0x5FC34, symSize: 0xA4 }
  - { offsetInCU: 0x4AE84, offset: 0x3624F1, size: 0x8, addend: 0x0, symName: __ZNK18llama_model_loader8get_archEv, symObjAddr: 0x40AC, symBinAddr: 0x5FCD8, symSize: 0x8 }
  - { offsetInCU: 0x4AE95, offset: 0x362502, size: 0x8, addend: 0x0, symName: __ZNK18llama_model_loader8get_archEv, symObjAddr: 0x40AC, symBinAddr: 0x5FCD8, symSize: 0x8 }
  - { offsetInCU: 0x4AF7A, offset: 0x3625E7, size: 0x8, addend: 0x0, symName: __ZNK18llama_model_loader10get_weightEPKc, symObjAddr: 0x40B4, symBinAddr: 0x5FCE0, symSize: 0x14C }
  - { offsetInCU: 0x4B6CF, offset: 0x362D3C, size: 0x8, addend: 0x0, symName: __ZNK18llama_model_loader14require_weightEPKc, symObjAddr: 0x4200, symBinAddr: 0x5FE2C, symSize: 0xC4 }
  - { offsetInCU: 0x4B870, offset: 0x362EDD, size: 0x8, addend: 0x0, symName: __ZNK18llama_model_loader15get_tensor_metaEPKc, symObjAddr: 0x42C4, symBinAddr: 0x5FEF0, symSize: 0x1C }
  - { offsetInCU: 0x4B8F6, offset: 0x362F63, size: 0x8, addend: 0x0, symName: __ZNK18llama_model_loader19require_tensor_metaERKNSt3__112basic_stringIcNS0_11char_traitsIcEENS0_9allocatorIcEEEE, symObjAddr: 0x42E0, symBinAddr: 0x5FF0C, symSize: 0xEC }
  - { offsetInCU: 0x4BBA9, offset: 0x363216, size: 0x8, addend: 0x0, symName: __ZNK18llama_model_loader17check_tensor_dimsERKNSt3__112basic_stringIcNS0_11char_traitsIcEENS0_9allocatorIcEEEERKNS0_6vectorIxNS4_IxEEEEb, symObjAddr: 0x43CC, symBinAddr: 0x5FFF8, symSize: 0x2C8 }
  - { offsetInCU: 0x4C5A6, offset: 0x363C13, size: 0x8, addend: 0x0, symName: __ZN18llama_model_loader13create_tensorEP12ggml_contextRKNSt3__112basic_stringIcNS2_11char_traitsIcEENS2_9allocatorIcEEEERKSt16initializer_listIxEi, symObjAddr: 0x4694, symBinAddr: 0x602C0, symSize: 0x13C }
  - { offsetInCU: 0x4CB54, offset: 0x3641C1, size: 0x8, addend: 0x0, symName: __ZNKSt3__16vectorIxNS_9allocatorIxEEE20__throw_length_errorB8ue170006Ev, symObjAddr: 0xA3F8, symBinAddr: 0x656DC, symSize: 0x14 }
  - { offsetInCU: 0x4CB7E, offset: 0x3641EB, size: 0x8, addend: 0x0, symName: __ZNKSt3__16vectorINS_10unique_ptrI10llama_mmapNS_14default_deleteIS2_EEEENS_9allocatorIS5_EEE20__throw_length_errorB8ue170006Ev, symObjAddr: 0xA40C, symBinAddr: 0x656F0, symSize: 0x14 }
  - { offsetInCU: 0x4CB89, offset: 0x3641F6, size: 0x8, addend: 0x0, symName: __ZN18llama_model_loader21create_tensor_as_viewEP12ggml_contextP11ggml_tensorRKNSt3__112basic_stringIcNS4_11char_traitsIcEENS4_9allocatorIcEEEERKSt16initializer_listIxEmb, symObjAddr: 0x47D0, symBinAddr: 0x603FC, symSize: 0x25C }
  - { offsetInCU: 0x4D399, offset: 0x364A06, size: 0x8, addend: 0x0, symName: __ZNK18llama_model_loader20done_getting_tensorsEv, symObjAddr: 0x4A2C, symBinAddr: 0x60658, symSize: 0xD0 }
  - { offsetInCU: 0x4E21D, offset: 0x36588A, size: 0x8, addend: 0x0, symName: __ZN18llama_model_loader13init_mappingsEbPNSt3__16vectorINS0_10unique_ptrI11llama_mlockNS0_14default_deleteIS3_EEEENS0_9allocatorIS6_EEEE, symObjAddr: 0x4AFC, symBinAddr: 0x60728, symSize: 0x408 }
  - { offsetInCU: 0x4F4B3, offset: 0x366B20, size: 0x8, addend: 0x0, symName: __ZNSt3__16vectorINS_10unique_ptrI10llama_mmapNS_14default_deleteIS2_EEEENS_9allocatorIS5_EEE7reserveEm, symObjAddr: 0x4F04, symBinAddr: 0x60B30, symSize: 0xE4 }
  - { offsetInCU: 0x4F97F, offset: 0x366FEC, size: 0x8, addend: 0x0, symName: __ZNSt3__110unique_ptrI11llama_mlockNS_14default_deleteIS1_EEED1B8ue170006Ev, symObjAddr: 0x4FE8, symBinAddr: 0x60C14, symSize: 0x34 }
  - { offsetInCU: 0x4F9F5, offset: 0x367062, size: 0x8, addend: 0x0, symName: __ZNSt3__16vectorINS_10unique_ptrI11llama_mlockNS_14default_deleteIS2_EEEENS_9allocatorIS5_EEE24__emplace_back_slow_pathIJS5_EEEvDpOT_, symObjAddr: 0xA434, symBinAddr: 0x65704, symSize: 0x124 }
  - { offsetInCU: 0x50041, offset: 0x3676AE, size: 0x8, addend: 0x0, symName: __ZNKSt3__16vectorINS_10unique_ptrI11llama_mlockNS_14default_deleteIS2_EEEENS_9allocatorIS5_EEE20__throw_length_errorB8ue170006Ev, symObjAddr: 0xA558, symBinAddr: 0x65828, symSize: 0x14 }
  - { offsetInCU: 0x50057, offset: 0x3676C4, size: 0x8, addend: 0x0, symName: __ZNSt3__16vectorINS_10unique_ptrI10llama_mmapNS_14default_deleteIS2_EEEENS_9allocatorIS5_EEE24__emplace_back_slow_pathIJS5_EEEvDpOT_, symObjAddr: 0xA56C, symBinAddr: 0x6583C, symSize: 0x124 }
  - { offsetInCU: 0x506A3, offset: 0x367D10, size: 0x8, addend: 0x0, symName: __ZNKSt3__16vectorINS_10unique_ptrI10llama_mmapNS_14default_deleteIS2_EEEENS_9allocatorIS5_EEE20__throw_out_of_rangeB8ue170006Ev, symObjAddr: 0xA690, symBinAddr: 0x65960, symSize: 0x14 }
  - { offsetInCU: 0x506D1, offset: 0x367D3E, size: 0x8, addend: 0x0, symName: __ZNSt3__16vectorINS_10unique_ptrI11llama_mlockNS_14default_deleteIS2_EEEENS_9allocatorIS5_EEE24__emplace_back_slow_pathIJS5_EEEvDpOT_, symObjAddr: 0xA434, symBinAddr: 0x65704, symSize: 0x124 }
  - { offsetInCU: 0x506DC, offset: 0x367D49, size: 0x8, addend: 0x0, symName: __ZNSt3__110unique_ptrI11llama_mlockNS_14default_deleteIS1_EEED1B8ue170006Ev, symObjAddr: 0x4FE8, symBinAddr: 0x60C14, symSize: 0x34 }
  - { offsetInCU: 0x5076C, offset: 0x367DD9, size: 0x8, addend: 0x0, symName: __ZNSt3__110unique_ptrI10llama_mmapNS_14default_deleteIS1_EEED1B8ue170006Ev, symObjAddr: 0x501C, symBinAddr: 0x60C48, symSize: 0x34 }
  - { offsetInCU: 0x50999, offset: 0x368006, size: 0x8, addend: 0x0, symName: __ZNKSt3__16vectorINS_10unique_ptrI10llama_mmapNS_14default_deleteIS2_EEEENS_9allocatorIS5_EEE20__throw_length_errorB8ue170006Ev, symObjAddr: 0xA40C, symBinAddr: 0x656F0, symSize: 0x14 }
  - { offsetInCU: 0x50A55, offset: 0x3680C2, size: 0x8, addend: 0x0, symName: __ZNK18llama_model_loader17get_mapping_rangeEPmS0_PPviP12ggml_context, symObjAddr: 0x5050, symBinAddr: 0x60C7C, symSize: 0x138 }
  - { offsetInCU: 0x50CCC, offset: 0x368339, size: 0x8, addend: 0x0, symName: __ZNK18llama_model_loader13load_data_forEP11ggml_tensor, symObjAddr: 0x5188, symBinAddr: 0x60DB4, symSize: 0x214 }
  - { offsetInCU: 0x50CD7, offset: 0x368344, size: 0x8, addend: 0x0, symName: __ZNKSt3__16vectorINS_10unique_ptrI10llama_mmapNS_14default_deleteIS2_EEEENS_9allocatorIS5_EEE20__throw_out_of_rangeB8ue170006Ev, symObjAddr: 0xA690, symBinAddr: 0x65960, symSize: 0x14 }
  - { offsetInCU: 0x50D01, offset: 0x36836E, size: 0x8, addend: 0x0, symName: __ZNKSt3__16vectorINS_10unique_ptrI10llama_fileNS_14default_deleteIS2_EEEENS_9allocatorIS5_EEE20__throw_out_of_rangeB8ue170006Ev, symObjAddr: 0xA6A4, symBinAddr: 0x65974, symSize: 0x14 }
  - { offsetInCU: 0x50D46, offset: 0x3683B3, size: 0x8, addend: 0x0, symName: __ZNK18llama_model_loader13load_data_forEP11ggml_tensor, symObjAddr: 0x5188, symBinAddr: 0x60DB4, symSize: 0x214 }
  - { offsetInCU: 0x53DA1, offset: 0x36B40E, size: 0x8, addend: 0x0, symName: __ZNSt3__16vectorINS_6futureINS_4pairIP11ggml_tensorbEEEENS_9allocatorIS6_EEE24__emplace_back_slow_pathIJS6_EEEvDpOT_, symObjAddr: 0xA9CC, symBinAddr: 0x65C9C, symSize: 0x12C }
  - { offsetInCU: 0x54334, offset: 0x36B9A1, size: 0x8, addend: 0x0, symName: __ZNKSt3__16vectorINS_6futureINS_4pairIP11ggml_tensorbEEEENS_9allocatorIS6_EEE20__throw_length_errorB8ue170006Ev, symObjAddr: 0xAAF8, symBinAddr: 0x65DC8, symSize: 0x14 }
  - { offsetInCU: 0x543D9, offset: 0x36BA46, size: 0x8, addend: 0x0, symName: __ZNSt3__113__assoc_stateINS_4pairIP11ggml_tensorbEEE4moveEv, symObjAddr: 0xADEC, symBinAddr: 0x660BC, symSize: 0xC4 }
  - { offsetInCU: 0x54671, offset: 0x36BCDE, size: 0x8, addend: 0x0, symName: __ZNKSt3__16vectorINS_10unique_ptrI10llama_fileNS_14default_deleteIS2_EEEENS_9allocatorIS5_EEE20__throw_out_of_rangeB8ue170006Ev, symObjAddr: 0xA6A4, symBinAddr: 0x65974, symSize: 0x14 }
  - { offsetInCU: 0x5469B, offset: 0x36BD08, size: 0x8, addend: 0x0, symName: '__ZNSt3__119__async_assoc_stateINS_4pairIP11ggml_tensorbEENS_12__async_funcIZN18llama_model_loader13load_all_dataEP12ggml_contextRNS_13unordered_mapIjP19ggml_backend_bufferNS_4hashIjEENS_8equal_toIjEENS_9allocatorINS1_IKjSB_EEEEEEPNS_6vectorINS_10unique_ptrI11llama_mlockNS_14default_deleteISO_EEEENSG_ISR_EEEEPFbfPvESV_E3$_1JEEEED1Ev', symObjAddr: 0xA6B8, symBinAddr: 0x65988, symSize: 0x4C }
  - { offsetInCU: 0x546A6, offset: 0x36BD13, size: 0x8, addend: 0x0, symName: __ZNKSt3__16vectorINS_4pairImmEENS_9allocatorIS2_EEE20__throw_out_of_rangeB8ue170006Ev, symObjAddr: 0xAEB0, symBinAddr: 0x66180, symSize: 0x14 }
  - { offsetInCU: 0x546DB, offset: 0x36BD48, size: 0x8, addend: 0x0, symName: __ZNKSt3__16vectorINS_10unique_ptrI11llama_mlockNS_14default_deleteIS2_EEEENS_9allocatorIS5_EEE20__throw_out_of_rangeB8ue170006Ev, symObjAddr: 0xAB0C, symBinAddr: 0x65DDC, symSize: 0x14 }
  - { offsetInCU: 0x54705, offset: 0x36BD72, size: 0x8, addend: 0x0, symName: '__ZNSt3__119__async_assoc_stateINS_4pairIP11ggml_tensorbEENS_12__async_funcIZN18llama_model_loader13load_all_dataEP12ggml_contextRNS_13unordered_mapIjP19ggml_backend_bufferNS_4hashIjEENS_8equal_toIjEENS_9allocatorINS1_IKjSB_EEEEEEPNS_6vectorINS_10unique_ptrI11llama_mlockNS_14default_deleteISO_EEEENSG_ISR_EEEEPFbfPvESV_E3$_2JEEEED1Ev', symObjAddr: 0xAB20, symBinAddr: 0x65DF0, symSize: 0x4C }
  - { offsetInCU: 0x54710, offset: 0x36BD7D, size: 0x8, addend: 0x0, symName: __ZNKSt3__16vectorI7no_initIhENS_9allocatorIS2_EEE20__throw_length_errorB8ue170006Ev, symObjAddr: 0xADD8, symBinAddr: 0x660A8, symSize: 0x14 }
  - { offsetInCU: 0x5473A, offset: 0x36BDA7, size: 0x8, addend: 0x0, symName: __ZNSt3__113__assoc_stateINS_4pairIP11ggml_tensorbEEE4moveEv, symObjAddr: 0xADEC, symBinAddr: 0x660BC, symSize: 0xC4 }
  - { offsetInCU: 0x54745, offset: 0x36BDB2, size: 0x8, addend: 0x0, symName: __ZNKSt3__16vectorIP19ggml_backend_bufferNS_9allocatorIS2_EEE20__throw_length_errorB8ue170006Ev, symObjAddr: 0x719C, symBinAddr: 0x62C80, symSize: 0x14 }
  - { offsetInCU: 0x5476F, offset: 0x36BDDC, size: 0x8, addend: 0x0, symName: __ZNKSt3__16vectorIPvNS_9allocatorIS1_EEE20__throw_length_errorB8ue170006Ev, symObjAddr: 0x71B0, symBinAddr: 0x62C94, symSize: 0x14 }
  - { offsetInCU: 0x5477A, offset: 0x36BDE7, size: 0x8, addend: 0x0, symName: __ZNKSt3__16vectorIPvNS_9allocatorIS1_EEE20__throw_length_errorB8ue170006Ev, symObjAddr: 0x71B0, symBinAddr: 0x62C94, symSize: 0x14 }
  - { offsetInCU: 0x547A4, offset: 0x36BE11, size: 0x8, addend: 0x0, symName: __ZNKSt3__16vectorIP18ggml_backend_eventNS_9allocatorIS2_EEE20__throw_length_errorB8ue170006Ev, symObjAddr: 0x71C4, symBinAddr: 0x62CA8, symSize: 0x14 }
  - { offsetInCU: 0x547AF, offset: 0x36BE1C, size: 0x8, addend: 0x0, symName: __ZNKSt3__16vectorIP18ggml_backend_eventNS_9allocatorIS2_EEE20__throw_length_errorB8ue170006Ev, symObjAddr: 0x71C4, symBinAddr: 0x62CA8, symSize: 0x14 }
  - { offsetInCU: 0x547D9, offset: 0x36BE46, size: 0x8, addend: 0x0, symName: __ZN8GGUFMeta3GKVINS_9ArrayInfoEE6get_kvEPK12gguf_contexti, symObjAddr: 0x71D8, symBinAddr: 0x62CBC, symSize: 0x150 }
  - { offsetInCU: 0x547E4, offset: 0x36BE51, size: 0x8, addend: 0x0, symName: __ZNSt3__16vectorINS_6futureINS_4pairIP11ggml_tensorbEEEENS_9allocatorIS6_EEED1B8ue170006Ev, symObjAddr: 0x68F0, symBinAddr: 0x6251C, symSize: 0x80 }
  - { offsetInCU: 0x549FF, offset: 0x36C06C, size: 0x8, addend: 0x0, symName: __ZNK18llama_model_loader10ftype_nameEv, symObjAddr: 0x6970, symBinAddr: 0x6259C, symSize: 0xC }
  - { offsetInCU: 0x54A3F, offset: 0x36C0AC, size: 0x8, addend: 0x0, symName: __ZL22llama_model_ftype_name11llama_ftype, symObjAddr: 0x697C, symBinAddr: 0x625A8, symSize: 0x264 }
  - { offsetInCU: 0x54D60, offset: 0x36C3CD, size: 0x8, addend: 0x0, symName: __ZNK18llama_model_loader10print_infoEv, symObjAddr: 0x6BE0, symBinAddr: 0x6280C, symSize: 0x150 }
  - { offsetInCU: 0x55396, offset: 0x36CA03, size: 0x8, addend: 0x0, symName: __ZNKSt3__16vectorIP19ggml_backend_bufferNS_9allocatorIS2_EEE20__throw_length_errorB8ue170006Ev, symObjAddr: 0x719C, symBinAddr: 0x62C80, symSize: 0x14 }
  - { offsetInCU: 0x56531, offset: 0x36DB9E, size: 0x8, addend: 0x0, symName: __ZNSt3__112__hash_tableINS_17__hash_value_typeINS_12basic_stringIcNS_11char_traitsIcEENS_9allocatorIcEEEE23llama_model_kv_overrideEENS_22__unordered_map_hasherIS7_S9_NS_4hashIS7_EENS_8equal_toIS7_EELb1EEENS_21__unordered_map_equalIS7_S9_SE_SC_Lb1EEENS5_IS9_EEE11__do_rehashILb1EEEvm, symObjAddr: 0x946C, symBinAddr: 0x64AB4, symSize: 0x1AC }
  - { offsetInCU: 0x56991, offset: 0x36DFFE, size: 0x8, addend: 0x0, symName: __ZNSt3__16vectorINS_10unique_ptrI10llama_fileNS_14default_deleteIS2_EEEENS_9allocatorIS5_EEE24__emplace_back_slow_pathIJPS2_EEEvDpOT_, symObjAddr: 0x9618, symBinAddr: 0x64C60, symSize: 0x128 }
  - { offsetInCU: 0x569A6, offset: 0x36E013, size: 0x8, addend: 0x0, symName: __ZNSt3__110unique_ptrINS_11__hash_nodeINS_17__hash_value_typeINS_12basic_stringIcNS_11char_traitsIcEENS_9allocatorIcEEEE23llama_model_kv_overrideEEPvEENS_22__hash_node_destructorINS6_ISC_EEEEED1B8ue170006Ev, symObjAddr: 0x9420, symBinAddr: 0x64A68, symSize: 0x4C }
  - { offsetInCU: 0x570D1, offset: 0x36E73E, size: 0x8, addend: 0x0, symName: __ZNKSt3__16vectorINS_10unique_ptrI10llama_fileNS_14default_deleteIS2_EEEENS_9allocatorIS5_EEE20__throw_length_errorB8ue170006Ev, symObjAddr: 0x9740, symBinAddr: 0x64D88, symSize: 0x14 }
  - { offsetInCU: 0x574A6, offset: 0x36EB13, size: 0x8, addend: 0x0, symName: __ZNK18llama_model_loader20weight_name_comparerclERKNSt3__112basic_stringIcNS1_11char_traitsIcEENS1_9allocatorIcEEEES9_, symObjAddr: 0x9890, symBinAddr: 0x64D9C, symSize: 0xF4 }
  - { offsetInCU: 0x57835, offset: 0x36EEA2, size: 0x8, addend: 0x0, symName: __ZNKSt3__16vectorINS_10unique_ptrI11llama_mlockNS_14default_deleteIS2_EEEENS_9allocatorIS5_EEE20__throw_length_errorB8ue170006Ev, symObjAddr: 0xA558, symBinAddr: 0x65828, symSize: 0x14 }
  - { offsetInCU: 0x5785F, offset: 0x36EECC, size: 0x8, addend: 0x0, symName: __ZNSt3__16vectorINS_10unique_ptrI10llama_mmapNS_14default_deleteIS2_EEEENS_9allocatorIS5_EEE24__emplace_back_slow_pathIJS5_EEEvDpOT_, symObjAddr: 0xA56C, symBinAddr: 0x6583C, symSize: 0x124 }
  - { offsetInCU: 0x57902, offset: 0x36EF6F, size: 0x8, addend: 0x0, symName: '__ZNSt3__119__async_assoc_stateINS_4pairIP11ggml_tensorbEENS_12__async_funcIZN18llama_model_loader13load_all_dataEP12ggml_contextRNS_13unordered_mapIjP19ggml_backend_bufferNS_4hashIjEENS_8equal_toIjEENS_9allocatorINS1_IKjSB_EEEEEEPNS_6vectorINS_10unique_ptrI11llama_mlockNS_14default_deleteISO_EEEENSG_ISR_EEEEPFbfPvESV_E3$_1JEEEED1Ev', symObjAddr: 0xA6B8, symBinAddr: 0x65988, symSize: 0x4C }
  - { offsetInCU: 0x5799E, offset: 0x36F00B, size: 0x8, addend: 0x0, symName: '__ZNSt3__119__async_assoc_stateINS_4pairIP11ggml_tensorbEENS_12__async_funcIZN18llama_model_loader13load_all_dataEP12ggml_contextRNS_13unordered_mapIjP19ggml_backend_bufferNS_4hashIjEENS_8equal_toIjEENS_9allocatorINS1_IKjSB_EEEEEEPNS_6vectorINS_10unique_ptrI11llama_mlockNS_14default_deleteISO_EEEENSG_ISR_EEEEPFbfPvESV_E3$_1JEEEED0Ev', symObjAddr: 0xA704, symBinAddr: 0x659D4, symSize: 0x50 }
  - { offsetInCU: 0x57A58, offset: 0x36F0C5, size: 0x8, addend: 0x0, symName: '__ZNSt3__119__async_assoc_stateINS_4pairIP11ggml_tensorbEENS_12__async_funcIZN18llama_model_loader13load_all_dataEP12ggml_contextRNS_13unordered_mapIjP19ggml_backend_bufferNS_4hashIjEENS_8equal_toIjEENS_9allocatorINS1_IKjSB_EEEEEEPNS_6vectorINS_10unique_ptrI11llama_mlockNS_14default_deleteISO_EEEENSG_ISR_EEEEPFbfPvESV_E3$_1JEEEE16__on_zero_sharedEv', symObjAddr: 0xA754, symBinAddr: 0x65A24, symSize: 0x30 }
  - { offsetInCU: 0x57CCA, offset: 0x36F337, size: 0x8, addend: 0x0, symName: '__ZNSt3__119__async_assoc_stateINS_4pairIP11ggml_tensorbEENS_12__async_funcIZN18llama_model_loader13load_all_dataEP12ggml_contextRNS_13unordered_mapIjP19ggml_backend_bufferNS_4hashIjEENS_8equal_toIjEENS_9allocatorINS1_IKjSB_EEEEEEPNS_6vectorINS_10unique_ptrI11llama_mlockNS_14default_deleteISO_EEEENSG_ISR_EEEEPFbfPvESV_E3$_1JEEEE9__executeEv', symObjAddr: 0xA784, symBinAddr: 0x65A54, symSize: 0x118 }
  - { offsetInCU: 0x580F5, offset: 0x36F762, size: 0x8, addend: 0x0, symName: '__ZNSt3__110unique_ptrINS_5tupleIJNS0_INS_15__thread_structENS_14default_deleteIS2_EEEEMNS_19__async_assoc_stateINS_4pairIP11ggml_tensorbEENS_12__async_funcIZN18llama_model_loader13load_all_dataEP12ggml_contextRNS_13unordered_mapIjP19ggml_backend_bufferNS_4hashIjEENS_8equal_toIjEENS_9allocatorINS7_IKjSH_EEEEEEPNS_6vectorINS0_I11llama_mlockNS3_IST_EEEENSM_ISV_EEEEPFbfPvESZ_E3$_1JEEEEEFvvEPS14_EEENS3_IS18_EEED1B8ue170006Ev', symObjAddr: 0xA984, symBinAddr: 0x65C54, symSize: 0x48 }
  - { offsetInCU: 0x58478, offset: 0x36FAE5, size: 0x8, addend: 0x0, symName: __ZNKSt3__16vectorINS_6futureINS_4pairIP11ggml_tensorbEEEENS_9allocatorIS6_EEE20__throw_length_errorB8ue170006Ev, symObjAddr: 0xAAF8, symBinAddr: 0x65DC8, symSize: 0x14 }
  - { offsetInCU: 0x584A2, offset: 0x36FB0F, size: 0x8, addend: 0x0, symName: __ZNKSt3__16vectorINS_10unique_ptrI11llama_mlockNS_14default_deleteIS2_EEEENS_9allocatorIS5_EEE20__throw_out_of_rangeB8ue170006Ev, symObjAddr: 0xAB0C, symBinAddr: 0x65DDC, symSize: 0x14 }
  - { offsetInCU: 0x584CA, offset: 0x36FB37, size: 0x8, addend: 0x0, symName: '__ZNSt3__119__async_assoc_stateINS_4pairIP11ggml_tensorbEENS_12__async_funcIZN18llama_model_loader13load_all_dataEP12ggml_contextRNS_13unordered_mapIjP19ggml_backend_bufferNS_4hashIjEENS_8equal_toIjEENS_9allocatorINS1_IKjSB_EEEEEEPNS_6vectorINS_10unique_ptrI11llama_mlockNS_14default_deleteISO_EEEENSG_ISR_EEEEPFbfPvESV_E3$_2JEEEED1Ev', symObjAddr: 0xAB20, symBinAddr: 0x65DF0, symSize: 0x4C }
  - { offsetInCU: 0x58566, offset: 0x36FBD3, size: 0x8, addend: 0x0, symName: '__ZNSt3__119__async_assoc_stateINS_4pairIP11ggml_tensorbEENS_12__async_funcIZN18llama_model_loader13load_all_dataEP12ggml_contextRNS_13unordered_mapIjP19ggml_backend_bufferNS_4hashIjEENS_8equal_toIjEENS_9allocatorINS1_IKjSB_EEEEEEPNS_6vectorINS_10unique_ptrI11llama_mlockNS_14default_deleteISO_EEEENSG_ISR_EEEEPFbfPvESV_E3$_2JEEEED0Ev', symObjAddr: 0xAB6C, symBinAddr: 0x65E3C, symSize: 0x50 }
  - { offsetInCU: 0x58608, offset: 0x36FC75, size: 0x8, addend: 0x0, symName: '__ZNSt3__119__async_assoc_stateINS_4pairIP11ggml_tensorbEENS_12__async_funcIZN18llama_model_loader13load_all_dataEP12ggml_contextRNS_13unordered_mapIjP19ggml_backend_bufferNS_4hashIjEENS_8equal_toIjEENS_9allocatorINS1_IKjSB_EEEEEEPNS_6vectorINS_10unique_ptrI11llama_mlockNS_14default_deleteISO_EEEENSG_ISR_EEEEPFbfPvESV_E3$_2JEEEE16__on_zero_sharedEv', symObjAddr: 0xABBC, symBinAddr: 0x65E8C, symSize: 0x30 }
  - { offsetInCU: 0x586C0, offset: 0x36FD2D, size: 0x8, addend: 0x0, symName: '__ZNSt3__119__async_assoc_stateINS_4pairIP11ggml_tensorbEENS_12__async_funcIZN18llama_model_loader13load_all_dataEP12ggml_contextRNS_13unordered_mapIjP19ggml_backend_bufferNS_4hashIjEENS_8equal_toIjEENS_9allocatorINS1_IKjSB_EEEEEEPNS_6vectorINS_10unique_ptrI11llama_mlockNS_14default_deleteISO_EEEENSG_ISR_EEEEPFbfPvESV_E3$_2JEEEE9__executeEv', symObjAddr: 0xABEC, symBinAddr: 0x65EBC, symSize: 0x118 }
  - { offsetInCU: 0x58A5B, offset: 0x3700C8, size: 0x8, addend: 0x0, symName: '__ZNSt3__110unique_ptrINS_5tupleIJNS0_INS_15__thread_structENS_14default_deleteIS2_EEEEMNS_19__async_assoc_stateINS_4pairIP11ggml_tensorbEENS_12__async_funcIZN18llama_model_loader13load_all_dataEP12ggml_contextRNS_13unordered_mapIjP19ggml_backend_bufferNS_4hashIjEENS_8equal_toIjEENS_9allocatorINS7_IKjSH_EEEEEEPNS_6vectorINS0_I11llama_mlockNS3_IST_EEEENSM_ISV_EEEEPFbfPvESZ_E3$_2JEEEEEFvvEPS14_EEENS3_IS18_EEED1B8ue170006Ev', symObjAddr: 0xAD90, symBinAddr: 0x66060, symSize: 0x48 }
  - { offsetInCU: 0x15903, offset: 0x385BCB, size: 0x8, addend: 0x0, symName: __ZN17llama_model_saverC2ERK11llama_model, symObjAddr: 0x0, symBinAddr: 0x66194, symSize: 0x38 }
  - { offsetInCU: 0x15974, offset: 0x385C3C, size: 0x8, addend: 0x0, symName: __ZN17llama_model_saverC1ERK11llama_model, symObjAddr: 0x38, symBinAddr: 0x661CC, symSize: 0x38 }
  - { offsetInCU: 0x159E5, offset: 0x385CAD, size: 0x8, addend: 0x0, symName: __ZN17llama_model_saverD2Ev, symObjAddr: 0x70, symBinAddr: 0x66204, symSize: 0x2C }
  - { offsetInCU: 0x15A3E, offset: 0x385D06, size: 0x8, addend: 0x0, symName: __ZN17llama_model_saverD1Ev, symObjAddr: 0xA8, symBinAddr: 0x66230, symSize: 0x2C }
  - { offsetInCU: 0x15B94, offset: 0x385E5C, size: 0x8, addend: 0x0, symName: __ZN17llama_model_saver6add_kvE6llm_kvj, symObjAddr: 0xD4, symBinAddr: 0x6625C, symSize: 0x98 }
  - { offsetInCU: 0x15EB1, offset: 0x386179, size: 0x8, addend: 0x0, symName: __ZN17llama_model_saver6add_kvE6llm_kvi, symObjAddr: 0x16C, symBinAddr: 0x662F4, symSize: 0x98 }
  - { offsetInCU: 0x161CE, offset: 0x386496, size: 0x8, addend: 0x0, symName: __ZN17llama_model_saver6add_kvE6llm_kvf, symObjAddr: 0x204, symBinAddr: 0x6638C, symSize: 0x98 }
  - { offsetInCU: 0x164E5, offset: 0x3867AD, size: 0x8, addend: 0x0, symName: __ZN17llama_model_saver6add_kvE6llm_kvb, symObjAddr: 0x29C, symBinAddr: 0x66424, symSize: 0x98 }
  - { offsetInCU: 0x16802, offset: 0x386ACA, size: 0x8, addend: 0x0, symName: __ZN17llama_model_saver6add_kvE6llm_kvPKc, symObjAddr: 0x334, symBinAddr: 0x664BC, symSize: 0x98 }
  - { offsetInCU: 0x16B34, offset: 0x386DFC, size: 0x8, addend: 0x0, symName: __ZN17llama_model_saver6add_kvE6llm_kvc, symObjAddr: 0x3CC, symBinAddr: 0x66554, symSize: 0x20 }
  - { offsetInCU: 0x16B71, offset: 0x386E39, size: 0x8, addend: 0x0, symName: __ZN17llama_model_saver6add_kvE6llm_kvRKNSt3__16vectorINS1_12basic_stringIcNS1_11char_traitsIcEENS1_9allocatorIcEEEENS6_IS8_EEEE, symObjAddr: 0x3EC, symBinAddr: 0x66574, symSize: 0x18C }
  - { offsetInCU: 0x16EF8, offset: 0x3871C0, size: 0x8, addend: 0x0, symName: __ZN17llama_model_saver6add_kvE6llm_kvRKNSt3__16vectorINS1_12basic_stringIcNS1_11char_traitsIcEENS1_9allocatorIcEEEENS6_IS8_EEEE, symObjAddr: 0x3EC, symBinAddr: 0x66574, symSize: 0x18C }
  - { offsetInCU: 0x1780B, offset: 0x387AD3, size: 0x8, addend: 0x0, symName: __ZNKSt3__16vectorIPKcNS_9allocatorIS2_EEE20__throw_length_errorB8ue170006Ev, symObjAddr: 0x2C48, symBinAddr: 0x68CD4, symSize: 0x14 }
  - { offsetInCU: 0x17B02, offset: 0x387DCA, size: 0x8, addend: 0x0, symName: __ZN17llama_model_saver10add_tensorEPK11ggml_tensor, symObjAddr: 0x578, symBinAddr: 0x66700, symSize: 0x1AC }
  - { offsetInCU: 0x18067, offset: 0x38832F, size: 0x8, addend: 0x0, symName: __ZN17llama_model_saver17add_kv_from_modelEv, symObjAddr: 0x724, symBinAddr: 0x668AC, symSize: 0x1D8C }
  - { offsetInCU: 0x18A01, offset: 0x388CC9, size: 0x8, addend: 0x0, symName: __ZN17llama_model_saver17add_kv_from_modelEv, symObjAddr: 0x724, symBinAddr: 0x668AC, symSize: 0x1D8C }
  - { offsetInCU: 0x23FF8, offset: 0x3942C0, size: 0x8, addend: 0x0, symName: __ZNSt3__16vectorINS_12basic_stringIcNS_11char_traitsIcEENS_9allocatorIcEEEENS4_IS6_EEEC1Em, symObjAddr: 0x24B0, symBinAddr: 0x68638, symSize: 0xCC }
  - { offsetInCU: 0x2427B, offset: 0x394543, size: 0x8, addend: 0x0, symName: __ZN17llama_model_saver6add_kvINSt3__112basic_stringIcNS1_11char_traitsIcEENS1_9allocatorIcEEEEEEv6llm_kvRKT_b, symObjAddr: 0x257C, symBinAddr: 0x68704, symSize: 0x150 }
  - { offsetInCU: 0x24717, offset: 0x3949DF, size: 0x8, addend: 0x0, symName: __ZN17llama_model_saver6add_kvINSt3__15arrayIjLm512EEEEEv6llm_kvRKT_b, symObjAddr: 0x26CC, symBinAddr: 0x68854, symSize: 0x148 }
  - { offsetInCU: 0x2497F, offset: 0x394C47, size: 0x8, addend: 0x0, symName: __ZNSt3__16vectorINS_12basic_stringIcNS_11char_traitsIcEENS_9allocatorIcEEEENS4_IS6_EEEC1Em.cold.1, symObjAddr: 0x2C84, symBinAddr: 0x1FD374, symSize: 0x64 }
  - { offsetInCU: 0x24D55, offset: 0x39501D, size: 0x8, addend: 0x0, symName: __ZNSt3__16vectorINS_12basic_stringIcNS_11char_traitsIcEENS_9allocatorIcEEEENS4_IS6_EEEC1Em.cold.1, symObjAddr: 0x2C84, symBinAddr: 0x1FD374, symSize: 0x64 }
  - { offsetInCU: 0x25055, offset: 0x39531D, size: 0x8, addend: 0x0, symName: __ZN17llama_model_saver22add_tensors_from_modelEv, symObjAddr: 0x2888, symBinAddr: 0x6899C, symSize: 0x31C }
  - { offsetInCU: 0x25DC4, offset: 0x39608C, size: 0x8, addend: 0x0, symName: __ZN17llama_model_saver4saveERKNSt3__112basic_stringIcNS0_11char_traitsIcEENS0_9allocatorIcEEEE, symObjAddr: 0x2BA4, symBinAddr: 0x68CB8, symSize: 0x1C }
  - { offsetInCU: 0x52, offset: 0x396224, size: 0x8, addend: 0x0, symName: __ZL24LLAMA_ROPE_SCALING_TYPES, symObjAddr: 0x519AE8, symBinAddr: 0x2D9328, symSize: 0x0 }
  - { offsetInCU: 0x6FBDE, offset: 0x405DB0, size: 0x8, addend: 0x0, symName: __ZNK11llama_model10print_infoEv, symObjAddr: 0x244A0, symBinAddr: 0x8CF40, symSize: 0x1014 }
  - { offsetInCU: 0x72FAF, offset: 0x409181, size: 0x8, addend: 0x0, symName: __ZNK11llama_model13create_memoryERK19llama_memory_paramsR13llama_cparams, symObjAddr: 0x25D1C, symBinAddr: 0x8E7BC, symSize: 0x43C }
  - { offsetInCU: 0x766F7, offset: 0x40C8C9, size: 0x8, addend: 0x0, symName: __ZN16llm_build_plamo224build_plamo2_mamba_layerEP18llm_graph_input_rsP11ggml_tensorRK11llama_modelRK12llama_ubatchi, symObjAddr: 0x40C1C, symBinAddr: 0xA0384, symSize: 0xC1C }
  - { offsetInCU: 0x784E1, offset: 0x40E6B3, size: 0x8, addend: 0x0, symName: __ZNK23llm_graph_context_mamba18build_mamba2_layerEP18llm_graph_input_rsP11ggml_tensorRK11llama_modelRK12llama_ubatchi, symObjAddr: 0x47030, symBinAddr: 0xA66A4, symSize: 0x848 }
  - { offsetInCU: 0x794FA, offset: 0x40F6CC, size: 0x8, addend: 0x0, symName: __ZN23llm_graph_context_mamba17build_mamba_layerEP18llm_graph_input_rsP11ggml_tensorRK11llama_modelRK12llama_ubatchi, symObjAddr: 0x47878, symBinAddr: 0xA6EEC, symSize: 0x774 }
  - { offsetInCU: 0x7EE5F, offset: 0x415031, size: 0x8, addend: 0x0, symName: __Z13llm_type_name8llm_type, symObjAddr: 0x0, symBinAddr: 0x68CE8, symSize: 0x28 }
  - { offsetInCU: 0x7EF00, offset: 0x4150D2, size: 0x8, addend: 0x0, symName: __ZNSt3__13mapI23llama_rope_scaling_typePKcNS_4lessIS1_EENS_9allocatorINS_4pairIKS1_S3_EEEEED1B8ue170006Ev, symObjAddr: 0x28, symBinAddr: 0x68D10, symSize: 0x28 }
  - { offsetInCU: 0x7EFB4, offset: 0x415186, size: 0x8, addend: 0x0, symName: __ZNSt3__16__treeINS_12__value_typeI23llama_rope_scaling_typePKcEENS_19__map_value_compareIS2_S5_NS_4lessIS2_EELb1EEENS_9allocatorIS5_EEE7destroyEPNS_11__tree_nodeIS5_PvEE, symObjAddr: 0x340B8, symBinAddr: 0x93F98, symSize: 0x40 }
  - { offsetInCU: 0x7F42F, offset: 0x415601, size: 0x8, addend: 0x0, symName: __Z28llama_rope_scaling_type_name23llama_rope_scaling_type, symObjAddr: 0x50, symBinAddr: 0x68D38, symSize: 0xDC }
  - { offsetInCU: 0x7F877, offset: 0x415A49, size: 0x8, addend: 0x0, symName: __ZN11llama_modelC2ERK18llama_model_params, symObjAddr: 0x12C, symBinAddr: 0x68E14, symSize: 0x258 }
  - { offsetInCU: 0x7FFEB, offset: 0x4161BD, size: 0x8, addend: 0x0, symName: __ZN11llama_modelC2ERK18llama_model_params, symObjAddr: 0x12C, symBinAddr: 0x68E14, symSize: 0x258 }
  - { offsetInCU: 0x80939, offset: 0x416B0B, size: 0x8, addend: 0x0, symName: __ZNSt3__16vectorINS_4pairINS_12basic_stringIcNS_11char_traitsIcEENS_9allocatorIcEEEEP11ggml_tensorEENS5_ISA_EEED1B8ue170006Ev, symObjAddr: 0x384, symBinAddr: 0x6906C, symSize: 0x74 }
  - { offsetInCU: 0x80C28, offset: 0x416DFA, size: 0x8, addend: 0x0, symName: __ZNSt3__113unordered_mapINS_12basic_stringIcNS_11char_traitsIcEENS_9allocatorIcEEEES6_NS_4hashIS6_EENS_8equal_toIS6_EENS4_INS_4pairIKS6_S6_EEEEED1B8ue170006Ev, symObjAddr: 0x3F8, symBinAddr: 0x690E0, symSize: 0x84 }
  - { offsetInCU: 0x817D3, offset: 0x4179A5, size: 0x8, addend: 0x0, symName: __ZN11llama_modelC1ERK18llama_model_params, symObjAddr: 0x4F0, symBinAddr: 0x69164, symSize: 0x4 }
  - { offsetInCU: 0x8180F, offset: 0x4179E1, size: 0x8, addend: 0x0, symName: __ZN11llama_modelC1ERK18llama_model_params, symObjAddr: 0x4F0, symBinAddr: 0x69164, symSize: 0x4 }
  - { offsetInCU: 0x81919, offset: 0x417AEB, size: 0x8, addend: 0x0, symName: __ZN11llama_modelD2Ev, symObjAddr: 0x4F4, symBinAddr: 0x69168, symSize: 0x180 }
  - { offsetInCU: 0x82888, offset: 0x418A5A, size: 0x8, addend: 0x0, symName: __ZN11llama_model4implD2Ev, symObjAddr: 0x340F8, symBinAddr: 0x93FD8, symSize: 0x1E0 }
  - { offsetInCU: 0x83760, offset: 0x419932, size: 0x8, addend: 0x0, symName: __ZN11llama_modelD1Ev, symObjAddr: 0x674, symBinAddr: 0x692E8, symSize: 0x4 }
  - { offsetInCU: 0x83783, offset: 0x419955, size: 0x8, addend: 0x0, symName: __ZN11llama_modelD1Ev, symObjAddr: 0x674, symBinAddr: 0x692E8, symSize: 0x4 }
  - { offsetInCU: 0x837B1, offset: 0x419983, size: 0x8, addend: 0x0, symName: __ZN11llama_model10load_statsER18llama_model_loader, symObjAddr: 0x678, symBinAddr: 0x692EC, symSize: 0x10 }
  - { offsetInCU: 0x837EA, offset: 0x4199BC, size: 0x8, addend: 0x0, symName: __ZN11llama_model10load_statsER18llama_model_loader, symObjAddr: 0x678, symBinAddr: 0x692EC, symSize: 0x10 }
  - { offsetInCU: 0x8386F, offset: 0x419A41, size: 0x8, addend: 0x0, symName: __ZN11llama_model9load_archER18llama_model_loader, symObjAddr: 0x688, symBinAddr: 0x692FC, symSize: 0x174 }
  - { offsetInCU: 0x844E1, offset: 0x41A6B3, size: 0x8, addend: 0x0, symName: __ZN11llama_model12load_hparamsER18llama_model_loader, symObjAddr: 0x7FC, symBinAddr: 0x69470, symSize: 0x3680 }
  - { offsetInCU: 0x87605, offset: 0x41D7D7, size: 0x8, addend: 0x0, symName: __ZNSt3__14pairIKNS_12basic_stringIcNS_11char_traitsIcEENS_9allocatorIcEEEES6_EC2B8ue170006IRPKcRS7_LPv0EEEOT_OT0_, symObjAddr: 0x34390, symBinAddr: 0x94270, symSize: 0x144 }
  - { offsetInCU: 0x88443, offset: 0x41E615, size: 0x8, addend: 0x0, symName: __ZNSt3__112__hash_tableINS_17__hash_value_typeINS_12basic_stringIcNS_11char_traitsIcEENS_9allocatorIcEEEES7_EENS_22__unordered_map_hasherIS7_S8_NS_4hashIS7_EENS_8equal_toIS7_EELb1EEENS_21__unordered_map_equalIS7_S8_SD_SB_Lb1EEENS5_IS8_EEE28__node_insert_unique_prepareB8ue170006EmRS8_, symObjAddr: 0x34970, symBinAddr: 0x943B4, symSize: 0x2F0 }
  - { offsetInCU: 0x8878B, offset: 0x41E95D, size: 0x8, addend: 0x0, symName: _llama_model_rope_type, symObjAddr: 0x3FC4, symBinAddr: 0x6CC38, symSize: 0x6C }
  - { offsetInCU: 0x887BA, offset: 0x41E98C, size: 0x8, addend: 0x0, symName: __ZN11llama_model10load_vocabER18llama_model_loader, symObjAddr: 0x4030, symBinAddr: 0x6CCA4, symSize: 0x4C }
  - { offsetInCU: 0x887F0, offset: 0x41E9C2, size: 0x8, addend: 0x0, symName: __ZNSt3__110unique_ptrINS_11__hash_nodeINS_17__hash_value_typeINS_12basic_stringIcNS_11char_traitsIcEENS_9allocatorIcEEEES8_EEPvEENS_22__hash_node_destructorINS6_ISB_EEEEED1B8ue170006Ev, symObjAddr: 0x34328, symBinAddr: 0x94208, symSize: 0x68 }
  - { offsetInCU: 0x88BA7, offset: 0x41ED79, size: 0x8, addend: 0x0, symName: __ZNK11llama_model9arch_nameEv, symObjAddr: 0x3E7C, symBinAddr: 0x6CAF0, symSize: 0xA4 }
  - { offsetInCU: 0x88F29, offset: 0x41F0FB, size: 0x8, addend: 0x0, symName: __ZNK11llama_model9type_nameEv, symObjAddr: 0x3F20, symBinAddr: 0x6CB94, symSize: 0xA4 }
  - { offsetInCU: 0x88F3A, offset: 0x41F10C, size: 0x8, addend: 0x0, symName: __ZNK11llama_model9type_nameEv, symObjAddr: 0x3F20, symBinAddr: 0x6CB94, symSize: 0xA4 }
  - { offsetInCU: 0x892BC, offset: 0x41F48E, size: 0x8, addend: 0x0, symName: _llama_model_rope_type, symObjAddr: 0x3FC4, symBinAddr: 0x6CC38, symSize: 0x6C }
  - { offsetInCU: 0x892CD, offset: 0x41F49F, size: 0x8, addend: 0x0, symName: __ZN11llama_model10load_vocabER18llama_model_loader, symObjAddr: 0x4030, symBinAddr: 0x6CCA4, symSize: 0x4C }
  - { offsetInCU: 0x8A314, offset: 0x4204E6, size: 0x8, addend: 0x0, symName: __ZN11llama_model12load_tensorsER18llama_model_loader, symObjAddr: 0x407C, symBinAddr: 0x6CCF0, symSize: 0x1F1F0 }
  - { offsetInCU: 0xB7E65, offset: 0x44E037, size: 0x8, addend: 0x0, symName: __ZNSt3__16vectorINS_4pairIP19ggml_backend_deviceP24ggml_backend_buffer_typeEENS_9allocatorIS6_EEE18__insert_with_sizeB8ue170006INS_11__wrap_iterIPS6_EESD_EESD_NSB_IPKS6_EET_T0_l, symObjAddr: 0x34E0C, symBinAddr: 0x94850, symSize: 0x3A8 }
  - { offsetInCU: 0xB88E0, offset: 0x44EAB2, size: 0x8, addend: 0x0, symName: __ZNSt3__16vectorIN11llama_model4impl9layer_devENS_9allocatorIS3_EEE8__appendEm, symObjAddr: 0x351C8, symBinAddr: 0x94BF8, symSize: 0x128 }
  - { offsetInCU: 0xB8DC4, offset: 0x44EF96, size: 0x8, addend: 0x0, symName: __ZNKSt3__16vectorIN11llama_model4impl9layer_devENS_9allocatorIS3_EEE20__throw_length_errorB8ue170006Ev, symObjAddr: 0x352F0, symBinAddr: 0x94D20, symSize: 0x14 }
  - { offsetInCU: 0xB8DDE, offset: 0x44EFB0, size: 0x8, addend: 0x0, symName: '__ZZN11llama_model12load_tensorsER18llama_model_loaderENK3$_1clEi', symObjAddr: 0x23280, symBinAddr: 0x8BEF4, symSize: 0x1C8 }
  - { offsetInCU: 0xB9176, offset: 0x44F348, size: 0x8, addend: 0x0, symName: '__ZZN11llama_model12load_tensorsER18llama_model_loaderENK3$_3clERK11LLM_TN_IMPLRKSt16initializer_listIxEi', symObjAddr: 0x23448, symBinAddr: 0x8C0BC, symSize: 0xB44 }
  - { offsetInCU: 0xB918E, offset: 0x44F360, size: 0x8, addend: 0x0, symName: __ZNSt3__16vectorI11llama_layerNS_9allocatorIS1_EEE8__appendEm, symObjAddr: 0x35358, symBinAddr: 0x94D48, symSize: 0x1CC }
  - { offsetInCU: 0xB96D5, offset: 0x44F8A7, size: 0x8, addend: 0x0, symName: __ZNKSt3__16vectorI11llama_layerNS_9allocatorIS1_EEE20__throw_length_errorB8ue170006Ev, symObjAddr: 0x35524, symBinAddr: 0x94F14, symSize: 0x14 }
  - { offsetInCU: 0xB9708, offset: 0x44F8DA, size: 0x8, addend: 0x0, symName: '__ZZN11llama_model12load_tensorsER18llama_model_loaderENK3$_3clERK11LLM_TN_IMPLRKSt16initializer_listIxEi', symObjAddr: 0x23448, symBinAddr: 0x8C0BC, symSize: 0xB44 }
  - { offsetInCU: 0xBBE7B, offset: 0x45204D, size: 0x8, addend: 0x0, symName: __ZNSt3__16vectorINS_4pairIP12ggml_contextNS_13unordered_mapIjP19ggml_backend_bufferNS_4hashIjEENS_8equal_toIjEENS_9allocatorINS1_IKjS6_EEEEEEEENSB_ISG_EEE7reserveEm, symObjAddr: 0x2407C, symBinAddr: 0x8CC00, symSize: 0x19C }
  - { offsetInCU: 0xBBE8B, offset: 0x45205D, size: 0x8, addend: 0x0, symName: __ZNSt3__16vectorINS_4pairIP12ggml_contextNS_13unordered_mapIjP19ggml_backend_bufferNS_4hashIjEENS_8equal_toIjEENS_9allocatorINS1_IKjS6_EEEEEEEENSB_ISG_EEE7reserveEm, symObjAddr: 0x2407C, symBinAddr: 0x8CC00, symSize: 0x19C }
  - { offsetInCU: 0xBCB00, offset: 0x452CD2, size: 0x8, addend: 0x0, symName: __ZNSt3__112__hash_tableINS_17__hash_value_typeIjP19ggml_backend_bufferEENS_22__unordered_map_hasherIjS4_NS_4hashIjEENS_8equal_toIjEELb1EEENS_21__unordered_map_equalIjS4_S9_S7_Lb1EEENS_9allocatorIS4_EEE11__do_rehashILb1EEEvm, symObjAddr: 0x35638, symBinAddr: 0x95000, symSize: 0x1AC }
  - { offsetInCU: 0xBCF9E, offset: 0x453170, size: 0x8, addend: 0x0, symName: __ZNSt3__112__hash_tableINS_17__hash_value_typeIjP19ggml_backend_bufferEENS_22__unordered_map_hasherIjS4_NS_4hashIjEENS_8equal_toIjEELb1EEENS_21__unordered_map_equalIjS4_S9_S7_Lb1EEENS_9allocatorIS4_EEE25__emplace_unique_key_argsIjJRjRS3_EEENS_4pairINS_15__hash_iteratorIPNS_11__hash_nodeIS4_PvEEEEbEERKT_DpOT0_, symObjAddr: 0x3590C, symBinAddr: 0x951AC, symSize: 0x300 }
  - { offsetInCU: 0xBDA98, offset: 0x453C6A, size: 0x8, addend: 0x0, symName: __ZNSt3__16vectorINS_10unique_ptrI11llama_mlockNS_14default_deleteIS2_EEEENS_9allocatorIS5_EEE24__emplace_back_slow_pathIJPS2_EEEvDpOT_, symObjAddr: 0x35C0C, symBinAddr: 0x954AC, symSize: 0x128 }
  - { offsetInCU: 0xBE10A, offset: 0x4542DC, size: 0x8, addend: 0x0, symName: __ZNSt3__113unordered_mapIjP19ggml_backend_bufferNS_4hashIjEENS_8equal_toIjEENS_9allocatorINS_4pairIKjS2_EEEEEC2ERKSC_, symObjAddr: 0x35F90, symBinAddr: 0x9581C, symSize: 0x130 }
  - { offsetInCU: 0xBE4B0, offset: 0x454682, size: 0x8, addend: 0x0, symName: __ZNSt3__16vectorINS_4pairIP12ggml_contextNS_13unordered_mapIjP19ggml_backend_bufferNS_4hashIjEENS_8equal_toIjEENS_9allocatorINS1_IKjS6_EEEEEEEENSB_ISG_EEE24__emplace_back_slow_pathIJRS3_RSF_EEEvDpOT_, symObjAddr: 0x35D48, symBinAddr: 0x955D4, symSize: 0x248 }
  - { offsetInCU: 0xBF0D6, offset: 0x4552A8, size: 0x8, addend: 0x0, symName: __ZNSt3__16vectorINS_4pairINS_12basic_stringIcNS_11char_traitsIcEENS_9allocatorIcEEEEP11ggml_tensorEENS5_ISA_EEE24__emplace_back_slow_pathIJPKcRS9_EEEvDpOT_, symObjAddr: 0x363C0, symBinAddr: 0x95C4C, symSize: 0x224 }
  - { offsetInCU: 0xBFF8D, offset: 0x45615F, size: 0x8, addend: 0x0, symName: '__ZNSt3__110__function6__funcIZNK11llama_model10print_infoEvE3$_5NS_9allocatorIS3_EEFjjEED1Ev', symObjAddr: 0x36780, symBinAddr: 0x95EE8, symSize: 0x4 }
  - { offsetInCU: 0xC0094, offset: 0x456266, size: 0x8, addend: 0x0, symName: __ZNSt3__112__hash_tableINS_17__hash_value_typeIjP19ggml_backend_bufferEENS_22__unordered_map_hasherIjS4_NS_4hashIjEENS_8equal_toIjEELb1EEENS_21__unordered_map_equalIjS4_S9_S7_Lb1EEENS_9allocatorIS4_EEED1Ev, symObjAddr: 0x355F0, symBinAddr: 0x94FB8, symSize: 0x48 }
  - { offsetInCU: 0xC009F, offset: 0x456271, size: 0x8, addend: 0x0, symName: __ZNKSt3__16vectorINS_4pairIP19ggml_backend_deviceP24ggml_backend_buffer_typeEENS_9allocatorIS6_EEE20__throw_length_errorB8ue170006Ev, symObjAddr: 0x27368, symBinAddr: 0x8FD80, symSize: 0x14 }
  - { offsetInCU: 0xC00EC, offset: 0x4562BE, size: 0x8, addend: 0x0, symName: __ZNSt3__16vectorIN11llama_model4impl9layer_devENS_9allocatorIS3_EEE8__appendEm, symObjAddr: 0x351C8, symBinAddr: 0x94BF8, symSize: 0x128 }
  - { offsetInCU: 0xC00F7, offset: 0x4562C9, size: 0x8, addend: 0x0, symName: __ZNSt3__113unordered_mapIjP19ggml_backend_bufferNS_4hashIjEENS_8equal_toIjEENS_9allocatorINS_4pairIKjS2_EEEEED1B8ue170006Ev, symObjAddr: 0x242FC, symBinAddr: 0x8CD9C, symSize: 0x48 }
  - { offsetInCU: 0xC03CE, offset: 0x4565A0, size: 0x8, addend: 0x0, symName: __ZNSt3__16vectorINS_4pairIP12ggml_contextNS_13unordered_mapIjP19ggml_backend_bufferNS_4hashIjEENS_8equal_toIjEENS_9allocatorINS1_IKjS6_EEEEEEEENSB_ISG_EEED1B8ue170006Ev, symObjAddr: 0x24344, symBinAddr: 0x8CDE4, symSize: 0x8C }
  - { offsetInCU: 0xC083A, offset: 0x456A0C, size: 0x8, addend: 0x0, symName: __ZNK11llama_model9n_devicesEv, symObjAddr: 0x2326C, symBinAddr: 0x8BEE0, symSize: 0x14 }
  - { offsetInCU: 0xC085E, offset: 0x456A30, size: 0x8, addend: 0x0, symName: __ZNK11llama_model9n_devicesEv, symObjAddr: 0x2326C, symBinAddr: 0x8BEE0, symSize: 0x14 }
  - { offsetInCU: 0xC0998, offset: 0x456B6A, size: 0x8, addend: 0x0, symName: __ZNKSt3__16vectorIP19ggml_backend_deviceNS_9allocatorIS2_EEE20__throw_out_of_rangeB8ue170006Ev, symObjAddr: 0x27418, symBinAddr: 0x8FD94, symSize: 0x14 }
  - { offsetInCU: 0xC09C2, offset: 0x456B94, size: 0x8, addend: 0x0, symName: __ZL18select_weight_buftRK13llama_hparamsP11ggml_tensor7ggml_opRKNSt3__16vectorINS5_4pairIP19ggml_backend_deviceP24ggml_backend_buffer_typeEENS5_9allocatorISC_EEEE, symObjAddr: 0x2742C, symBinAddr: 0x8FDA8, symSize: 0x6B0 }
  - { offsetInCU: 0xC1650, offset: 0x457822, size: 0x8, addend: 0x0, symName: __ZNSt3__111basic_regexIcNS_12regex_traitsIcEEE7__parseIPKcEET_S7_S7_, symObjAddr: 0x27B9C, symBinAddr: 0x90458, symSize: 0x34C }
  - { offsetInCU: 0xC21FC, offset: 0x4583CE, size: 0x8, addend: 0x0, symName: __ZL18select_weight_buftRK13llama_hparamsP11ggml_tensor7ggml_opRKNSt3__16vectorINS5_4pairIP19ggml_backend_deviceP24ggml_backend_buffer_typeEENS5_9allocatorISC_EEEE, symObjAddr: 0x2742C, symBinAddr: 0x8FDA8, symSize: 0x6B0 }
  - { offsetInCU: 0xC3209, offset: 0x4593DB, size: 0x8, addend: 0x0, symName: __ZNKSt3__16vectorIN11llama_model4impl9layer_devENS_9allocatorIS3_EEE20__throw_out_of_rangeB8ue170006Ev, symObjAddr: 0x35344, symBinAddr: 0x94D34, symSize: 0x14 }
  - { offsetInCU: 0xC3233, offset: 0x459405, size: 0x8, addend: 0x0, symName: __ZNSt3__16vectorI11llama_layerNS_9allocatorIS1_EEE8__appendEm, symObjAddr: 0x35358, symBinAddr: 0x94D48, symSize: 0x1CC }
  - { offsetInCU: 0xC3611, offset: 0x4597E3, size: 0x8, addend: 0x0, symName: __ZNKSt3__16vectorINS_4pairIP12ggml_contextNS_13unordered_mapIjP19ggml_backend_bufferNS_4hashIjEENS_8equal_toIjEENS_9allocatorINS1_IKjS6_EEEEEEEENSB_ISG_EEE20__throw_length_errorB8ue170006Ev, symObjAddr: 0x3554C, symBinAddr: 0x94F28, symSize: 0x14 }
  - { offsetInCU: 0xC3B05, offset: 0x459CD7, size: 0x8, addend: 0x0, symName: __ZNKSt3__16vectorINS_4pairIP12ggml_contextNS_13unordered_mapIjP19ggml_backend_bufferNS_4hashIjEENS_8equal_toIjEENS_9allocatorINS1_IKjS6_EEEEEEEENSB_ISG_EEE20__throw_length_errorB8ue170006Ev, symObjAddr: 0x3554C, symBinAddr: 0x94F28, symSize: 0x14 }
  - { offsetInCU: 0xC3B2F, offset: 0x459D01, size: 0x8, addend: 0x0, symName: __ZNSt3__114__split_bufferINS_4pairIP12ggml_contextNS_13unordered_mapIjP19ggml_backend_bufferNS_4hashIjEENS_8equal_toIjEENS_9allocatorINS1_IKjS6_EEEEEEEERNSB_ISG_EEED1Ev, symObjAddr: 0x35560, symBinAddr: 0x94F3C, symSize: 0x7C }
  - { offsetInCU: 0xC3BE6, offset: 0x459DB8, size: 0x8, addend: 0x0, symName: __ZNK11llama_model4descEv, symObjAddr: 0x243D0, symBinAddr: 0x8CE70, symSize: 0xA4 }
  - { offsetInCU: 0xC3FA3, offset: 0x45A175, size: 0x8, addend: 0x0, symName: __ZNK11llama_model4sizeEv, symObjAddr: 0x24474, symBinAddr: 0x8CF14, symSize: 0xC }
  - { offsetInCU: 0xC3FB4, offset: 0x45A186, size: 0x8, addend: 0x0, symName: __ZNK11llama_model4sizeEv, symObjAddr: 0x24474, symBinAddr: 0x8CF14, symSize: 0xC }
  - { offsetInCU: 0xC3FD8, offset: 0x45A1AA, size: 0x8, addend: 0x0, symName: __ZNK11llama_model4sizeEv, symObjAddr: 0x24474, symBinAddr: 0x8CF14, symSize: 0xC }
  - { offsetInCU: 0xC4011, offset: 0x45A1E3, size: 0x8, addend: 0x0, symName: __ZNK11llama_model9n_tensorsEv, symObjAddr: 0x24480, symBinAddr: 0x8CF20, symSize: 0x14 }
  - { offsetInCU: 0xC403D, offset: 0x45A20F, size: 0x8, addend: 0x0, symName: __ZNK11llama_model9n_tensorsEv, symObjAddr: 0x24480, symBinAddr: 0x8CF20, symSize: 0x14 }
  - { offsetInCU: 0xC405B, offset: 0x45A22D, size: 0x8, addend: 0x0, symName: __ZNK11llama_model10n_elementsEv, symObjAddr: 0x24494, symBinAddr: 0x8CF34, symSize: 0xC }
  - { offsetInCU: 0xC407F, offset: 0x45A251, size: 0x8, addend: 0x0, symName: __ZNK11llama_model10n_elementsEv, symObjAddr: 0x24494, symBinAddr: 0x8CF34, symSize: 0xC }
  - { offsetInCU: 0xC4D1E, offset: 0x45AEF0, size: 0x8, addend: 0x0, symName: '__ZZNK11llama_model10print_infoEvENK3$_4clERKNSt3__18functionIFjjEEEj', symObjAddr: 0x254B4, symBinAddr: 0x8DF54, symSize: 0x3BC }
  - { offsetInCU: 0xC5ED9, offset: 0x45C0AB, size: 0x8, addend: 0x0, symName: __ZNK11llama_model9dev_layerEi, symObjAddr: 0x25870, symBinAddr: 0x8E310, symSize: 0x34 }
  - { offsetInCU: 0xC5F6D, offset: 0x45C13F, size: 0x8, addend: 0x0, symName: __ZNK11llama_model10dev_outputEv, symObjAddr: 0x258A4, symBinAddr: 0x8E344, symSize: 0xC }
  - { offsetInCU: 0xC5F78, offset: 0x45C14A, size: 0x8, addend: 0x0, symName: __ZNK11llama_model10dev_outputEv, symObjAddr: 0x258A4, symBinAddr: 0x8E344, symSize: 0xC }
  - { offsetInCU: 0xC5FA4, offset: 0x45C176, size: 0x8, addend: 0x0, symName: __ZNK11llama_model10dev_outputEv, symObjAddr: 0x258A4, symBinAddr: 0x8E344, symSize: 0xC }
  - { offsetInCU: 0xC603E, offset: 0x45C210, size: 0x8, addend: 0x0, symName: __ZNK11llama_model11select_buftEi, symObjAddr: 0x258B0, symBinAddr: 0x8E350, symSize: 0x2A8 }
  - { offsetInCU: 0xC675E, offset: 0x45C930, size: 0x8, addend: 0x0, symName: __ZNK11llama_model20has_tensor_overridesEv, symObjAddr: 0x25B58, symBinAddr: 0x8E5F8, symSize: 0xC }
  - { offsetInCU: 0xC678A, offset: 0x45C95C, size: 0x8, addend: 0x0, symName: __ZNK11llama_model20has_tensor_overridesEv, symObjAddr: 0x25B58, symBinAddr: 0x8E5F8, symSize: 0xC }
  - { offsetInCU: 0xC67D8, offset: 0x45C9AA, size: 0x8, addend: 0x0, symName: __ZNK11llama_model10get_tensorEPKc, symObjAddr: 0x25B64, symBinAddr: 0x8E604, symSize: 0xE8 }
  - { offsetInCU: 0xC6A96, offset: 0x45CC68, size: 0x8, addend: 0x0, symName: __ZNK11llama_model18get_rope_freq_baseERK13llama_cparamsi, symObjAddr: 0x25C4C, symBinAddr: 0x8E6EC, symSize: 0x44 }
  - { offsetInCU: 0xC6ACA, offset: 0x45CC9C, size: 0x8, addend: 0x0, symName: __ZNK11llama_model19get_rope_freq_scaleERK13llama_cparamsi, symObjAddr: 0x25C90, symBinAddr: 0x8E730, symSize: 0x44 }
  - { offsetInCU: 0xC6B22, offset: 0x45CCF4, size: 0x8, addend: 0x0, symName: __ZNK11llama_model16get_rope_factorsERK13llama_cparamsi, symObjAddr: 0x25CD4, symBinAddr: 0x8E774, symSize: 0x48 }
  - { offsetInCU: 0xC6B5D, offset: 0x45CD2F, size: 0x8, addend: 0x0, symName: __ZNK11llama_model16get_rope_factorsERK13llama_cparamsi, symObjAddr: 0x25CD4, symBinAddr: 0x8E774, symSize: 0x48 }
  - { offsetInCU: 0xC81BE, offset: 0x45E390, size: 0x8, addend: 0x0, symName: __ZNK11llama_model11build_graphERK16llm_graph_params, symObjAddr: 0x26158, symBinAddr: 0x8EBF8, symSize: 0xB84 }
  - { offsetInCU: 0xCA5EC, offset: 0x4607BE, size: 0x8, addend: 0x0, symName: __ZN14llm_build_bertC2ERK11llama_modelRK16llm_graph_params, symObjAddr: 0x3A020, symBinAddr: 0x99788, symSize: 0x870 }
  - { offsetInCU: 0xCAC62, offset: 0x460E34, size: 0x8, addend: 0x0, symName: __ZN14llm_build_bertD1Ev, symObjAddr: 0x3A890, symBinAddr: 0x99FF8, symSize: 0x4 }
  - { offsetInCU: 0xCAC74, offset: 0x460E46, size: 0x8, addend: 0x0, symName: __ZN17llm_build_graniteC2ERK11llama_modelRK16llm_graph_params, symObjAddr: 0x543EC, symBinAddr: 0xB3A60, symSize: 0x328 }
  - { offsetInCU: 0xCAEAD, offset: 0x46107F, size: 0x8, addend: 0x0, symName: __ZN17llm_build_granite21build_attention_layerEP11ggml_tensorS1_P31llm_graph_input_attn_kv_unifiedRK11llama_modelxi, symObjAddr: 0x54714, symBinAddr: 0xB3D88, symSize: 0x39C }
  - { offsetInCU: 0xCAEBF, offset: 0x461091, size: 0x8, addend: 0x0, symName: __ZN14llm_build_phi3ILb1EEC2ERK11llama_modelRK16llm_graph_params, symObjAddr: 0x3F4A4, symBinAddr: 0x9EC0C, symSize: 0x77C }
  - { offsetInCU: 0xCB3C4, offset: 0x461596, size: 0x8, addend: 0x0, symName: __ZN14llm_build_phi3ILb1EED1Ev, symObjAddr: 0x3FC20, symBinAddr: 0x9F388, symSize: 0x4 }
  - { offsetInCU: 0xCB3E2, offset: 0x4615B4, size: 0x8, addend: 0x0, symName: __ZN15llm_build_mambaC2ERK11llama_modelRK16llm_graph_params, symObjAddr: 0x46DF8, symBinAddr: 0xA646C, symSize: 0x238 }
  - { offsetInCU: 0xCB566, offset: 0x461738, size: 0x8, addend: 0x0, symName: __ZN14llm_build_dbrxC2ERK11llama_modelRK16llm_graph_params, symObjAddr: 0x49A48, symBinAddr: 0xA90BC, symSize: 0x578 }
  - { offsetInCU: 0xCB8EB, offset: 0x461ABD, size: 0x8, addend: 0x0, symName: __ZN14llm_build_dbrxD1Ev, symObjAddr: 0x49FC0, symBinAddr: 0xA9634, symSize: 0x4 }
  - { offsetInCU: 0xCB8FD, offset: 0x461ACF, size: 0x8, addend: 0x0, symName: __ZN14llm_build_olmoC2ERK11llama_modelRK16llm_graph_params, symObjAddr: 0x49FC8, symBinAddr: 0xA963C, symSize: 0x604 }
  - { offsetInCU: 0xCBC5D, offset: 0x461E2F, size: 0x8, addend: 0x0, symName: __ZN14llm_build_olmoD1Ev, symObjAddr: 0x4A5CC, symBinAddr: 0xA9C40, symSize: 0x4 }
  - { offsetInCU: 0xCBC6F, offset: 0x461E41, size: 0x8, addend: 0x0, symName: __ZN18llm_build_glm4_moeC2ERK11llama_modelRK16llm_graph_params, symObjAddr: 0x4E39C, symBinAddr: 0xADA10, symSize: 0x6E8 }
  - { offsetInCU: 0xCC115, offset: 0x4622E7, size: 0x8, addend: 0x0, symName: __ZN18llm_build_glm4_moeD1Ev, symObjAddr: 0x4EA84, symBinAddr: 0xAE0F8, symSize: 0x4 }
  - { offsetInCU: 0xCC127, offset: 0x4622F9, size: 0x8, addend: 0x0, symName: __ZN16llm_build_t5_decC2ERK11llama_modelRK16llm_graph_params, symObjAddr: 0x4F68C, symBinAddr: 0xAED00, symSize: 0x6A4 }
  - { offsetInCU: 0xCC647, offset: 0x462819, size: 0x8, addend: 0x0, symName: __ZN16llm_build_t5_decD1Ev, symObjAddr: 0x4FD30, symBinAddr: 0xAF3A4, symSize: 0x4 }
  - { offsetInCU: 0xCC659, offset: 0x46282B, size: 0x8, addend: 0x0, symName: __ZN16llm_build_exaoneC2ERK11llama_modelRK16llm_graph_params, symObjAddr: 0x5081C, symBinAddr: 0xAFE90, symSize: 0x674 }
  - { offsetInCU: 0xCCA98, offset: 0x462C6A, size: 0x8, addend: 0x0, symName: __ZN16llm_build_exaoneD1Ev, symObjAddr: 0x50E90, symBinAddr: 0xB0504, symSize: 0x4 }
  - { offsetInCU: 0xCCAAA, offset: 0x462C7C, size: 0x8, addend: 0x0, symName: __ZN15llm_build_rwkv6C2ERK11llama_modelRK16llm_graph_params, symObjAddr: 0x51B80, symBinAddr: 0xB11F4, symSize: 0x59C }
  - { offsetInCU: 0xCCFEA, offset: 0x4631BC, size: 0x8, addend: 0x0, symName: __ZNK20llm_build_rwkv6_base20build_rwkv6_time_mixEP18llm_graph_input_rsP11ggml_tensorS3_RK12llama_ubatchi, symObjAddr: 0x5211C, symBinAddr: 0xB1790, symSize: 0xA7C }
  - { offsetInCU: 0xCCFFC, offset: 0x4631CE, size: 0x8, addend: 0x0, symName: __ZN20llm_build_rwkv6qwen2C2ERK11llama_modelRK16llm_graph_params, symObjAddr: 0x52CC4, symBinAddr: 0xB2338, symSize: 0x444 }
  - { offsetInCU: 0xCD386, offset: 0x463558, size: 0x8, addend: 0x0, symName: __ZN20llm_build_rwkv6qwen2D1Ev, symObjAddr: 0x53108, symBinAddr: 0xB277C, symSize: 0x4 }
  - { offsetInCU: 0xCD398, offset: 0x46356A, size: 0x8, addend: 0x0, symName: __ZN16llm_build_arwkv7C2ERK11llama_modelRK16llm_graph_params, symObjAddr: 0x53F98, symBinAddr: 0xB360C, symSize: 0x44C }
  - { offsetInCU: 0xCD73A, offset: 0x46390C, size: 0x8, addend: 0x0, symName: __ZN16llm_build_arwkv7D1Ev, symObjAddr: 0x543E4, symBinAddr: 0xB3A58, symSize: 0x4 }
  - { offsetInCU: 0xCD74C, offset: 0x46391E, size: 0x8, addend: 0x0, symName: __ZN19llm_build_chameleonC2ERK11llama_modelRK16llm_graph_params, symObjAddr: 0x55648, symBinAddr: 0xB4CBC, symSize: 0x85C }
  - { offsetInCU: 0xCDD1F, offset: 0x463EF1, size: 0x8, addend: 0x0, symName: __ZN19llm_build_chameleonD1Ev, symObjAddr: 0x55EA4, symBinAddr: 0xB5518, symSize: 0x4 }
  - { offsetInCU: 0xCDD31, offset: 0x463F03, size: 0x8, addend: 0x0, symName: __ZN15llm_build_dots1C2ERK11llama_modelRK16llm_graph_params, symObjAddr: 0x57320, symBinAddr: 0xB6994, symSize: 0x6A8 }
  - { offsetInCU: 0xCE146, offset: 0x464318, size: 0x8, addend: 0x0, symName: __ZN15llm_build_dots1D1Ev, symObjAddr: 0x579C8, symBinAddr: 0xB703C, symSize: 0x4 }
  - { offsetInCU: 0xCE158, offset: 0x46432A, size: 0x8, addend: 0x0, symName: __ZN23llm_build_hunyuan_denseC2ERK11llama_modelRK16llm_graph_params, symObjAddr: 0x59578, symBinAddr: 0xB8BEC, symSize: 0x70C }
  - { offsetInCU: 0xCE63A, offset: 0x46480C, size: 0x8, addend: 0x0, symName: __ZN23llm_build_hunyuan_denseD1Ev, symObjAddr: 0x59C84, symBinAddr: 0xB92F8, symSize: 0x4 }
  - { offsetInCU: 0xCE64D, offset: 0x46481F, size: 0x8, addend: 0x0, symName: __ZN15llm_build_llamaC2ERK11llama_modelRK16llm_graph_params, symObjAddr: 0x36DE8, symBinAddr: 0x96550, symSize: 0x6E0 }
  - { offsetInCU: 0xCEA7A, offset: 0x464C4C, size: 0x8, addend: 0x0, symName: __ZN15llm_build_llamaD1Ev, symObjAddr: 0x374C8, symBinAddr: 0x96C30, symSize: 0x4 }
  - { offsetInCU: 0xCEA8C, offset: 0x464C5E, size: 0x8, addend: 0x0, symName: __ZN20llm_build_llama_iswaC2ERK11llama_modelRK16llm_graph_params, symObjAddr: 0x374D0, symBinAddr: 0x96C38, symSize: 0x844 }
  - { offsetInCU: 0xCEFCD, offset: 0x46519F, size: 0x8, addend: 0x0, symName: __ZN20llm_build_llama_iswaD1Ev, symObjAddr: 0x37D14, symBinAddr: 0x9747C, symSize: 0x4 }
  - { offsetInCU: 0xCEFDF, offset: 0x4651B1, size: 0x8, addend: 0x0, symName: __ZN14llm_build_deciC2ERK11llama_modelRK16llm_graph_params, symObjAddr: 0x37D1C, symBinAddr: 0x97484, symSize: 0x720 }
  - { offsetInCU: 0xCF445, offset: 0x465617, size: 0x8, addend: 0x0, symName: __ZN14llm_build_deciD1Ev, symObjAddr: 0x3843C, symBinAddr: 0x97BA4, symSize: 0x4 }
  - { offsetInCU: 0xCF457, offset: 0x465629, size: 0x8, addend: 0x0, symName: __ZN16llm_build_falconC2ERK11llama_modelRK16llm_graph_params, symObjAddr: 0x389CC, symBinAddr: 0x98134, symSize: 0x548 }
  - { offsetInCU: 0xCF7CE, offset: 0x4659A0, size: 0x8, addend: 0x0, symName: __ZN16llm_build_falconD1Ev, symObjAddr: 0x38F14, symBinAddr: 0x9867C, symSize: 0x4 }
  - { offsetInCU: 0xCF7E0, offset: 0x4659B2, size: 0x8, addend: 0x0, symName: __ZN18llm_build_baichuanC2ERK11llama_modelRK16llm_graph_params, symObjAddr: 0x38444, symBinAddr: 0x97BAC, symSize: 0x580 }
  - { offsetInCU: 0xCFB50, offset: 0x465D22, size: 0x8, addend: 0x0, symName: __ZN18llm_build_baichuanD1Ev, symObjAddr: 0x389C4, symBinAddr: 0x9812C, symSize: 0x4 }
  - { offsetInCU: 0xCFB62, offset: 0x465D34, size: 0x8, addend: 0x0, symName: __ZN14llm_build_grokC2ERK11llama_modelRK16llm_graph_params, symObjAddr: 0x38F1C, symBinAddr: 0x98684, symSize: 0x6CC }
  - { offsetInCU: 0xCFFBF, offset: 0x466191, size: 0x8, addend: 0x0, symName: __ZN14llm_build_grokD1Ev, symObjAddr: 0x395E8, symBinAddr: 0x98D50, symSize: 0x4 }
  - { offsetInCU: 0xCFFD1, offset: 0x4661A3, size: 0x8, addend: 0x0, symName: __ZN14llm_build_gpt2C2ERK11llama_modelRK16llm_graph_params, symObjAddr: 0x41E3C, symBinAddr: 0xA14B0, symSize: 0x578 }
  - { offsetInCU: 0xD03B2, offset: 0x466584, size: 0x8, addend: 0x0, symName: __ZN14llm_build_gpt2D1Ev, symObjAddr: 0x423B4, symBinAddr: 0xA1A28, symSize: 0x4 }
  - { offsetInCU: 0xD03C4, offset: 0x466596, size: 0x8, addend: 0x0, symName: __ZN17llm_build_gptneoxC2ERK11llama_modelRK16llm_graph_params, symObjAddr: 0x4B76C, symBinAddr: 0xAADE0, symSize: 0x614 }
  - { offsetInCU: 0xD07DA, offset: 0x4669AC, size: 0x8, addend: 0x0, symName: __ZN17llm_build_gptneoxD1Ev, symObjAddr: 0x4BD80, symBinAddr: 0xAB3F4, symSize: 0x4 }
  - { offsetInCU: 0xD07EC, offset: 0x4669BE, size: 0x8, addend: 0x0, symName: __ZN13llm_build_mptC2ERK11llama_modelRK16llm_graph_params, symObjAddr: 0x3B28C, symBinAddr: 0x9A9F4, symSize: 0x6CC }
  - { offsetInCU: 0xD0C3D, offset: 0x466E0F, size: 0x8, addend: 0x0, symName: __ZN13llm_build_mptD1Ev, symObjAddr: 0x3B958, symBinAddr: 0x9B0C0, symSize: 0x4 }
  - { offsetInCU: 0xD0C4F, offset: 0x466E21, size: 0x8, addend: 0x0, symName: __ZN19llm_build_starcoderC2ERK11llama_modelRK16llm_graph_params, symObjAddr: 0x395F0, symBinAddr: 0x98D58, symSize: 0x57C }
  - { offsetInCU: 0xD1030, offset: 0x467202, size: 0x8, addend: 0x0, symName: __ZN19llm_build_starcoderD1Ev, symObjAddr: 0x39B6C, symBinAddr: 0x992D4, symSize: 0x4 }
  - { offsetInCU: 0xD1042, offset: 0x467214, size: 0x8, addend: 0x0, symName: __ZN16llm_build_refactC2ERK11llama_modelRK16llm_graph_params, symObjAddr: 0x39B74, symBinAddr: 0x992DC, symSize: 0x4A4 }
  - { offsetInCU: 0xD134B, offset: 0x46751D, size: 0x8, addend: 0x0, symName: __ZN16llm_build_refactD1Ev, symObjAddr: 0x3A018, symBinAddr: 0x99780, symSize: 0x4 }
  - { offsetInCU: 0xD135D, offset: 0x46752F, size: 0x8, addend: 0x0, symName: __ZN18llm_build_neo_bertC2ERK11llama_modelRK16llm_graph_params, symObjAddr: 0x3A898, symBinAddr: 0x9A000, symSize: 0x494 }
  - { offsetInCU: 0xD16B4, offset: 0x467886, size: 0x8, addend: 0x0, symName: __ZN18llm_build_neo_bertD1Ev, symObjAddr: 0x3AD2C, symBinAddr: 0x9A494, symSize: 0x4 }
  - { offsetInCU: 0xD16C6, offset: 0x467898, size: 0x8, addend: 0x0, symName: __ZN15llm_build_bloomC2ERK11llama_modelRK16llm_graph_params, symObjAddr: 0x3AD34, symBinAddr: 0x9A49C, symSize: 0x550 }
  - { offsetInCU: 0xD1A57, offset: 0x467C29, size: 0x8, addend: 0x0, symName: __ZN15llm_build_bloomD1Ev, symObjAddr: 0x3B284, symBinAddr: 0x9A9EC, symSize: 0x4 }
  - { offsetInCU: 0xD1A69, offset: 0x467C3B, size: 0x8, addend: 0x0, symName: __ZN18llm_build_stablelmC2ERK11llama_modelRK16llm_graph_params, symObjAddr: 0x3B960, symBinAddr: 0x9B0C8, symSize: 0x694 }
  - { offsetInCU: 0xD1E92, offset: 0x468064, size: 0x8, addend: 0x0, symName: __ZN18llm_build_stablelmD1Ev, symObjAddr: 0x3BFF4, symBinAddr: 0x9B75C, symSize: 0x4 }
  - { offsetInCU: 0xD1EA4, offset: 0x468076, size: 0x8, addend: 0x0, symName: __ZN14llm_build_qwenC2ERK11llama_modelRK16llm_graph_params, symObjAddr: 0x3BFFC, symBinAddr: 0x9B764, symSize: 0x508 }
  - { offsetInCU: 0xD2222, offset: 0x4683F4, size: 0x8, addend: 0x0, symName: __ZN14llm_build_qwenD1Ev, symObjAddr: 0x3C504, symBinAddr: 0x9BC6C, symSize: 0x4 }
  - { offsetInCU: 0xD2234, offset: 0x468406, size: 0x8, addend: 0x0, symName: __ZN15llm_build_qwen2C2ERK11llama_modelRK16llm_graph_params, symObjAddr: 0x3C50C, symBinAddr: 0x9BC74, symSize: 0x59C }
  - { offsetInCU: 0xD2654, offset: 0x468826, size: 0x8, addend: 0x0, symName: __ZN15llm_build_qwen2D1Ev, symObjAddr: 0x3CAA8, symBinAddr: 0x9C210, symSize: 0x4 }
  - { offsetInCU: 0xD2666, offset: 0x468838, size: 0x8, addend: 0x0, symName: __ZN18llm_build_qwen2moeC2ERK11llama_modelRK16llm_graph_params, symObjAddr: 0x3DB50, symBinAddr: 0x9D2B8, symSize: 0x70C }
  - { offsetInCU: 0xD2B7A, offset: 0x468D4C, size: 0x8, addend: 0x0, symName: __ZN18llm_build_qwen2moeD1Ev, symObjAddr: 0x3E25C, symBinAddr: 0x9D9C4, symSize: 0x4 }
  - { offsetInCU: 0xD2B8C, offset: 0x468D5E, size: 0x8, addend: 0x0, symName: __ZN17llm_build_qwen2vlC2ERK11llama_modelRK16llm_graph_params, symObjAddr: 0x3D580, symBinAddr: 0x9CCE8, symSize: 0x5C8 }
  - { offsetInCU: 0xD315B, offset: 0x46932D, size: 0x8, addend: 0x0, symName: __ZN15llm_build_qwen3C2ERK11llama_modelRK16llm_graph_params, symObjAddr: 0x3E264, symBinAddr: 0x9D9CC, symSize: 0x5C0 }
  - { offsetInCU: 0xD3516, offset: 0x4696E8, size: 0x8, addend: 0x0, symName: __ZN15llm_build_qwen3D1Ev, symObjAddr: 0x3E824, symBinAddr: 0x9DF8C, symSize: 0x4 }
  - { offsetInCU: 0xD3528, offset: 0x4696FA, size: 0x8, addend: 0x0, symName: __ZN18llm_build_qwen3moeC2ERK11llama_modelRK16llm_graph_params, symObjAddr: 0x3E82C, symBinAddr: 0x9DF94, symSize: 0x5C0 }
  - { offsetInCU: 0xD38F4, offset: 0x469AC6, size: 0x8, addend: 0x0, symName: __ZN18llm_build_qwen3moeD1Ev, symObjAddr: 0x3EDEC, symBinAddr: 0x9E554, symSize: 0x4 }
  - { offsetInCU: 0xD3906, offset: 0x469AD8, size: 0x8, addend: 0x0, symName: __ZN14llm_build_phi2C2ERK11llama_modelRK16llm_graph_params, symObjAddr: 0x3EDF4, symBinAddr: 0x9E55C, symSize: 0x6A8 }
  - { offsetInCU: 0xD3DE5, offset: 0x469FB7, size: 0x8, addend: 0x0, symName: __ZN14llm_build_phi2D1Ev, symObjAddr: 0x3F49C, symBinAddr: 0x9EC04, symSize: 0x4 }
  - { offsetInCU: 0xD3DF7, offset: 0x469FC9, size: 0x8, addend: 0x0, symName: __ZN15llm_build_plamoC2ERK11llama_modelRK16llm_graph_params, symObjAddr: 0x403AC, symBinAddr: 0x9FB14, symSize: 0x4E4 }
  - { offsetInCU: 0xD415F, offset: 0x46A331, size: 0x8, addend: 0x0, symName: __ZN15llm_build_plamoD1Ev, symObjAddr: 0x40890, symBinAddr: 0x9FFF8, symSize: 0x4 }
  - { offsetInCU: 0xD4171, offset: 0x46A343, size: 0x8, addend: 0x0, symName: __ZN16llm_build_plamo2C2ERK11llama_modelRK16llm_graph_params, symObjAddr: 0x40898, symBinAddr: 0xA0000, symSize: 0x384 }
  - { offsetInCU: 0xD44A3, offset: 0x46A675, size: 0x8, addend: 0x0, symName: __ZN19llm_build_codeshellC2ERK11llama_modelRK16llm_graph_params, symObjAddr: 0x423BC, symBinAddr: 0xA1A30, symSize: 0x56C }
  - { offsetInCU: 0xD483F, offset: 0x46AA11, size: 0x8, addend: 0x0, symName: __ZN19llm_build_codeshellD1Ev, symObjAddr: 0x42928, symBinAddr: 0xA1F9C, symSize: 0x4 }
  - { offsetInCU: 0xD4851, offset: 0x46AA23, size: 0x8, addend: 0x0, symName: __ZN15llm_build_orionC2ERK11llama_modelRK16llm_graph_params, symObjAddr: 0x42930, symBinAddr: 0xA1FA4, symSize: 0x53C }
  - { offsetInCU: 0xD4BBE, offset: 0x46AD90, size: 0x8, addend: 0x0, symName: __ZN15llm_build_orionD1Ev, symObjAddr: 0x42E6C, symBinAddr: 0xA24E0, symSize: 0x4 }
  - { offsetInCU: 0xD4BD0, offset: 0x46ADA2, size: 0x8, addend: 0x0, symName: __ZN19llm_build_internlm2C2ERK11llama_modelRK16llm_graph_params, symObjAddr: 0x42E74, symBinAddr: 0xA24E8, symSize: 0x5E8 }
  - { offsetInCU: 0xD4FCA, offset: 0x46B19C, size: 0x8, addend: 0x0, symName: __ZN19llm_build_internlm2D1Ev, symObjAddr: 0x4345C, symBinAddr: 0xA2AD0, symSize: 0x4 }
  - { offsetInCU: 0xD4FDC, offset: 0x46B1AE, size: 0x8, addend: 0x0, symName: __ZN18llm_build_minicpm3C2ERK11llama_modelRK16llm_graph_params, symObjAddr: 0x43464, symBinAddr: 0xA2AD8, symSize: 0x9E4 }
  - { offsetInCU: 0xD57AF, offset: 0x46B981, size: 0x8, addend: 0x0, symName: __ZN15llm_build_gemmaC2ERK11llama_modelRK16llm_graph_params, symObjAddr: 0x43E50, symBinAddr: 0xA34C4, symSize: 0x538 }
  - { offsetInCU: 0xD5B1E, offset: 0x46BCF0, size: 0x8, addend: 0x0, symName: __ZN21llm_build_gemma2_iswaC2ERK11llama_modelRK16llm_graph_params, symObjAddr: 0x44390, symBinAddr: 0xA3A04, symSize: 0x5C8 }
  - { offsetInCU: 0xD5F05, offset: 0x46C0D7, size: 0x8, addend: 0x0, symName: __ZN21llm_build_gemma3_iswaC2ERK11llama_modelRK16llm_graph_params, symObjAddr: 0x44960, symBinAddr: 0xA3FD4, symSize: 0x698 }
  - { offsetInCU: 0xD638E, offset: 0x46C560, size: 0x8, addend: 0x0, symName: __ZN22llm_build_gemma3n_iswaC2ERK11llama_modelRK16llm_graph_params, symObjAddr: 0x45000, symBinAddr: 0xA4674, symSize: 0xFF8 }
  - { offsetInCU: 0xD748B, offset: 0x46D65D, size: 0x8, addend: 0x0, symName: __ZN22llm_build_gemma3n_iswa24project_per_layer_inputsEP11ggml_tensorS1_, symObjAddr: 0x45FF8, symBinAddr: 0xA566C, symSize: 0x128 }
  - { offsetInCU: 0xD749D, offset: 0x46D66F, size: 0x8, addend: 0x0, symName: __ZN20llm_build_starcoder2C2ERK11llama_modelRK16llm_graph_params, symObjAddr: 0x467FC, symBinAddr: 0xA5E70, symSize: 0x5F4 }
  - { offsetInCU: 0xD7897, offset: 0x46DA69, size: 0x8, addend: 0x0, symName: __ZN20llm_build_starcoder2D1Ev, symObjAddr: 0x46DF0, symBinAddr: 0xA6464, symSize: 0x4 }
  - { offsetInCU: 0xD78A9, offset: 0x46DA7B, size: 0x8, addend: 0x0, symName: __ZN15llm_build_jambaC2ERK11llama_modelRK16llm_graph_params, symObjAddr: 0x48370, symBinAddr: 0xA79E4, symSize: 0x510 }
  - { offsetInCU: 0xD7C83, offset: 0x46DE55, size: 0x8, addend: 0x0, symName: __ZN19llm_build_falcon_h1C2ERK11llama_modelRK16llm_graph_params, symObjAddr: 0x5A8EC, symBinAddr: 0xB9F60, symSize: 0x5AC }
  - { offsetInCU: 0xD8118, offset: 0x46E2EA, size: 0x8, addend: 0x0, symName: __ZN16llm_build_xverseC2ERK11llama_modelRK16llm_graph_params, symObjAddr: 0x48888, symBinAddr: 0xA7EFC, symSize: 0x53C }
  - { offsetInCU: 0xD8485, offset: 0x46E657, size: 0x8, addend: 0x0, symName: __ZN16llm_build_xverseD1Ev, symObjAddr: 0x48DC4, symBinAddr: 0xA8438, symSize: 0x4 }
  - { offsetInCU: 0xD8497, offset: 0x46E669, size: 0x8, addend: 0x0, symName: __ZN19llm_build_command_rC2ERK11llama_modelRK16llm_graph_params, symObjAddr: 0x48DCC, symBinAddr: 0xA8440, symSize: 0x640 }
  - { offsetInCU: 0xD88E2, offset: 0x46EAB4, size: 0x8, addend: 0x0, symName: __ZN19llm_build_command_rD1Ev, symObjAddr: 0x4940C, symBinAddr: 0xA8A80, symSize: 0x4 }
  - { offsetInCU: 0xD88F4, offset: 0x46EAC6, size: 0x8, addend: 0x0, symName: __ZN22llm_build_cohere2_iswaC2ERK11llama_modelRK16llm_graph_params, symObjAddr: 0x49414, symBinAddr: 0xA8A88, symSize: 0x62C }
  - { offsetInCU: 0xD8D3C, offset: 0x46EF0E, size: 0x8, addend: 0x0, symName: __ZN22llm_build_cohere2_iswaD1Ev, symObjAddr: 0x49A40, symBinAddr: 0xA90B4, symSize: 0x4 }
  - { offsetInCU: 0xD8D4E, offset: 0x46EF20, size: 0x8, addend: 0x0, symName: __ZN15llm_build_olmo2C2ERK11llama_modelRK16llm_graph_params, symObjAddr: 0x4A5D4, symBinAddr: 0xA9C48, symSize: 0x5CC }
  - { offsetInCU: 0xD9109, offset: 0x46F2DB, size: 0x8, addend: 0x0, symName: __ZN15llm_build_olmo2D1Ev, symObjAddr: 0x4ABA0, symBinAddr: 0xAA214, symSize: 0x4 }
  - { offsetInCU: 0xD911B, offset: 0x46F2ED, size: 0x8, addend: 0x0, symName: __ZN15llm_build_olmoeC2ERK11llama_modelRK16llm_graph_params, symObjAddr: 0x4ABA8, symBinAddr: 0xAA21C, symSize: 0x5C4 }
  - { offsetInCU: 0xD94D6, offset: 0x46F6A8, size: 0x8, addend: 0x0, symName: __ZN15llm_build_olmoeD1Ev, symObjAddr: 0x4B16C, symBinAddr: 0xAA7E0, symSize: 0x4 }
  - { offsetInCU: 0xD94E8, offset: 0x46F6BA, size: 0x8, addend: 0x0, symName: __ZN17llm_build_openelmC2ERK11llama_modelRK16llm_graph_params, symObjAddr: 0x4B174, symBinAddr: 0xAA7E8, symSize: 0x5F0 }
  - { offsetInCU: 0xD98C1, offset: 0x46FA93, size: 0x8, addend: 0x0, symName: __ZN17llm_build_openelmD1Ev, symObjAddr: 0x4B764, symBinAddr: 0xAADD8, symSize: 0x4 }
  - { offsetInCU: 0xD98D3, offset: 0x46FAA5, size: 0x8, addend: 0x0, symName: __ZN16llm_build_arcticC2ERK11llama_modelRK16llm_graph_params, symObjAddr: 0x4BD88, symBinAddr: 0xAB3FC, symSize: 0x618 }
  - { offsetInCU: 0xD9CB9, offset: 0x46FE8B, size: 0x8, addend: 0x0, symName: __ZN16llm_build_arcticD1Ev, symObjAddr: 0x4C3A0, symBinAddr: 0xABA14, symSize: 0x4 }
  - { offsetInCU: 0xD9CCB, offset: 0x46FE9D, size: 0x8, addend: 0x0, symName: __ZN18llm_build_deepseekC2ERK11llama_modelRK16llm_graph_params, symObjAddr: 0x4C3A8, symBinAddr: 0xABA1C, symSize: 0x71C }
  - { offsetInCU: 0xDA179, offset: 0x47034B, size: 0x8, addend: 0x0, symName: __ZN18llm_build_deepseekD1Ev, symObjAddr: 0x4CAC4, symBinAddr: 0xAC138, symSize: 0x4 }
  - { offsetInCU: 0xDA18B, offset: 0x47035D, size: 0x8, addend: 0x0, symName: __ZN19llm_build_deepseek2C2ERK11llama_modelRK16llm_graph_params, symObjAddr: 0x4CACC, symBinAddr: 0xAC140, symSize: 0xBE4 }
  - { offsetInCU: 0xDAAE2, offset: 0x470CB4, size: 0x8, addend: 0x0, symName: __ZN17llm_build_chatglmC2ERK11llama_modelRK16llm_graph_params, symObjAddr: 0x4D6B8, symBinAddr: 0xACD2C, symSize: 0x628 }
  - { offsetInCU: 0xDAF8F, offset: 0x471161, size: 0x8, addend: 0x0, symName: __ZN17llm_build_chatglmD1Ev, symObjAddr: 0x4DCE0, symBinAddr: 0xAD354, symSize: 0x4 }
  - { offsetInCU: 0xDAFA1, offset: 0x471173, size: 0x8, addend: 0x0, symName: __ZN14llm_build_glm4C2ERK11llama_modelRK16llm_graph_params, symObjAddr: 0x4DCE8, symBinAddr: 0xAD35C, symSize: 0x6AC }
  - { offsetInCU: 0xDB49C, offset: 0x47166E, size: 0x8, addend: 0x0, symName: __ZN14llm_build_glm4D1Ev, symObjAddr: 0x4E394, symBinAddr: 0xADA08, symSize: 0x4 }
  - { offsetInCU: 0xDB4AE, offset: 0x471680, size: 0x8, addend: 0x0, symName: __ZN16llm_build_bitnetC2ERK11llama_modelRK16llm_graph_params, symObjAddr: 0x4EA8C, symBinAddr: 0xAE100, symSize: 0x774 }
  - { offsetInCU: 0xDBA58, offset: 0x471C2A, size: 0x8, addend: 0x0, symName: __ZN16llm_build_bitnetD1Ev, symObjAddr: 0x4F200, symBinAddr: 0xAE874, symSize: 0x4 }
  - { offsetInCU: 0xDBA6A, offset: 0x471C3C, size: 0x8, addend: 0x0, symName: __ZN16llm_build_t5_encC2ERK11llama_modelRK16llm_graph_params, symObjAddr: 0x4F208, symBinAddr: 0xAE87C, symSize: 0x47C }
  - { offsetInCU: 0xDBDCD, offset: 0x471F9F, size: 0x8, addend: 0x0, symName: __ZN16llm_build_t5_encD1Ev, symObjAddr: 0x4F684, symBinAddr: 0xAECF8, symSize: 0x4 }
  - { offsetInCU: 0xDBDDF, offset: 0x471FB1, size: 0x8, addend: 0x0, symName: __ZN14llm_build_jaisC2ERK11llama_modelRK16llm_graph_params, symObjAddr: 0x4FD38, symBinAddr: 0xAF3AC, symSize: 0x508 }
  - { offsetInCU: 0xDC170, offset: 0x472342, size: 0x8, addend: 0x0, symName: __ZN14llm_build_jaisD1Ev, symObjAddr: 0x50240, symBinAddr: 0xAF8B4, symSize: 0x4 }
  - { offsetInCU: 0xDC182, offset: 0x472354, size: 0x8, addend: 0x0, symName: __ZN18llm_build_nemotronC2ERK11llama_modelRK16llm_graph_params, symObjAddr: 0x50248, symBinAddr: 0xAF8BC, symSize: 0x5CC }
  - { offsetInCU: 0xDC561, offset: 0x472733, size: 0x8, addend: 0x0, symName: __ZN18llm_build_nemotronD1Ev, symObjAddr: 0x50814, symBinAddr: 0xAFE88, symSize: 0x4 }
  - { offsetInCU: 0xDC573, offset: 0x472745, size: 0x8, addend: 0x0, symName: __ZN17llm_build_exaone4ILb1EEC2ERK11llama_modelRK16llm_graph_params, symObjAddr: 0x50E98, symBinAddr: 0xB050C, symSize: 0x66C }
  - { offsetInCU: 0xDC984, offset: 0x472B56, size: 0x8, addend: 0x0, symName: __ZN17llm_build_exaone4ILb1EED1Ev, symObjAddr: 0x51504, symBinAddr: 0xB0B78, symSize: 0x4 }
  - { offsetInCU: 0xDC9A2, offset: 0x472B74, size: 0x8, addend: 0x0, symName: __ZN15llm_build_rwkv7C2ERK11llama_modelRK16llm_graph_params, symObjAddr: 0x53110, symBinAddr: 0xB2784, symSize: 0x5C0 }
  - { offsetInCU: 0xDCF62, offset: 0x473134, size: 0x8, addend: 0x0, symName: __ZNK20llm_build_rwkv7_base20build_rwkv7_time_mixEP18llm_graph_input_rsP11ggml_tensorS3_RS3_RK12llama_ubatchi, symObjAddr: 0x536D0, symBinAddr: 0xB2D44, symSize: 0x8C0 }
  - { offsetInCU: 0xDCF74, offset: 0x473146, size: 0x8, addend: 0x0, symName: __ZN24llm_build_granite_hybridC2ERK11llama_modelRK16llm_graph_params, symObjAddr: 0x54D48, symBinAddr: 0xB43BC, symSize: 0x2CC }
  - { offsetInCU: 0xDD20C, offset: 0x4733DE, size: 0x8, addend: 0x0, symName: __ZN24llm_build_granite_hybrid21build_attention_layerEP11ggml_tensorS1_P31llm_graph_input_attn_kv_unifiedRK11llama_modelxi, symObjAddr: 0x55014, symBinAddr: 0xB4688, symSize: 0x39C }
  - { offsetInCU: 0xDD21E, offset: 0x4733F0, size: 0x8, addend: 0x0, symName: __ZN26llm_build_wavtokenizer_decC2ERK11llama_modelRK16llm_graph_params, symObjAddr: 0x55EAC, symBinAddr: 0xB5520, symSize: 0x57C }
  - { offsetInCU: 0xDD71B, offset: 0x4738ED, size: 0x8, addend: 0x0, symName: __ZN26llm_build_wavtokenizer_decD1Ev, symObjAddr: 0x56428, symBinAddr: 0xB5A9C, symSize: 0x4 }
  - { offsetInCU: 0xDD72D, offset: 0x4738FF, size: 0x8, addend: 0x0, symName: __ZN13llm_build_plmC2ERK11llama_modelRK16llm_graph_params, symObjAddr: 0x56430, symBinAddr: 0xB5AA4, symSize: 0x888 }
  - { offsetInCU: 0xDDDF3, offset: 0x473FC5, size: 0x8, addend: 0x0, symName: __ZN20llm_build_bailingmoeC2ERK11llama_modelRK16llm_graph_params, symObjAddr: 0x56CC0, symBinAddr: 0xB6334, symSize: 0x658 }
  - { offsetInCU: 0xDE272, offset: 0x474444, size: 0x8, addend: 0x0, symName: __ZN15llm_build_arceeC2ERK11llama_modelRK16llm_graph_params, symObjAddr: 0x579D0, symBinAddr: 0xB7044, symSize: 0x698 }
  - { offsetInCU: 0xDE6C3, offset: 0x474895, size: 0x8, addend: 0x0, symName: __ZN15llm_build_arceeD1Ev, symObjAddr: 0x58068, symBinAddr: 0xB76DC, symSize: 0x4 }
  - { offsetInCU: 0xDE6D6, offset: 0x4748A8, size: 0x8, addend: 0x0, symName: __ZN18llm_build_ernie4_5C2ERK11llama_modelRK16llm_graph_params, symObjAddr: 0x58070, symBinAddr: 0xB76E4, symSize: 0x5DC }
  - { offsetInCU: 0xDEADF, offset: 0x474CB1, size: 0x8, addend: 0x0, symName: __ZN18llm_build_ernie4_5D1Ev, symObjAddr: 0x5864C, symBinAddr: 0xB7CC0, symSize: 0x4 }
  - { offsetInCU: 0xDEAF1, offset: 0x474CC3, size: 0x8, addend: 0x0, symName: __ZN22llm_build_ernie4_5_moeC2ERK11llama_modelRK16llm_graph_params, symObjAddr: 0x58654, symBinAddr: 0xB7CC8, symSize: 0x7A0 }
  - { offsetInCU: 0xDEFE7, offset: 0x4751B9, size: 0x8, addend: 0x0, symName: __ZN22llm_build_ernie4_5_moeD1Ev, symObjAddr: 0x58DF4, symBinAddr: 0xB8468, symSize: 0x4 }
  - { offsetInCU: 0xDEFFA, offset: 0x4751CC, size: 0x8, addend: 0x0, symName: __ZN21llm_build_hunyuan_moeC2ERK11llama_modelRK16llm_graph_params, symObjAddr: 0x58DFC, symBinAddr: 0xB8470, symSize: 0x774 }
  - { offsetInCU: 0xDF544, offset: 0x475716, size: 0x8, addend: 0x0, symName: __ZN21llm_build_hunyuan_moeD1Ev, symObjAddr: 0x59570, symBinAddr: 0xB8BE4, symSize: 0x4 }
  - { offsetInCU: 0xDF557, offset: 0x475729, size: 0x8, addend: 0x0, symName: __ZN17llm_build_smollm3C2ERK11llama_modelRK16llm_graph_params, symObjAddr: 0x59C8C, symBinAddr: 0xB9300, symSize: 0x668 }
  - { offsetInCU: 0xDF966, offset: 0x475B38, size: 0x8, addend: 0x0, symName: __ZN17llm_build_smollm3D1Ev, symObjAddr: 0x5A2F4, symBinAddr: 0xB9968, symSize: 0x4 }
  - { offsetInCU: 0xDF979, offset: 0x475B4B, size: 0x8, addend: 0x0, symName: __ZN25llm_build_openai_moe_iswaC2ERK11llama_modelRK16llm_graph_params, symObjAddr: 0x5A2FC, symBinAddr: 0xB9970, symSize: 0x5E8 }
  - { offsetInCU: 0xDFD50, offset: 0x475F22, size: 0x8, addend: 0x0, symName: __ZN14llm_build_lfm2C2ERK11llama_modelRK16llm_graph_params, symObjAddr: 0x5AEA0, symBinAddr: 0xBA514, symSize: 0x26C }
  - { offsetInCU: 0xDFFA1, offset: 0x476173, size: 0x8, addend: 0x0, symName: __ZN15llm_build_dreamC2ERK11llama_modelRK16llm_graph_params, symObjAddr: 0x3CAB0, symBinAddr: 0x9C218, symSize: 0x584 }
  - { offsetInCU: 0xE03AD, offset: 0x47657F, size: 0x8, addend: 0x0, symName: __ZN15llm_build_dreamD1Ev, symObjAddr: 0x3D034, symBinAddr: 0x9C79C, symSize: 0x4 }
  - { offsetInCU: 0xE03BF, offset: 0x476591, size: 0x8, addend: 0x0, symName: __ZN22llm_build_smallthinkerILb1EEC2ERK11llama_modelRK16llm_graph_params, symObjAddr: 0x5BAD0, symBinAddr: 0xBB144, symSize: 0x59C }
  - { offsetInCU: 0xE0790, offset: 0x476962, size: 0x8, addend: 0x0, symName: __ZN22llm_build_smallthinkerILb1EED1Ev, symObjAddr: 0x5C06C, symBinAddr: 0xBB6E0, symSize: 0x4 }
  - { offsetInCU: 0xE07AF, offset: 0x476981, size: 0x8, addend: 0x0, symName: __ZN15llm_build_lladaC2ERK11llama_modelRK16llm_graph_params, symObjAddr: 0x3D03C, symBinAddr: 0x9C7A4, symSize: 0x53C }
  - { offsetInCU: 0xE0B1C, offset: 0x476CEE, size: 0x8, addend: 0x0, symName: __ZN15llm_build_lladaD1Ev, symObjAddr: 0x3D578, symBinAddr: 0x9CCE0, symSize: 0x4 }
  - { offsetInCU: 0xE0B2E, offset: 0x476D00, size: 0x8, addend: 0x0, symName: __ZN14llm_build_phi3ILb0EEC2ERK11llama_modelRK16llm_graph_params, symObjAddr: 0x3FC28, symBinAddr: 0x9F390, symSize: 0x77C }
  - { offsetInCU: 0xE1033, offset: 0x477205, size: 0x8, addend: 0x0, symName: __ZN14llm_build_phi3ILb0EED1Ev, symObjAddr: 0x403A4, symBinAddr: 0x9FB0C, symSize: 0x4 }
  - { offsetInCU: 0xE1051, offset: 0x477223, size: 0x8, addend: 0x0, symName: __ZN17llm_build_exaone4ILb0EEC2ERK11llama_modelRK16llm_graph_params, symObjAddr: 0x5150C, symBinAddr: 0xB0B80, symSize: 0x66C }
  - { offsetInCU: 0xE1462, offset: 0x477634, size: 0x8, addend: 0x0, symName: __ZN17llm_build_exaone4ILb0EED1Ev, symObjAddr: 0x51B78, symBinAddr: 0xB11EC, symSize: 0x4 }
  - { offsetInCU: 0xE1480, offset: 0x477652, size: 0x8, addend: 0x0, symName: __ZN22llm_build_smallthinkerILb0EEC2ERK11llama_modelRK16llm_graph_params, symObjAddr: 0x5C074, symBinAddr: 0xBB6E8, symSize: 0x59C }
  - { offsetInCU: 0xE1851, offset: 0x477A23, size: 0x8, addend: 0x0, symName: __ZN22llm_build_smallthinkerILb0EED1Ev, symObjAddr: 0x5C610, symBinAddr: 0xBBC84, symSize: 0x4 }
  - { offsetInCU: 0xE1870, offset: 0x477A42, size: 0x8, addend: 0x0, symName: _llama_model_default_params, symObjAddr: 0x26CDC, symBinAddr: 0x8F77C, symSize: 0x2C }
  - { offsetInCU: 0xE189C, offset: 0x477A6E, size: 0x8, addend: 0x0, symName: _llama_model_get_vocab, symObjAddr: 0x26D08, symBinAddr: 0x8F7A8, symSize: 0xC }
  - { offsetInCU: 0xE18FC, offset: 0x477ACE, size: 0x8, addend: 0x0, symName: _llama_free_model, symObjAddr: 0x26D14, symBinAddr: 0x8F7B4, symSize: 0x1C }
  - { offsetInCU: 0xE1925, offset: 0x477AF7, size: 0x8, addend: 0x0, symName: _llama_free_model, symObjAddr: 0x26D14, symBinAddr: 0x8F7B4, symSize: 0x1C }
  - { offsetInCU: 0xE196B, offset: 0x477B3D, size: 0x8, addend: 0x0, symName: _llama_model_free, symObjAddr: 0x26D30, symBinAddr: 0x8F7D0, symSize: 0x1C }
  - { offsetInCU: 0xE19B2, offset: 0x477B84, size: 0x8, addend: 0x0, symName: _llama_model_n_ctx_train, symObjAddr: 0x26D4C, symBinAddr: 0x8F7EC, symSize: 0x8 }
  - { offsetInCU: 0xE19CF, offset: 0x477BA1, size: 0x8, addend: 0x0, symName: _llama_model_n_embd, symObjAddr: 0x26D54, symBinAddr: 0x8F7F4, symSize: 0x8 }
  - { offsetInCU: 0xE19EC, offset: 0x477BBE, size: 0x8, addend: 0x0, symName: _llama_model_n_layer, symObjAddr: 0x26D5C, symBinAddr: 0x8F7FC, symSize: 0x8 }
  - { offsetInCU: 0xE1A09, offset: 0x477BDB, size: 0x8, addend: 0x0, symName: _llama_model_n_head, symObjAddr: 0x26D64, symBinAddr: 0x8F804, symSize: 0xC }
  - { offsetInCU: 0xE1A26, offset: 0x477BF8, size: 0x8, addend: 0x0, symName: _llama_model_n_head_kv, symObjAddr: 0x26D70, symBinAddr: 0x8F810, symSize: 0xC }
  - { offsetInCU: 0xE1A52, offset: 0x477C24, size: 0x8, addend: 0x0, symName: _llama_model_n_swa, symObjAddr: 0x26D7C, symBinAddr: 0x8F81C, symSize: 0x8 }
  - { offsetInCU: 0xE1A7E, offset: 0x477C50, size: 0x8, addend: 0x0, symName: _llama_model_n_cls_out, symObjAddr: 0x26D84, symBinAddr: 0x8F824, symSize: 0x8 }
  - { offsetInCU: 0xE1ACE, offset: 0x477CA0, size: 0x8, addend: 0x0, symName: _llama_model_cls_label, symObjAddr: 0x26D8C, symBinAddr: 0x8F82C, symSize: 0x4C }
  - { offsetInCU: 0xE1BE0, offset: 0x477DB2, size: 0x8, addend: 0x0, symName: _llama_n_ctx_train, symObjAddr: 0x26DD8, symBinAddr: 0x8F878, symSize: 0x8 }
  - { offsetInCU: 0xE1C0E, offset: 0x477DE0, size: 0x8, addend: 0x0, symName: _llama_n_ctx_train, symObjAddr: 0x26DD8, symBinAddr: 0x8F878, symSize: 0x8 }
  - { offsetInCU: 0xE1C44, offset: 0x477E16, size: 0x8, addend: 0x0, symName: _llama_n_embd, symObjAddr: 0x26DE0, symBinAddr: 0x8F880, symSize: 0x8 }
  - { offsetInCU: 0xE1C72, offset: 0x477E44, size: 0x8, addend: 0x0, symName: _llama_n_embd, symObjAddr: 0x26DE0, symBinAddr: 0x8F880, symSize: 0x8 }
  - { offsetInCU: 0xE1CA8, offset: 0x477E7A, size: 0x8, addend: 0x0, symName: _llama_n_layer, symObjAddr: 0x26DE8, symBinAddr: 0x8F888, symSize: 0x8 }
  - { offsetInCU: 0xE1CD6, offset: 0x477EA8, size: 0x8, addend: 0x0, symName: _llama_n_layer, symObjAddr: 0x26DE8, symBinAddr: 0x8F888, symSize: 0x8 }
  - { offsetInCU: 0xE1D0C, offset: 0x477EDE, size: 0x8, addend: 0x0, symName: _llama_n_head, symObjAddr: 0x26DF0, symBinAddr: 0x8F890, symSize: 0xC }
  - { offsetInCU: 0xE1D3A, offset: 0x477F0C, size: 0x8, addend: 0x0, symName: _llama_n_head, symObjAddr: 0x26DF0, symBinAddr: 0x8F890, symSize: 0xC }
  - { offsetInCU: 0xE1D57, offset: 0x477F29, size: 0x8, addend: 0x0, symName: _llama_model_rope_freq_scale_train, symObjAddr: 0x26DFC, symBinAddr: 0x8F89C, symSize: 0x8 }
  - { offsetInCU: 0xE1DA9, offset: 0x477F7B, size: 0x8, addend: 0x0, symName: _llama_model_meta_val_str, symObjAddr: 0x26E04, symBinAddr: 0x8F8A4, symSize: 0x140 }
  - { offsetInCU: 0xE24AB, offset: 0x47867D, size: 0x8, addend: 0x0, symName: __ZNKSt3__112__hash_tableINS_17__hash_value_typeINS_12basic_stringIcNS_11char_traitsIcEENS_9allocatorIcEEEES7_EENS_22__unordered_map_hasherIS7_S8_NS_4hashIS7_EENS_8equal_toIS7_EELb1EEENS_21__unordered_map_equalIS7_S8_SD_SB_Lb1EEENS5_IS8_EEE4findIS7_EENS_21__hash_const_iteratorIPNS_11__hash_nodeIS8_PvEEEERKT_, symObjAddr: 0x5C618, symBinAddr: 0xBBC8C, symSize: 0x23C }
  - { offsetInCU: 0xE2761, offset: 0x478933, size: 0x8, addend: 0x0, symName: _llama_model_meta_count, symObjAddr: 0x26F44, symBinAddr: 0x8F9E4, symSize: 0x8 }
  - { offsetInCU: 0xE278F, offset: 0x478961, size: 0x8, addend: 0x0, symName: _llama_model_meta_count, symObjAddr: 0x26F44, symBinAddr: 0x8F9E4, symSize: 0x8 }
  - { offsetInCU: 0xE27AE, offset: 0x478980, size: 0x8, addend: 0x0, symName: _llama_model_meta_count, symObjAddr: 0x26F44, symBinAddr: 0x8F9E4, symSize: 0x8 }
  - { offsetInCU: 0xE2867, offset: 0x478A39, size: 0x8, addend: 0x0, symName: _llama_model_meta_key_by_index, symObjAddr: 0x26F4C, symBinAddr: 0x8F9EC, symSize: 0x8C }
  - { offsetInCU: 0xE2A78, offset: 0x478C4A, size: 0x8, addend: 0x0, symName: _llama_model_meta_val_str_by_index, symObjAddr: 0x26FD8, symBinAddr: 0x8FA78, symSize: 0x8C }
  - { offsetInCU: 0xE2C77, offset: 0x478E49, size: 0x8, addend: 0x0, symName: _llama_model_desc, symObjAddr: 0x27064, symBinAddr: 0x8FB04, symSize: 0xF0 }
  - { offsetInCU: 0xE3229, offset: 0x4793FB, size: 0x8, addend: 0x0, symName: _llama_model_size, symObjAddr: 0x27154, symBinAddr: 0x8FBF4, symSize: 0xC }
  - { offsetInCU: 0xE3253, offset: 0x479425, size: 0x8, addend: 0x0, symName: _llama_model_size, symObjAddr: 0x27154, symBinAddr: 0x8FBF4, symSize: 0xC }
  - { offsetInCU: 0xE3281, offset: 0x479453, size: 0x8, addend: 0x0, symName: _llama_model_size, symObjAddr: 0x27154, symBinAddr: 0x8FBF4, symSize: 0xC }
  - { offsetInCU: 0xE329D, offset: 0x47946F, size: 0x8, addend: 0x0, symName: _llama_model_size, symObjAddr: 0x27154, symBinAddr: 0x8FBF4, symSize: 0xC }
  - { offsetInCU: 0xE32BC, offset: 0x47948E, size: 0x8, addend: 0x0, symName: _llama_model_chat_template, symObjAddr: 0x27160, symBinAddr: 0x8FC00, symSize: 0x12C }
  - { offsetInCU: 0xE365A, offset: 0x47982C, size: 0x8, addend: 0x0, symName: _llama_model_n_params, symObjAddr: 0x2728C, symBinAddr: 0x8FD2C, symSize: 0xC }
  - { offsetInCU: 0xE3688, offset: 0x47985A, size: 0x8, addend: 0x0, symName: _llama_model_n_params, symObjAddr: 0x2728C, symBinAddr: 0x8FD2C, symSize: 0xC }
  - { offsetInCU: 0xE36A4, offset: 0x479876, size: 0x8, addend: 0x0, symName: _llama_model_n_params, symObjAddr: 0x2728C, symBinAddr: 0x8FD2C, symSize: 0xC }
  - { offsetInCU: 0xE36C3, offset: 0x479895, size: 0x8, addend: 0x0, symName: _llama_model_has_encoder, symObjAddr: 0x27298, symBinAddr: 0x8FD38, symSize: 0x14 }
  - { offsetInCU: 0xE36EF, offset: 0x4798C1, size: 0x8, addend: 0x0, symName: _llama_model_has_decoder, symObjAddr: 0x272AC, symBinAddr: 0x8FD4C, symSize: 0x10 }
  - { offsetInCU: 0xE371B, offset: 0x4798ED, size: 0x8, addend: 0x0, symName: _llama_model_decoder_start_token, symObjAddr: 0x272BC, symBinAddr: 0x8FD5C, symSize: 0x8 }
  - { offsetInCU: 0xE3747, offset: 0x479919, size: 0x8, addend: 0x0, symName: _llama_model_is_recurrent, symObjAddr: 0x272C4, symBinAddr: 0x8FD64, symSize: 0x8 }
  - { offsetInCU: 0xE3781, offset: 0x479953, size: 0x8, addend: 0x0, symName: _llama_model_is_diffusion, symObjAddr: 0x272CC, symBinAddr: 0x8FD6C, symSize: 0x8 }
  - { offsetInCU: 0xE37D1, offset: 0x4799A3, size: 0x8, addend: 0x0, symName: __Z29llama_internal_get_tensor_mapPK11llama_model, symObjAddr: 0x272D4, symBinAddr: 0x8FD74, symSize: 0xC }
  - { offsetInCU: 0xE4413, offset: 0x47A5E5, size: 0x8, addend: 0x0, symName: __ZNSt3__111basic_regexIcNS_12regex_traitsIcEEE13__parse_egrepIPKcEET_S7_S7_, symObjAddr: 0x28570, symBinAddr: 0x90DE0, symSize: 0x1B8 }
  - { offsetInCU: 0xE4928, offset: 0x47AAFA, size: 0x8, addend: 0x0, symName: __ZNSt3__111basic_regexIcNS_12regex_traitsIcEEE24__parse_extended_reg_expIPKcEET_S7_S7_, symObjAddr: 0x2824C, symBinAddr: 0x90ABC, symSize: 0x16C }
  - { offsetInCU: 0xE4C4D, offset: 0x47AE1F, size: 0x8, addend: 0x0, symName: __ZNSt3__111basic_regexIcNS_12regex_traitsIcEEE12__parse_grepIPKcEET_S7_S7_, symObjAddr: 0x283B8, symBinAddr: 0x90C28, symSize: 0x1B8 }
  - { offsetInCU: 0xE4C61, offset: 0x47AE33, size: 0x8, addend: 0x0, symName: __ZNSt3__111basic_regexIcNS_12regex_traitsIcEEE19__parse_alternativeIPKcEET_S7_S7_, symObjAddr: 0x2895C, symBinAddr: 0x90F98, symSize: 0xA0 }
  - { offsetInCU: 0xE4D5F, offset: 0x47AF31, size: 0x8, addend: 0x0, symName: __ZNSt3__111basic_regexIcNS_12regex_traitsIcEEE21__parse_basic_reg_expIPKcEET_S7_S7_, symObjAddr: 0x280D4, symBinAddr: 0x90944, symSize: 0x178 }
  - { offsetInCU: 0xE50C0, offset: 0x47B292, size: 0x8, addend: 0x0, symName: __ZNSt3__111basic_regexIcNS_12regex_traitsIcEEE24__parse_extended_reg_expIPKcEET_S7_S7_, symObjAddr: 0x2824C, symBinAddr: 0x90ABC, symSize: 0x16C }
  - { offsetInCU: 0xE50D4, offset: 0x47B2A6, size: 0x8, addend: 0x0, symName: __ZNSt3__111basic_regexIcNS_12regex_traitsIcEEE12__parse_grepIPKcEET_S7_S7_, symObjAddr: 0x283B8, symBinAddr: 0x90C28, symSize: 0x1B8 }
  - { offsetInCU: 0xE5630, offset: 0x47B802, size: 0x8, addend: 0x0, symName: __ZNSt3__111basic_regexIcNS_12regex_traitsIcEEE16__parse_ecma_expIPKcEET_S7_S7_, symObjAddr: 0x27F34, symBinAddr: 0x907A4, symSize: 0x1A0 }
  - { offsetInCU: 0xE5A4A, offset: 0x47BC1C, size: 0x8, addend: 0x0, symName: __ZNSt3__111basic_regexIcNS_12regex_traitsIcEEE12__parse_termIPKcEET_S7_S7_, symObjAddr: 0x289FC, symBinAddr: 0x91038, symSize: 0x94 }
  - { offsetInCU: 0xE5CFD, offset: 0x47BECF, size: 0x8, addend: 0x0, symName: __ZNSt3__111basic_regexIcNS_12regex_traitsIcEEE18__parse_nondupl_REIPKcEET_S7_S7_, symObjAddr: 0x3048C, symBinAddr: 0x93350, symSize: 0x230 }
  - { offsetInCU: 0xE6218, offset: 0x47C3EA, size: 0x8, addend: 0x0, symName: __ZNSt3__111basic_regexIcNS_12regex_traitsIcEEE22__parse_RE_dupl_symbolIPKcEET_S7_S7_PNS_16__owns_one_stateIcEEjj, symObjAddr: 0x306BC, symBinAddr: 0x93580, symSize: 0x284 }
  - { offsetInCU: 0xE622C, offset: 0x47C3FE, size: 0x8, addend: 0x0, symName: __ZNSt3__111basic_regexIcNS_12regex_traitsIcEEE22__parse_RE_dupl_symbolIPKcEET_S7_S7_PNS_16__owns_one_stateIcEEjj, symObjAddr: 0x306BC, symBinAddr: 0x93580, symSize: 0x284 }
  - { offsetInCU: 0xE679E, offset: 0x47C970, size: 0x8, addend: 0x0, symName: __ZNSt3__111basic_regexIcNS_12regex_traitsIcEEE32__parse_one_char_or_coll_elem_REIPKcEET_S7_S7_, symObjAddr: 0x30940, symBinAddr: 0x93804, symSize: 0x140 }
  - { offsetInCU: 0xE67F7, offset: 0x47C9C9, size: 0x8, addend: 0x0, symName: __ZNSt3__111basic_regexIcNS_12regex_traitsIcEEE22__parse_ERE_expressionIPKcEET_S7_S7_, symObjAddr: 0x30BA8, symBinAddr: 0x93944, symSize: 0x284 }
  - { offsetInCU: 0xE6CA1, offset: 0x47CE73, size: 0x8, addend: 0x0, symName: __ZNSt3__111basic_regexIcNS_12regex_traitsIcEEE20__parse_ORD_CHAR_EREIPKcEET_S7_S7_, symObjAddr: 0x30E2C, symBinAddr: 0x93BC8, symSize: 0x78 }
  - { offsetInCU: 0xE6D73, offset: 0x47CF45, size: 0x8, addend: 0x0, symName: __ZNSt3__111basic_regexIcNS_12regex_traitsIcEEE23__parse_ERE_dupl_symbolIPKcEET_S7_S7_PNS_16__owns_one_stateIcEEjj, symObjAddr: 0x28FE0, symBinAddr: 0x9161C, symSize: 0x3F4 }
  - { offsetInCU: 0xE72F4, offset: 0x47D4C6, size: 0x8, addend: 0x0, symName: __ZNSt3__111basic_regexIcNS_12regex_traitsIcEEE17__parse_assertionIPKcEET_S7_S7_, symObjAddr: 0x28A90, symBinAddr: 0x910CC, symSize: 0x304 }
  - { offsetInCU: 0xE78E0, offset: 0x47DAB2, size: 0x8, addend: 0x0, symName: __ZNSt3__111basic_regexIcNS_12regex_traitsIcEEE12__parse_atomIPKcEET_S7_S7_, symObjAddr: 0x28D94, symBinAddr: 0x913D0, symSize: 0x24C }
  - { offsetInCU: 0xE7C9C, offset: 0x47DE6E, size: 0x8, addend: 0x0, symName: __ZNSt3__111basic_regexIcNS_12regex_traitsIcEEE23__parse_ERE_dupl_symbolIPKcEET_S7_S7_PNS_16__owns_one_stateIcEEjj, symObjAddr: 0x28FE0, symBinAddr: 0x9161C, symSize: 0x3F4 }
  - { offsetInCU: 0xE813D, offset: 0x47E30F, size: 0x8, addend: 0x0, symName: __ZNSt3__111basic_regexIcNS_12regex_traitsIcEEE26__parse_bracket_expressionIPKcEET_S7_S7_, symObjAddr: 0x2AAD0, symBinAddr: 0x91B74, symSize: 0x150 }
  - { offsetInCU: 0xE8315, offset: 0x47E4E7, size: 0x8, addend: 0x0, symName: __ZNSt3__111basic_regexIcNS_12regex_traitsIcEEE19__parse_atom_escapeIPKcEET_S7_S7_, symObjAddr: 0x2A96C, symBinAddr: 0x91A10, symSize: 0x164 }
  - { offsetInCU: 0xE84C0, offset: 0x47E692, size: 0x8, addend: 0x0, symName: __ZNSt3__111basic_regexIcNS_12regex_traitsIcEEE26__parse_bracket_expressionIPKcEET_S7_S7_, symObjAddr: 0x2AAD0, symBinAddr: 0x91B74, symSize: 0x150 }
  - { offsetInCU: 0xE84D4, offset: 0x47E6A6, size: 0x8, addend: 0x0, symName: __ZNSt3__111basic_regexIcNS_12regex_traitsIcEEE25__parse_pattern_characterIPKcEET_S7_S7_, symObjAddr: 0x2AC6C, symBinAddr: 0x91CC4, symSize: 0x70 }
  - { offsetInCU: 0xEC7FB, offset: 0x4829CD, size: 0x8, addend: 0x0, symName: __ZNSt3__111basic_regexIcNS_12regex_traitsIcEEE30__parse_character_class_escapeIPKcEET_S7_S7_, symObjAddr: 0x2ADB0, symBinAddr: 0x91D34, symSize: 0x1F8 }
  - { offsetInCU: 0xECC41, offset: 0x482E13, size: 0x8, addend: 0x0, symName: __ZNSt3__111basic_regexIcNS_12regex_traitsIcEEE24__parse_character_escapeIPKcEET_S7_S7_PNS_12basic_stringIcNS_11char_traitsIcEENS_9allocatorIcEEEE, symObjAddr: 0x2AFA8, symBinAddr: 0x91F2C, symSize: 0x3B0 }
  - { offsetInCU: 0xEDB85, offset: 0x483D57, size: 0x8, addend: 0x0, symName: __ZNSt3__111basic_regexIcNS_12regex_traitsIcEEE23__parse_expression_termIPKcEET_S7_S7_PNS_20__bracket_expressionIcS2_EE, symObjAddr: 0x2D518, symBinAddr: 0x922DC, symSize: 0x538 }
  - { offsetInCU: 0xF0116, offset: 0x4862E8, size: 0x8, addend: 0x0, symName: __ZNSt3__111basic_regexIcNS_12regex_traitsIcEEE25__parse_equivalence_classIPKcEET_S7_S7_PNS_20__bracket_expressionIcS2_EE, symObjAddr: 0x2DA50, symBinAddr: 0x92814, symSize: 0x2A0 }
  - { offsetInCU: 0xF0F37, offset: 0x487109, size: 0x8, addend: 0x0, symName: __ZNSt3__111basic_regexIcNS_12regex_traitsIcEEE18__parse_awk_escapeIPKcEET_S7_S7_PNS_12basic_stringIcNS_11char_traitsIcEENS_9allocatorIcEEEE, symObjAddr: 0x2DF30, symBinAddr: 0x92CF4, symSize: 0x2EC }
  - { offsetInCU: 0xF105F, offset: 0x487231, size: 0x8, addend: 0x0, symName: __ZNSt3__111basic_regexIcNS_12regex_traitsIcEEE24__parse_collating_symbolIPKcEET_S7_S7_RNS_12basic_stringIcNS_11char_traitsIcEENS_9allocatorIcEEEE, symObjAddr: 0x2DCF0, symBinAddr: 0x92AB4, symSize: 0xE4 }
  - { offsetInCU: 0xF142B, offset: 0x4875FD, size: 0x8, addend: 0x0, symName: __ZNSt3__111basic_regexIcNS_12regex_traitsIcEEE20__parse_class_escapeIPKcEET_S7_S7_RNS_12basic_stringIcNS_11char_traitsIcEENS_9allocatorIcEEEEPNS_20__bracket_expressionIcS2_EE, symObjAddr: 0x2DDD4, symBinAddr: 0x92B98, symSize: 0x15C }
  - { offsetInCU: 0xF1436, offset: 0x487608, size: 0x8, addend: 0x0, symName: __ZNKSt3__112regex_traitsIcE18__lookup_classnameIPKcEEjT_S5_bc, symObjAddr: 0x2F1B0, symBinAddr: 0x93218, symSize: 0x138 }
  - { offsetInCU: 0xF1A81, offset: 0x487C53, size: 0x8, addend: 0x0, symName: __ZNKSt3__112regex_traitsIcE20__lookup_collatenameIPKcEENS_12basic_stringIcNS_11char_traitsIcEENS_9allocatorIcEEEET_SB_c, symObjAddr: 0x2EAA8, symBinAddr: 0x92FE0, symSize: 0x238 }
  - { offsetInCU: 0xF2B1D, offset: 0x488CEF, size: 0x8, addend: 0x0, symName: __ZNSt3__111basic_regexIcNS_12regex_traitsIcEEE20__parse_class_escapeIPKcEET_S7_S7_RNS_12basic_stringIcNS_11char_traitsIcEENS_9allocatorIcEEEEPNS_20__bracket_expressionIcS2_EE, symObjAddr: 0x2DDD4, symBinAddr: 0x92B98, symSize: 0x15C }
  - { offsetInCU: 0xF2CA6, offset: 0x488E78, size: 0x8, addend: 0x0, symName: __ZNSt3__111basic_regexIcNS_12regex_traitsIcEEE18__parse_awk_escapeIPKcEET_S7_S7_PNS_12basic_stringIcNS_11char_traitsIcEENS_9allocatorIcEEEE, symObjAddr: 0x2DF30, symBinAddr: 0x92CF4, symSize: 0x2EC }
  - { offsetInCU: 0xF6778, offset: 0x48C94A, size: 0x8, addend: 0x0, symName: __ZNSt3__111basic_regexIcNS_12regex_traitsIcEEE32__parse_one_char_or_coll_elem_REIPKcEET_S7_S7_, symObjAddr: 0x30940, symBinAddr: 0x93804, symSize: 0x140 }
  - { offsetInCU: 0xF6B48, offset: 0x48CD1A, size: 0x8, addend: 0x0, symName: __ZNSt3__111basic_regexIcNS_12regex_traitsIcEEE22__parse_ERE_expressionIPKcEET_S7_S7_, symObjAddr: 0x30BA8, symBinAddr: 0x93944, symSize: 0x284 }
  - { offsetInCU: 0xF6B98, offset: 0x48CD6A, size: 0x8, addend: 0x0, symName: __ZNSt3__111basic_regexIcNS_12regex_traitsIcEEE20__parse_ORD_CHAR_EREIPKcEET_S7_S7_, symObjAddr: 0x30E2C, symBinAddr: 0x93BC8, symSize: 0x78 }
  - { offsetInCU: 0xF6BF8, offset: 0x48CDCA, size: 0x8, addend: 0x0, symName: __ZNSt3__111basic_regexIcNS_12regex_traitsIcEEE23__parse_QUOTED_CHAR_EREIPKcEET_S7_S7_, symObjAddr: 0x30EA4, symBinAddr: 0x93C40, symSize: 0xC0 }
  - { offsetInCU: 0xFD773, offset: 0x493945, size: 0x8, addend: 0x0, symName: __ZNSt3__13mapI23llama_rope_scaling_typePKcNS_4lessIS1_EENS_9allocatorINS_4pairIKS1_S3_EEEEEC2B8ue170006ESt16initializer_listIS9_ERKS5_, symObjAddr: 0x33E20, symBinAddr: 0x93D00, symSize: 0xF0 }
  - { offsetInCU: 0xFDB4F, offset: 0x493D21, size: 0x8, addend: 0x0, symName: __ZNSt3__16__treeINS_12__value_typeI23llama_rope_scaling_typePKcEENS_19__map_value_compareIS2_S5_NS_4lessIS2_EELb1EEENS_9allocatorIS5_EEE12__find_equalIS2_EERPNS_16__tree_node_baseIPvEENS_21__tree_const_iteratorIS5_PNS_11__tree_nodeIS5_SF_EElEERPNS_15__tree_end_nodeISH_EESI_RKT_, symObjAddr: 0x33F10, symBinAddr: 0x93DF0, symSize: 0x1A8 }
  - { offsetInCU: 0xFDBB7, offset: 0x493D89, size: 0x8, addend: 0x0, symName: __ZNSt3__16__treeINS_12__value_typeI23llama_rope_scaling_typePKcEENS_19__map_value_compareIS2_S5_NS_4lessIS2_EELb1EEENS_9allocatorIS5_EEE12__find_equalIS2_EERPNS_16__tree_node_baseIPvEENS_21__tree_const_iteratorIS5_PNS_11__tree_nodeIS5_SF_EElEERPNS_15__tree_end_nodeISH_EESI_RKT_, symObjAddr: 0x33F10, symBinAddr: 0x93DF0, symSize: 0x1A8 }
  - { offsetInCU: 0xFDBD3, offset: 0x493DA5, size: 0x8, addend: 0x0, symName: __ZNSt3__16__treeINS_12__value_typeI23llama_rope_scaling_typePKcEENS_19__map_value_compareIS2_S5_NS_4lessIS2_EELb1EEENS_9allocatorIS5_EEE12__find_equalIS2_EERPNS_16__tree_node_baseIPvEENS_21__tree_const_iteratorIS5_PNS_11__tree_nodeIS5_SF_EElEERPNS_15__tree_end_nodeISH_EESI_RKT_, symObjAddr: 0x33F10, symBinAddr: 0x93DF0, symSize: 0x1A8 }
  - { offsetInCU: 0xFE4AC, offset: 0x49467E, size: 0x8, addend: 0x0, symName: __ZNSt3__16__treeINS_12__value_typeIP19ggml_backend_deviceNS_6vectorINS_4pairIS3_P24ggml_backend_buffer_typeEENS_9allocatorIS8_EEEEEENS_19__map_value_compareIS3_SC_NS_4lessIS3_EELb1EEENS9_ISC_EEE7destroyEPNS_11__tree_nodeISC_PvEE, symObjAddr: 0x342D8, symBinAddr: 0x941B8, symSize: 0x50 }
  - { offsetInCU: 0xFEB60, offset: 0x494D32, size: 0x8, addend: 0x0, symName: __ZNSt3__112__hash_tableINS_17__hash_value_typeINS_12basic_stringIcNS_11char_traitsIcEENS_9allocatorIcEEEES7_EENS_22__unordered_map_hasherIS7_S8_NS_4hashIS7_EENS_8equal_toIS7_EELb1EEENS_21__unordered_map_equalIS7_S8_SD_SB_Lb1EEENS5_IS8_EEE11__do_rehashILb1EEEvm, symObjAddr: 0x34C60, symBinAddr: 0x946A4, symSize: 0x1AC }
  - { offsetInCU: 0xFEFC0, offset: 0x495192, size: 0x8, addend: 0x0, symName: __ZNSt3__16vectorINS_4pairIP19ggml_backend_deviceP24ggml_backend_buffer_typeEENS_9allocatorIS6_EEE18__insert_with_sizeB8ue170006INS_11__wrap_iterIPS6_EESD_EESD_NSB_IPKS6_EET_T0_l, symObjAddr: 0x34E0C, symBinAddr: 0x94850, symSize: 0x3A8 }
  - { offsetInCU: 0xFF73D, offset: 0x49590F, size: 0x8, addend: 0x0, symName: __ZNKSt3__16vectorIN11llama_model4impl9layer_devENS_9allocatorIS3_EEE20__throw_length_errorB8ue170006Ev, symObjAddr: 0x352F0, symBinAddr: 0x94D20, symSize: 0x14 }
  - { offsetInCU: 0xFFB4D, offset: 0x495D1F, size: 0x8, addend: 0x0, symName: __ZNKSt3__16vectorI11llama_layerNS_9allocatorIS1_EEE20__throw_length_errorB8ue170006Ev, symObjAddr: 0x35524, symBinAddr: 0x94F14, symSize: 0x14 }
  - { offsetInCU: 0xFFB82, offset: 0x495D54, size: 0x8, addend: 0x0, symName: __ZNSt3__114__split_bufferINS_4pairIP12ggml_contextNS_13unordered_mapIjP19ggml_backend_bufferNS_4hashIjEENS_8equal_toIjEENS_9allocatorINS1_IKjS6_EEEEEEEERNSB_ISG_EEED1Ev, symObjAddr: 0x35560, symBinAddr: 0x94F3C, symSize: 0x7C }
  - { offsetInCU: 0x100007, offset: 0x4961D9, size: 0x8, addend: 0x0, symName: __ZNSt3__112__hash_tableINS_17__hash_value_typeIjP19ggml_backend_bufferEENS_22__unordered_map_hasherIjS4_NS_4hashIjEENS_8equal_toIjEELb1EEENS_21__unordered_map_equalIjS4_S9_S7_Lb1EEENS_9allocatorIS4_EEED1Ev, symObjAddr: 0x355F0, symBinAddr: 0x94FB8, symSize: 0x48 }
  - { offsetInCU: 0x1009D4, offset: 0x496BA6, size: 0x8, addend: 0x0, symName: __ZNSt3__16vectorINS_4pairIP12ggml_contextNS_13unordered_mapIjP19ggml_backend_bufferNS_4hashIjEENS_8equal_toIjEENS_9allocatorINS1_IKjS6_EEEEEEEENSB_ISG_EEE24__emplace_back_slow_pathIJRS3_RSF_EEEvDpOT_, symObjAddr: 0x35D48, symBinAddr: 0x955D4, symSize: 0x248 }
  - { offsetInCU: 0x100D29, offset: 0x496EFB, size: 0x8, addend: 0x0, symName: __ZNSt3__112__hash_tableINS_17__hash_value_typeIjP19ggml_backend_bufferEENS_22__unordered_map_hasherIjS4_NS_4hashIjEENS_8equal_toIjEELb1EEENS_21__unordered_map_equalIjS4_S9_S7_Lb1EEENS_9allocatorIS4_EEE25__emplace_unique_key_argsIjJRKNS_4pairIKjS3_EEEEENSH_INS_15__hash_iteratorIPNS_11__hash_nodeIS4_PvEEEEbEERKT_DpOT0_, symObjAddr: 0x360C0, symBinAddr: 0x9594C, symSize: 0x300 }
  - { offsetInCU: 0x1017CA, offset: 0x49799C, size: 0x8, addend: 0x0, symName: __ZNKSt3__16vectorINS_4pairINS_12basic_stringIcNS_11char_traitsIcEENS_9allocatorIcEEEEP11ggml_tensorEENS5_ISA_EEE20__throw_length_errorB8ue170006Ev, symObjAddr: 0x36648, symBinAddr: 0x95ED4, symSize: 0x14 }
  - { offsetInCU: 0x1017FF, offset: 0x4979D1, size: 0x8, addend: 0x0, symName: __ZNSt3__114__split_bufferINS_4pairINS_12basic_stringIcNS_11char_traitsIcEENS_9allocatorIcEEEEP11ggml_tensorEERNS5_ISA_EEED1Ev, symObjAddr: 0x365E4, symBinAddr: 0x95E70, symSize: 0x64 }
  - { offsetInCU: 0x101ACE, offset: 0x497CA0, size: 0x8, addend: 0x0, symName: '__ZNSt3__110__function6__funcIZNK11llama_model10print_infoEvE3$_5NS_9allocatorIS3_EEFjjEED1Ev', symObjAddr: 0x36780, symBinAddr: 0x95EE8, symSize: 0x4 }
  - { offsetInCU: 0x101AFA, offset: 0x497CCC, size: 0x8, addend: 0x0, symName: '__ZNSt3__110__function6__funcIZNK11llama_model10print_infoEvE3$_5NS_9allocatorIS3_EEFjjEED0Ev', symObjAddr: 0x36784, symBinAddr: 0x95EEC, symSize: 0x4 }
  - { offsetInCU: 0x101BB0, offset: 0x497D82, size: 0x8, addend: 0x0, symName: '__ZNKSt3__110__function6__funcIZNK11llama_model10print_infoEvE3$_5NS_9allocatorIS3_EEFjjEE7__cloneEv', symObjAddr: 0x36788, symBinAddr: 0x95EF0, symSize: 0x34 }
  - { offsetInCU: 0x101CFE, offset: 0x497ED0, size: 0x8, addend: 0x0, symName: '__ZNKSt3__110__function6__funcIZNK11llama_model10print_infoEvE3$_5NS_9allocatorIS3_EEFjjEE7__cloneEPNS0_6__baseIS6_EE', symObjAddr: 0x367BC, symBinAddr: 0x95F24, symSize: 0x14 }
  - { offsetInCU: 0x101D6E, offset: 0x497F40, size: 0x8, addend: 0x0, symName: '__ZNSt3__110__function6__funcIZNK11llama_model10print_infoEvE3$_5NS_9allocatorIS3_EEFjjEE7destroyEv', symObjAddr: 0x367D0, symBinAddr: 0x95F38, symSize: 0x4 }
  - { offsetInCU: 0x101DBF, offset: 0x497F91, size: 0x8, addend: 0x0, symName: '__ZNSt3__110__function6__funcIZNK11llama_model10print_infoEvE3$_5NS_9allocatorIS3_EEFjjEE18destroy_deallocateEv', symObjAddr: 0x367D4, symBinAddr: 0x95F3C, symSize: 0x4 }
  - { offsetInCU: 0x101DF4, offset: 0x497FC6, size: 0x8, addend: 0x0, symName: '__ZNSt3__110__function6__funcIZNK11llama_model10print_infoEvE3$_5NS_9allocatorIS3_EEFjjEE18destroy_deallocateEv', symObjAddr: 0x367D4, symBinAddr: 0x95F3C, symSize: 0x4 }
  - { offsetInCU: 0x101E18, offset: 0x497FEA, size: 0x8, addend: 0x0, symName: '__ZNSt3__110__function6__funcIZNK11llama_model10print_infoEvE3$_5NS_9allocatorIS3_EEFjjEE18destroy_deallocateEv', symObjAddr: 0x367D4, symBinAddr: 0x95F3C, symSize: 0x4 }
  - { offsetInCU: 0x101E44, offset: 0x498016, size: 0x8, addend: 0x0, symName: '__ZNSt3__110__function6__funcIZNK11llama_model10print_infoEvE3$_5NS_9allocatorIS3_EEFjjEE18destroy_deallocateEv', symObjAddr: 0x367D4, symBinAddr: 0x95F3C, symSize: 0x4 }
  - { offsetInCU: 0x101E6A, offset: 0x49803C, size: 0x8, addend: 0x0, symName: '__ZNSt3__110__function6__funcIZNK11llama_model10print_infoEvE3$_5NS_9allocatorIS3_EEFjjEE18destroy_deallocateEv', symObjAddr: 0x367D4, symBinAddr: 0x95F3C, symSize: 0x4 }
  - { offsetInCU: 0x101F10, offset: 0x4980E2, size: 0x8, addend: 0x0, symName: '__ZNSt3__110__function6__funcIZNK11llama_model10print_infoEvE3$_5NS_9allocatorIS3_EEFjjEEclEOj', symObjAddr: 0x367D8, symBinAddr: 0x95F40, symSize: 0x10 }
  - { offsetInCU: 0x101FA8, offset: 0x49817A, size: 0x8, addend: 0x0, symName: '__ZNKSt3__110__function6__funcIZNK11llama_model10print_infoEvE3$_5NS_9allocatorIS3_EEFjjEE6targetERKSt9type_info', symObjAddr: 0x367E8, symBinAddr: 0x95F50, symSize: 0x60 }
  - { offsetInCU: 0x10202D, offset: 0x4981FF, size: 0x8, addend: 0x0, symName: '__ZNKSt3__110__function6__funcIZNK11llama_model10print_infoEvE3$_5NS_9allocatorIS3_EEFjjEE11target_typeEv', symObjAddr: 0x36848, symBinAddr: 0x95FB0, symSize: 0xC }
  - { offsetInCU: 0x102052, offset: 0x498224, size: 0x8, addend: 0x0, symName: '__ZNSt3__110__function6__funcIZNK11llama_model10print_infoEvE3$_6NS_9allocatorIS3_EEFjjEED1Ev', symObjAddr: 0x36854, symBinAddr: 0x95FBC, symSize: 0x4 }
  - { offsetInCU: 0x10207E, offset: 0x498250, size: 0x8, addend: 0x0, symName: '__ZNSt3__110__function6__funcIZNK11llama_model10print_infoEvE3$_6NS_9allocatorIS3_EEFjjEED0Ev', symObjAddr: 0x36858, symBinAddr: 0x95FC0, symSize: 0x4 }
  - { offsetInCU: 0x102134, offset: 0x498306, size: 0x8, addend: 0x0, symName: '__ZNKSt3__110__function6__funcIZNK11llama_model10print_infoEvE3$_6NS_9allocatorIS3_EEFjjEE7__cloneEv', symObjAddr: 0x3685C, symBinAddr: 0x95FC4, symSize: 0x34 }
  - { offsetInCU: 0x102282, offset: 0x498454, size: 0x8, addend: 0x0, symName: '__ZNKSt3__110__function6__funcIZNK11llama_model10print_infoEvE3$_6NS_9allocatorIS3_EEFjjEE7__cloneEPNS0_6__baseIS6_EE', symObjAddr: 0x36890, symBinAddr: 0x95FF8, symSize: 0x14 }
  - { offsetInCU: 0x1022F2, offset: 0x4984C4, size: 0x8, addend: 0x0, symName: '__ZNSt3__110__function6__funcIZNK11llama_model10print_infoEvE3$_6NS_9allocatorIS3_EEFjjEE7destroyEv', symObjAddr: 0x368A4, symBinAddr: 0x9600C, symSize: 0x4 }
  - { offsetInCU: 0x102343, offset: 0x498515, size: 0x8, addend: 0x0, symName: '__ZNSt3__110__function6__funcIZNK11llama_model10print_infoEvE3$_6NS_9allocatorIS3_EEFjjEE18destroy_deallocateEv', symObjAddr: 0x368A8, symBinAddr: 0x96010, symSize: 0x4 }
  - { offsetInCU: 0x102378, offset: 0x49854A, size: 0x8, addend: 0x0, symName: '__ZNSt3__110__function6__funcIZNK11llama_model10print_infoEvE3$_6NS_9allocatorIS3_EEFjjEE18destroy_deallocateEv', symObjAddr: 0x368A8, symBinAddr: 0x96010, symSize: 0x4 }
  - { offsetInCU: 0x10239C, offset: 0x49856E, size: 0x8, addend: 0x0, symName: '__ZNSt3__110__function6__funcIZNK11llama_model10print_infoEvE3$_6NS_9allocatorIS3_EEFjjEE18destroy_deallocateEv', symObjAddr: 0x368A8, symBinAddr: 0x96010, symSize: 0x4 }
  - { offsetInCU: 0x1023C8, offset: 0x49859A, size: 0x8, addend: 0x0, symName: '__ZNSt3__110__function6__funcIZNK11llama_model10print_infoEvE3$_6NS_9allocatorIS3_EEFjjEE18destroy_deallocateEv', symObjAddr: 0x368A8, symBinAddr: 0x96010, symSize: 0x4 }
  - { offsetInCU: 0x1023EE, offset: 0x4985C0, size: 0x8, addend: 0x0, symName: '__ZNSt3__110__function6__funcIZNK11llama_model10print_infoEvE3$_6NS_9allocatorIS3_EEFjjEE18destroy_deallocateEv', symObjAddr: 0x368A8, symBinAddr: 0x96010, symSize: 0x4 }
  - { offsetInCU: 0x102494, offset: 0x498666, size: 0x8, addend: 0x0, symName: '__ZNSt3__110__function6__funcIZNK11llama_model10print_infoEvE3$_6NS_9allocatorIS3_EEFjjEEclEOj', symObjAddr: 0x368AC, symBinAddr: 0x96014, symSize: 0x10 }
  - { offsetInCU: 0x10252C, offset: 0x4986FE, size: 0x8, addend: 0x0, symName: '__ZNKSt3__110__function6__funcIZNK11llama_model10print_infoEvE3$_6NS_9allocatorIS3_EEFjjEE6targetERKSt9type_info', symObjAddr: 0x368BC, symBinAddr: 0x96024, symSize: 0x60 }
  - { offsetInCU: 0x1025B1, offset: 0x498783, size: 0x8, addend: 0x0, symName: '__ZNKSt3__110__function6__funcIZNK11llama_model10print_infoEvE3$_6NS_9allocatorIS3_EEFjjEE11target_typeEv', symObjAddr: 0x3691C, symBinAddr: 0x96084, symSize: 0xC }
  - { offsetInCU: 0x1025D6, offset: 0x4987A8, size: 0x8, addend: 0x0, symName: '__ZNSt3__110__function6__funcIZNK11llama_model10print_infoEvE3$_7NS_9allocatorIS3_EEFjjEED1Ev', symObjAddr: 0x36928, symBinAddr: 0x96090, symSize: 0x4 }
  - { offsetInCU: 0x102602, offset: 0x4987D4, size: 0x8, addend: 0x0, symName: '__ZNSt3__110__function6__funcIZNK11llama_model10print_infoEvE3$_7NS_9allocatorIS3_EEFjjEED0Ev', symObjAddr: 0x3692C, symBinAddr: 0x96094, symSize: 0x4 }
  - { offsetInCU: 0x1026B8, offset: 0x49888A, size: 0x8, addend: 0x0, symName: '__ZNKSt3__110__function6__funcIZNK11llama_model10print_infoEvE3$_7NS_9allocatorIS3_EEFjjEE7__cloneEv', symObjAddr: 0x36930, symBinAddr: 0x96098, symSize: 0x34 }
  - { offsetInCU: 0x102806, offset: 0x4989D8, size: 0x8, addend: 0x0, symName: '__ZNKSt3__110__function6__funcIZNK11llama_model10print_infoEvE3$_7NS_9allocatorIS3_EEFjjEE7__cloneEPNS0_6__baseIS6_EE', symObjAddr: 0x36964, symBinAddr: 0x960CC, symSize: 0x14 }
  - { offsetInCU: 0x102876, offset: 0x498A48, size: 0x8, addend: 0x0, symName: '__ZNSt3__110__function6__funcIZNK11llama_model10print_infoEvE3$_7NS_9allocatorIS3_EEFjjEE7destroyEv', symObjAddr: 0x36978, symBinAddr: 0x960E0, symSize: 0x4 }
  - { offsetInCU: 0x1028C7, offset: 0x498A99, size: 0x8, addend: 0x0, symName: '__ZNSt3__110__function6__funcIZNK11llama_model10print_infoEvE3$_7NS_9allocatorIS3_EEFjjEE18destroy_deallocateEv', symObjAddr: 0x3697C, symBinAddr: 0x960E4, symSize: 0x4 }
  - { offsetInCU: 0x1028FC, offset: 0x498ACE, size: 0x8, addend: 0x0, symName: '__ZNSt3__110__function6__funcIZNK11llama_model10print_infoEvE3$_7NS_9allocatorIS3_EEFjjEE18destroy_deallocateEv', symObjAddr: 0x3697C, symBinAddr: 0x960E4, symSize: 0x4 }
  - { offsetInCU: 0x102920, offset: 0x498AF2, size: 0x8, addend: 0x0, symName: '__ZNSt3__110__function6__funcIZNK11llama_model10print_infoEvE3$_7NS_9allocatorIS3_EEFjjEE18destroy_deallocateEv', symObjAddr: 0x3697C, symBinAddr: 0x960E4, symSize: 0x4 }
  - { offsetInCU: 0x10294C, offset: 0x498B1E, size: 0x8, addend: 0x0, symName: '__ZNSt3__110__function6__funcIZNK11llama_model10print_infoEvE3$_7NS_9allocatorIS3_EEFjjEE18destroy_deallocateEv', symObjAddr: 0x3697C, symBinAddr: 0x960E4, symSize: 0x4 }
  - { offsetInCU: 0x102972, offset: 0x498B44, size: 0x8, addend: 0x0, symName: '__ZNSt3__110__function6__funcIZNK11llama_model10print_infoEvE3$_7NS_9allocatorIS3_EEFjjEE18destroy_deallocateEv', symObjAddr: 0x3697C, symBinAddr: 0x960E4, symSize: 0x4 }
  - { offsetInCU: 0x102A18, offset: 0x498BEA, size: 0x8, addend: 0x0, symName: '__ZNSt3__110__function6__funcIZNK11llama_model10print_infoEvE3$_7NS_9allocatorIS3_EEFjjEEclEOj', symObjAddr: 0x36980, symBinAddr: 0x960E8, symSize: 0x10 }
  - { offsetInCU: 0x102AB0, offset: 0x498C82, size: 0x8, addend: 0x0, symName: '__ZNKSt3__110__function6__funcIZNK11llama_model10print_infoEvE3$_7NS_9allocatorIS3_EEFjjEE6targetERKSt9type_info', symObjAddr: 0x36990, symBinAddr: 0x960F8, symSize: 0x60 }
  - { offsetInCU: 0x102B35, offset: 0x498D07, size: 0x8, addend: 0x0, symName: '__ZNKSt3__110__function6__funcIZNK11llama_model10print_infoEvE3$_7NS_9allocatorIS3_EEFjjEE11target_typeEv', symObjAddr: 0x369F0, symBinAddr: 0x96158, symSize: 0xC }
  - { offsetInCU: 0x102B5A, offset: 0x498D2C, size: 0x8, addend: 0x0, symName: '__ZNSt3__110__function6__funcIZNK11llama_model10print_infoEvE3$_8NS_9allocatorIS3_EEFjjEED1Ev', symObjAddr: 0x369FC, symBinAddr: 0x96164, symSize: 0x4 }
  - { offsetInCU: 0x102B86, offset: 0x498D58, size: 0x8, addend: 0x0, symName: '__ZNSt3__110__function6__funcIZNK11llama_model10print_infoEvE3$_8NS_9allocatorIS3_EEFjjEED0Ev', symObjAddr: 0x36A00, symBinAddr: 0x96168, symSize: 0x4 }
  - { offsetInCU: 0x102C3C, offset: 0x498E0E, size: 0x8, addend: 0x0, symName: '__ZNKSt3__110__function6__funcIZNK11llama_model10print_infoEvE3$_8NS_9allocatorIS3_EEFjjEE7__cloneEv', symObjAddr: 0x36A04, symBinAddr: 0x9616C, symSize: 0x34 }
  - { offsetInCU: 0x102D8A, offset: 0x498F5C, size: 0x8, addend: 0x0, symName: '__ZNKSt3__110__function6__funcIZNK11llama_model10print_infoEvE3$_8NS_9allocatorIS3_EEFjjEE7__cloneEPNS0_6__baseIS6_EE', symObjAddr: 0x36A38, symBinAddr: 0x961A0, symSize: 0x14 }
  - { offsetInCU: 0x102DFA, offset: 0x498FCC, size: 0x8, addend: 0x0, symName: '__ZNSt3__110__function6__funcIZNK11llama_model10print_infoEvE3$_8NS_9allocatorIS3_EEFjjEE7destroyEv', symObjAddr: 0x36A4C, symBinAddr: 0x961B4, symSize: 0x4 }
  - { offsetInCU: 0x102E4B, offset: 0x49901D, size: 0x8, addend: 0x0, symName: '__ZNSt3__110__function6__funcIZNK11llama_model10print_infoEvE3$_8NS_9allocatorIS3_EEFjjEE18destroy_deallocateEv', symObjAddr: 0x36A50, symBinAddr: 0x961B8, symSize: 0x4 }
  - { offsetInCU: 0x102E80, offset: 0x499052, size: 0x8, addend: 0x0, symName: '__ZNSt3__110__function6__funcIZNK11llama_model10print_infoEvE3$_8NS_9allocatorIS3_EEFjjEE18destroy_deallocateEv', symObjAddr: 0x36A50, symBinAddr: 0x961B8, symSize: 0x4 }
  - { offsetInCU: 0x102EA4, offset: 0x499076, size: 0x8, addend: 0x0, symName: '__ZNSt3__110__function6__funcIZNK11llama_model10print_infoEvE3$_8NS_9allocatorIS3_EEFjjEE18destroy_deallocateEv', symObjAddr: 0x36A50, symBinAddr: 0x961B8, symSize: 0x4 }
  - { offsetInCU: 0x102ED0, offset: 0x4990A2, size: 0x8, addend: 0x0, symName: '__ZNSt3__110__function6__funcIZNK11llama_model10print_infoEvE3$_8NS_9allocatorIS3_EEFjjEE18destroy_deallocateEv', symObjAddr: 0x36A50, symBinAddr: 0x961B8, symSize: 0x4 }
  - { offsetInCU: 0x102EF6, offset: 0x4990C8, size: 0x8, addend: 0x0, symName: '__ZNSt3__110__function6__funcIZNK11llama_model10print_infoEvE3$_8NS_9allocatorIS3_EEFjjEE18destroy_deallocateEv', symObjAddr: 0x36A50, symBinAddr: 0x961B8, symSize: 0x4 }
  - { offsetInCU: 0x102F9C, offset: 0x49916E, size: 0x8, addend: 0x0, symName: '__ZNSt3__110__function6__funcIZNK11llama_model10print_infoEvE3$_8NS_9allocatorIS3_EEFjjEEclEOj', symObjAddr: 0x36A54, symBinAddr: 0x961BC, symSize: 0x10 }
  - { offsetInCU: 0x103034, offset: 0x499206, size: 0x8, addend: 0x0, symName: '__ZNKSt3__110__function6__funcIZNK11llama_model10print_infoEvE3$_8NS_9allocatorIS3_EEFjjEE6targetERKSt9type_info', symObjAddr: 0x36A64, symBinAddr: 0x961CC, symSize: 0x60 }
  - { offsetInCU: 0x1030B9, offset: 0x49928B, size: 0x8, addend: 0x0, symName: '__ZNKSt3__110__function6__funcIZNK11llama_model10print_infoEvE3$_8NS_9allocatorIS3_EEFjjEE11target_typeEv', symObjAddr: 0x36AC4, symBinAddr: 0x9622C, symSize: 0xC }
  - { offsetInCU: 0x1030DE, offset: 0x4992B0, size: 0x8, addend: 0x0, symName: '__ZNSt3__110__function6__funcIZNK11llama_model10print_infoEvE3$_9NS_9allocatorIS3_EEFjjEED1Ev', symObjAddr: 0x36AD0, symBinAddr: 0x96238, symSize: 0x4 }
  - { offsetInCU: 0x10310A, offset: 0x4992DC, size: 0x8, addend: 0x0, symName: '__ZNSt3__110__function6__funcIZNK11llama_model10print_infoEvE3$_9NS_9allocatorIS3_EEFjjEED0Ev', symObjAddr: 0x36AD4, symBinAddr: 0x9623C, symSize: 0x4 }
  - { offsetInCU: 0x1031C0, offset: 0x499392, size: 0x8, addend: 0x0, symName: '__ZNKSt3__110__function6__funcIZNK11llama_model10print_infoEvE3$_9NS_9allocatorIS3_EEFjjEE7__cloneEv', symObjAddr: 0x36AD8, symBinAddr: 0x96240, symSize: 0x34 }
  - { offsetInCU: 0x10330E, offset: 0x4994E0, size: 0x8, addend: 0x0, symName: '__ZNKSt3__110__function6__funcIZNK11llama_model10print_infoEvE3$_9NS_9allocatorIS3_EEFjjEE7__cloneEPNS0_6__baseIS6_EE', symObjAddr: 0x36B0C, symBinAddr: 0x96274, symSize: 0x14 }
  - { offsetInCU: 0x10337E, offset: 0x499550, size: 0x8, addend: 0x0, symName: '__ZNSt3__110__function6__funcIZNK11llama_model10print_infoEvE3$_9NS_9allocatorIS3_EEFjjEE7destroyEv', symObjAddr: 0x36B20, symBinAddr: 0x96288, symSize: 0x4 }
  - { offsetInCU: 0x1033CF, offset: 0x4995A1, size: 0x8, addend: 0x0, symName: '__ZNSt3__110__function6__funcIZNK11llama_model10print_infoEvE3$_9NS_9allocatorIS3_EEFjjEE18destroy_deallocateEv', symObjAddr: 0x36B24, symBinAddr: 0x9628C, symSize: 0x4 }
  - { offsetInCU: 0x103404, offset: 0x4995D6, size: 0x8, addend: 0x0, symName: '__ZNSt3__110__function6__funcIZNK11llama_model10print_infoEvE3$_9NS_9allocatorIS3_EEFjjEE18destroy_deallocateEv', symObjAddr: 0x36B24, symBinAddr: 0x9628C, symSize: 0x4 }
  - { offsetInCU: 0x103428, offset: 0x4995FA, size: 0x8, addend: 0x0, symName: '__ZNSt3__110__function6__funcIZNK11llama_model10print_infoEvE3$_9NS_9allocatorIS3_EEFjjEE18destroy_deallocateEv', symObjAddr: 0x36B24, symBinAddr: 0x9628C, symSize: 0x4 }
  - { offsetInCU: 0x103454, offset: 0x499626, size: 0x8, addend: 0x0, symName: '__ZNSt3__110__function6__funcIZNK11llama_model10print_infoEvE3$_9NS_9allocatorIS3_EEFjjEE18destroy_deallocateEv', symObjAddr: 0x36B24, symBinAddr: 0x9628C, symSize: 0x4 }
  - { offsetInCU: 0x10347A, offset: 0x49964C, size: 0x8, addend: 0x0, symName: '__ZNSt3__110__function6__funcIZNK11llama_model10print_infoEvE3$_9NS_9allocatorIS3_EEFjjEE18destroy_deallocateEv', symObjAddr: 0x36B24, symBinAddr: 0x9628C, symSize: 0x4 }
  - { offsetInCU: 0x103520, offset: 0x4996F2, size: 0x8, addend: 0x0, symName: '__ZNSt3__110__function6__funcIZNK11llama_model10print_infoEvE3$_9NS_9allocatorIS3_EEFjjEEclEOj', symObjAddr: 0x36B28, symBinAddr: 0x96290, symSize: 0x10 }
  - { offsetInCU: 0x1035B8, offset: 0x49978A, size: 0x8, addend: 0x0, symName: '__ZNKSt3__110__function6__funcIZNK11llama_model10print_infoEvE3$_9NS_9allocatorIS3_EEFjjEE6targetERKSt9type_info', symObjAddr: 0x36B38, symBinAddr: 0x962A0, symSize: 0x60 }
  - { offsetInCU: 0x10363D, offset: 0x49980F, size: 0x8, addend: 0x0, symName: '__ZNKSt3__110__function6__funcIZNK11llama_model10print_infoEvE3$_9NS_9allocatorIS3_EEFjjEE11target_typeEv', symObjAddr: 0x36B98, symBinAddr: 0x96300, symSize: 0xC }
  - { offsetInCU: 0x103662, offset: 0x499834, size: 0x8, addend: 0x0, symName: '__ZNSt3__110__function6__funcIZNK11llama_model10print_infoEvE4$_10NS_9allocatorIS3_EEFjjEED1Ev', symObjAddr: 0x36BA4, symBinAddr: 0x9630C, symSize: 0x4 }
  - { offsetInCU: 0x10368E, offset: 0x499860, size: 0x8, addend: 0x0, symName: '__ZNSt3__110__function6__funcIZNK11llama_model10print_infoEvE4$_10NS_9allocatorIS3_EEFjjEED0Ev', symObjAddr: 0x36BA8, symBinAddr: 0x96310, symSize: 0x4 }
  - { offsetInCU: 0x103744, offset: 0x499916, size: 0x8, addend: 0x0, symName: '__ZNKSt3__110__function6__funcIZNK11llama_model10print_infoEvE4$_10NS_9allocatorIS3_EEFjjEE7__cloneEv', symObjAddr: 0x36BAC, symBinAddr: 0x96314, symSize: 0x34 }
  - { offsetInCU: 0x103892, offset: 0x499A64, size: 0x8, addend: 0x0, symName: '__ZNKSt3__110__function6__funcIZNK11llama_model10print_infoEvE4$_10NS_9allocatorIS3_EEFjjEE7__cloneEPNS0_6__baseIS6_EE', symObjAddr: 0x36BE0, symBinAddr: 0x96348, symSize: 0x14 }
  - { offsetInCU: 0x103902, offset: 0x499AD4, size: 0x8, addend: 0x0, symName: '__ZNSt3__110__function6__funcIZNK11llama_model10print_infoEvE4$_10NS_9allocatorIS3_EEFjjEE7destroyEv', symObjAddr: 0x36BF4, symBinAddr: 0x9635C, symSize: 0x4 }
  - { offsetInCU: 0x103953, offset: 0x499B25, size: 0x8, addend: 0x0, symName: '__ZNSt3__110__function6__funcIZNK11llama_model10print_infoEvE4$_10NS_9allocatorIS3_EEFjjEE18destroy_deallocateEv', symObjAddr: 0x36BF8, symBinAddr: 0x96360, symSize: 0x4 }
  - { offsetInCU: 0x103988, offset: 0x499B5A, size: 0x8, addend: 0x0, symName: '__ZNSt3__110__function6__funcIZNK11llama_model10print_infoEvE4$_10NS_9allocatorIS3_EEFjjEE18destroy_deallocateEv', symObjAddr: 0x36BF8, symBinAddr: 0x96360, symSize: 0x4 }
  - { offsetInCU: 0x1039AC, offset: 0x499B7E, size: 0x8, addend: 0x0, symName: '__ZNSt3__110__function6__funcIZNK11llama_model10print_infoEvE4$_10NS_9allocatorIS3_EEFjjEE18destroy_deallocateEv', symObjAddr: 0x36BF8, symBinAddr: 0x96360, symSize: 0x4 }
  - { offsetInCU: 0x1039D8, offset: 0x499BAA, size: 0x8, addend: 0x0, symName: '__ZNSt3__110__function6__funcIZNK11llama_model10print_infoEvE4$_10NS_9allocatorIS3_EEFjjEE18destroy_deallocateEv', symObjAddr: 0x36BF8, symBinAddr: 0x96360, symSize: 0x4 }
  - { offsetInCU: 0x1039FE, offset: 0x499BD0, size: 0x8, addend: 0x0, symName: '__ZNSt3__110__function6__funcIZNK11llama_model10print_infoEvE4$_10NS_9allocatorIS3_EEFjjEE18destroy_deallocateEv', symObjAddr: 0x36BF8, symBinAddr: 0x96360, symSize: 0x4 }
  - { offsetInCU: 0x103AA4, offset: 0x499C76, size: 0x8, addend: 0x0, symName: '__ZNSt3__110__function6__funcIZNK11llama_model10print_infoEvE4$_10NS_9allocatorIS3_EEFjjEEclEOj', symObjAddr: 0x36BFC, symBinAddr: 0x96364, symSize: 0x10 }
  - { offsetInCU: 0x103B3C, offset: 0x499D0E, size: 0x8, addend: 0x0, symName: '__ZNKSt3__110__function6__funcIZNK11llama_model10print_infoEvE4$_10NS_9allocatorIS3_EEFjjEE6targetERKSt9type_info', symObjAddr: 0x36C0C, symBinAddr: 0x96374, symSize: 0x60 }
  - { offsetInCU: 0x103BC1, offset: 0x499D93, size: 0x8, addend: 0x0, symName: '__ZNKSt3__110__function6__funcIZNK11llama_model10print_infoEvE4$_10NS_9allocatorIS3_EEFjjEE11target_typeEv', symObjAddr: 0x36C6C, symBinAddr: 0x963D4, symSize: 0xC }
  - { offsetInCU: 0x103BE6, offset: 0x499DB8, size: 0x8, addend: 0x0, symName: '__ZNSt3__110__function6__funcIZNK11llama_model13create_memoryERK19llama_memory_paramsR13llama_cparamsE4$_13NS_9allocatorIS8_EEFbiEED1Ev', symObjAddr: 0x36C78, symBinAddr: 0x963E0, symSize: 0x4 }
  - { offsetInCU: 0x103C12, offset: 0x499DE4, size: 0x8, addend: 0x0, symName: '__ZNSt3__110__function6__funcIZNK11llama_model13create_memoryERK19llama_memory_paramsR13llama_cparamsE4$_13NS_9allocatorIS8_EEFbiEED0Ev', symObjAddr: 0x36C7C, symBinAddr: 0x963E4, symSize: 0x4 }
  - { offsetInCU: 0x103CC8, offset: 0x499E9A, size: 0x8, addend: 0x0, symName: '__ZNKSt3__110__function6__funcIZNK11llama_model13create_memoryERK19llama_memory_paramsR13llama_cparamsE4$_13NS_9allocatorIS8_EEFbiEE7__cloneEv', symObjAddr: 0x36C80, symBinAddr: 0x963E8, symSize: 0x24 }
  - { offsetInCU: 0x103E12, offset: 0x499FE4, size: 0x8, addend: 0x0, symName: '__ZNKSt3__110__function6__funcIZNK11llama_model13create_memoryERK19llama_memory_paramsR13llama_cparamsE4$_13NS_9allocatorIS8_EEFbiEE7__cloneEPNS0_6__baseISB_EE', symObjAddr: 0x36CA4, symBinAddr: 0x9640C, symSize: 0x10 }
  - { offsetInCU: 0x103E48, offset: 0x49A01A, size: 0x8, addend: 0x0, symName: '__ZNKSt3__110__function6__funcIZNK11llama_model13create_memoryERK19llama_memory_paramsR13llama_cparamsE4$_13NS_9allocatorIS8_EEFbiEE7__cloneEPNS0_6__baseISB_EE', symObjAddr: 0x36CA4, symBinAddr: 0x9640C, symSize: 0x10 }
  - { offsetInCU: 0x103E64, offset: 0x49A036, size: 0x8, addend: 0x0, symName: '__ZNKSt3__110__function6__funcIZNK11llama_model13create_memoryERK19llama_memory_paramsR13llama_cparamsE4$_13NS_9allocatorIS8_EEFbiEE7__cloneEPNS0_6__baseISB_EE', symObjAddr: 0x36CA4, symBinAddr: 0x9640C, symSize: 0x10 }
  - { offsetInCU: 0x103E80, offset: 0x49A052, size: 0x8, addend: 0x0, symName: '__ZNSt3__110__function6__funcIZNK11llama_model13create_memoryERK19llama_memory_paramsR13llama_cparamsE4$_13NS_9allocatorIS8_EEFbiEE7destroyEv', symObjAddr: 0x36CB4, symBinAddr: 0x9641C, symSize: 0x4 }
  - { offsetInCU: 0x103ED1, offset: 0x49A0A3, size: 0x8, addend: 0x0, symName: '__ZNSt3__110__function6__funcIZNK11llama_model13create_memoryERK19llama_memory_paramsR13llama_cparamsE4$_13NS_9allocatorIS8_EEFbiEE18destroy_deallocateEv', symObjAddr: 0x36CB8, symBinAddr: 0x96420, symSize: 0x4 }
  - { offsetInCU: 0x103F06, offset: 0x49A0D8, size: 0x8, addend: 0x0, symName: '__ZNSt3__110__function6__funcIZNK11llama_model13create_memoryERK19llama_memory_paramsR13llama_cparamsE4$_13NS_9allocatorIS8_EEFbiEE18destroy_deallocateEv', symObjAddr: 0x36CB8, symBinAddr: 0x96420, symSize: 0x4 }
  - { offsetInCU: 0x103F2A, offset: 0x49A0FC, size: 0x8, addend: 0x0, symName: '__ZNSt3__110__function6__funcIZNK11llama_model13create_memoryERK19llama_memory_paramsR13llama_cparamsE4$_13NS_9allocatorIS8_EEFbiEE18destroy_deallocateEv', symObjAddr: 0x36CB8, symBinAddr: 0x96420, symSize: 0x4 }
  - { offsetInCU: 0x103F56, offset: 0x49A128, size: 0x8, addend: 0x0, symName: '__ZNSt3__110__function6__funcIZNK11llama_model13create_memoryERK19llama_memory_paramsR13llama_cparamsE4$_13NS_9allocatorIS8_EEFbiEE18destroy_deallocateEv', symObjAddr: 0x36CB8, symBinAddr: 0x96420, symSize: 0x4 }
  - { offsetInCU: 0x103F7C, offset: 0x49A14E, size: 0x8, addend: 0x0, symName: '__ZNSt3__110__function6__funcIZNK11llama_model13create_memoryERK19llama_memory_paramsR13llama_cparamsE4$_13NS_9allocatorIS8_EEFbiEE18destroy_deallocateEv', symObjAddr: 0x36CB8, symBinAddr: 0x96420, symSize: 0x4 }
  - { offsetInCU: 0x103FA6, offset: 0x49A178, size: 0x8, addend: 0x0, symName: '__ZNSt3__110__function6__funcIZNK11llama_model13create_memoryERK19llama_memory_paramsR13llama_cparamsE4$_13NS_9allocatorIS8_EEFbiEEclEOi', symObjAddr: 0x36CBC, symBinAddr: 0x96424, symSize: 0x8 }
  - { offsetInCU: 0x103FD7, offset: 0x49A1A9, size: 0x8, addend: 0x0, symName: '__ZNKSt3__110__function6__funcIZNK11llama_model13create_memoryERK19llama_memory_paramsR13llama_cparamsE4$_13NS_9allocatorIS8_EEFbiEE6targetERKSt9type_info', symObjAddr: 0x36CC4, symBinAddr: 0x9642C, symSize: 0x60 }
  - { offsetInCU: 0x10405C, offset: 0x49A22E, size: 0x8, addend: 0x0, symName: '__ZNKSt3__110__function6__funcIZNK11llama_model13create_memoryERK19llama_memory_paramsR13llama_cparamsE4$_13NS_9allocatorIS8_EEFbiEE11target_typeEv', symObjAddr: 0x36D24, symBinAddr: 0x9648C, symSize: 0xC }
  - { offsetInCU: 0x104081, offset: 0x49A253, size: 0x8, addend: 0x0, symName: '__ZNSt3__110__function6__funcIZNK11llama_model13create_memoryERK19llama_memory_paramsR13llama_cparamsE4$_14NS_9allocatorIS8_EEFbiEED1Ev', symObjAddr: 0x36D30, symBinAddr: 0x96498, symSize: 0x4 }
  - { offsetInCU: 0x1040AD, offset: 0x49A27F, size: 0x8, addend: 0x0, symName: '__ZNSt3__110__function6__funcIZNK11llama_model13create_memoryERK19llama_memory_paramsR13llama_cparamsE4$_14NS_9allocatorIS8_EEFbiEED0Ev', symObjAddr: 0x36D34, symBinAddr: 0x9649C, symSize: 0x4 }
  - { offsetInCU: 0x104163, offset: 0x49A335, size: 0x8, addend: 0x0, symName: '__ZNKSt3__110__function6__funcIZNK11llama_model13create_memoryERK19llama_memory_paramsR13llama_cparamsE4$_14NS_9allocatorIS8_EEFbiEE7__cloneEv', symObjAddr: 0x36D38, symBinAddr: 0x964A0, symSize: 0x24 }
  - { offsetInCU: 0x1042AD, offset: 0x49A47F, size: 0x8, addend: 0x0, symName: '__ZNKSt3__110__function6__funcIZNK11llama_model13create_memoryERK19llama_memory_paramsR13llama_cparamsE4$_14NS_9allocatorIS8_EEFbiEE7__cloneEPNS0_6__baseISB_EE', symObjAddr: 0x36D5C, symBinAddr: 0x964C4, symSize: 0x10 }
  - { offsetInCU: 0x1042E3, offset: 0x49A4B5, size: 0x8, addend: 0x0, symName: '__ZNKSt3__110__function6__funcIZNK11llama_model13create_memoryERK19llama_memory_paramsR13llama_cparamsE4$_14NS_9allocatorIS8_EEFbiEE7__cloneEPNS0_6__baseISB_EE', symObjAddr: 0x36D5C, symBinAddr: 0x964C4, symSize: 0x10 }
  - { offsetInCU: 0x1042FF, offset: 0x49A4D1, size: 0x8, addend: 0x0, symName: '__ZNKSt3__110__function6__funcIZNK11llama_model13create_memoryERK19llama_memory_paramsR13llama_cparamsE4$_14NS_9allocatorIS8_EEFbiEE7__cloneEPNS0_6__baseISB_EE', symObjAddr: 0x36D5C, symBinAddr: 0x964C4, symSize: 0x10 }
  - { offsetInCU: 0x10431B, offset: 0x49A4ED, size: 0x8, addend: 0x0, symName: '__ZNSt3__110__function6__funcIZNK11llama_model13create_memoryERK19llama_memory_paramsR13llama_cparamsE4$_14NS_9allocatorIS8_EEFbiEE7destroyEv', symObjAddr: 0x36D6C, symBinAddr: 0x964D4, symSize: 0x4 }
  - { offsetInCU: 0x10436C, offset: 0x49A53E, size: 0x8, addend: 0x0, symName: '__ZNSt3__110__function6__funcIZNK11llama_model13create_memoryERK19llama_memory_paramsR13llama_cparamsE4$_14NS_9allocatorIS8_EEFbiEE18destroy_deallocateEv', symObjAddr: 0x36D70, symBinAddr: 0x964D8, symSize: 0x4 }
  - { offsetInCU: 0x1043A1, offset: 0x49A573, size: 0x8, addend: 0x0, symName: '__ZNSt3__110__function6__funcIZNK11llama_model13create_memoryERK19llama_memory_paramsR13llama_cparamsE4$_14NS_9allocatorIS8_EEFbiEE18destroy_deallocateEv', symObjAddr: 0x36D70, symBinAddr: 0x964D8, symSize: 0x4 }
  - { offsetInCU: 0x1043C5, offset: 0x49A597, size: 0x8, addend: 0x0, symName: '__ZNSt3__110__function6__funcIZNK11llama_model13create_memoryERK19llama_memory_paramsR13llama_cparamsE4$_14NS_9allocatorIS8_EEFbiEE18destroy_deallocateEv', symObjAddr: 0x36D70, symBinAddr: 0x964D8, symSize: 0x4 }
  - { offsetInCU: 0x1043F1, offset: 0x49A5C3, size: 0x8, addend: 0x0, symName: '__ZNSt3__110__function6__funcIZNK11llama_model13create_memoryERK19llama_memory_paramsR13llama_cparamsE4$_14NS_9allocatorIS8_EEFbiEE18destroy_deallocateEv', symObjAddr: 0x36D70, symBinAddr: 0x964D8, symSize: 0x4 }
  - { offsetInCU: 0x104417, offset: 0x49A5E9, size: 0x8, addend: 0x0, symName: '__ZNSt3__110__function6__funcIZNK11llama_model13create_memoryERK19llama_memory_paramsR13llama_cparamsE4$_14NS_9allocatorIS8_EEFbiEE18destroy_deallocateEv', symObjAddr: 0x36D70, symBinAddr: 0x964D8, symSize: 0x4 }
  - { offsetInCU: 0x104441, offset: 0x49A613, size: 0x8, addend: 0x0, symName: '__ZNSt3__110__function6__funcIZNK11llama_model13create_memoryERK19llama_memory_paramsR13llama_cparamsE4$_14NS_9allocatorIS8_EEFbiEEclEOi', symObjAddr: 0x36D74, symBinAddr: 0x964DC, symSize: 0x8 }
  - { offsetInCU: 0x104472, offset: 0x49A644, size: 0x8, addend: 0x0, symName: '__ZNKSt3__110__function6__funcIZNK11llama_model13create_memoryERK19llama_memory_paramsR13llama_cparamsE4$_14NS_9allocatorIS8_EEFbiEE6targetERKSt9type_info', symObjAddr: 0x36D7C, symBinAddr: 0x964E4, symSize: 0x60 }
  - { offsetInCU: 0x1044F7, offset: 0x49A6C9, size: 0x8, addend: 0x0, symName: '__ZNKSt3__110__function6__funcIZNK11llama_model13create_memoryERK19llama_memory_paramsR13llama_cparamsE4$_14NS_9allocatorIS8_EEFbiEE11target_typeEv', symObjAddr: 0x36DDC, symBinAddr: 0x96544, symSize: 0xC }
  - { offsetInCU: 0x104593, offset: 0x49A765, size: 0x8, addend: 0x0, symName: __ZN15llm_build_llamaD1Ev, symObjAddr: 0x374C8, symBinAddr: 0x96C30, symSize: 0x4 }
  - { offsetInCU: 0x1045BF, offset: 0x49A791, size: 0x8, addend: 0x0, symName: __ZN15llm_build_llamaD0Ev, symObjAddr: 0x374CC, symBinAddr: 0x96C34, symSize: 0x4 }
  - { offsetInCU: 0x104608, offset: 0x49A7DA, size: 0x8, addend: 0x0, symName: __ZN20llm_build_llama_iswaD1Ev, symObjAddr: 0x37D14, symBinAddr: 0x9747C, symSize: 0x4 }
  - { offsetInCU: 0x104634, offset: 0x49A806, size: 0x8, addend: 0x0, symName: __ZN20llm_build_llama_iswaD0Ev, symObjAddr: 0x37D18, symBinAddr: 0x97480, symSize: 0x4 }
  - { offsetInCU: 0x104660, offset: 0x49A832, size: 0x8, addend: 0x0, symName: __ZN14llm_build_deciD1Ev, symObjAddr: 0x3843C, symBinAddr: 0x97BA4, symSize: 0x4 }
  - { offsetInCU: 0x10468C, offset: 0x49A85E, size: 0x8, addend: 0x0, symName: __ZN14llm_build_deciD0Ev, symObjAddr: 0x38440, symBinAddr: 0x97BA8, symSize: 0x4 }
  - { offsetInCU: 0x1046B8, offset: 0x49A88A, size: 0x8, addend: 0x0, symName: __ZN18llm_build_baichuanD1Ev, symObjAddr: 0x389C4, symBinAddr: 0x9812C, symSize: 0x4 }
  - { offsetInCU: 0x1046E4, offset: 0x49A8B6, size: 0x8, addend: 0x0, symName: __ZN18llm_build_baichuanD0Ev, symObjAddr: 0x389C8, symBinAddr: 0x98130, symSize: 0x4 }
  - { offsetInCU: 0x10478A, offset: 0x49A95C, size: 0x8, addend: 0x0, symName: __ZN16llm_build_falconD1Ev, symObjAddr: 0x38F14, symBinAddr: 0x9867C, symSize: 0x4 }
  - { offsetInCU: 0x1047B6, offset: 0x49A988, size: 0x8, addend: 0x0, symName: __ZN16llm_build_falconD0Ev, symObjAddr: 0x38F18, symBinAddr: 0x98680, symSize: 0x4 }
  - { offsetInCU: 0x1047E2, offset: 0x49A9B4, size: 0x8, addend: 0x0, symName: __ZN14llm_build_grokD1Ev, symObjAddr: 0x395E8, symBinAddr: 0x98D50, symSize: 0x4 }
  - { offsetInCU: 0x10480E, offset: 0x49A9E0, size: 0x8, addend: 0x0, symName: __ZN14llm_build_grokD0Ev, symObjAddr: 0x395EC, symBinAddr: 0x98D54, symSize: 0x4 }
  - { offsetInCU: 0x10483A, offset: 0x49AA0C, size: 0x8, addend: 0x0, symName: __ZN19llm_build_starcoderD1Ev, symObjAddr: 0x39B6C, symBinAddr: 0x992D4, symSize: 0x4 }
  - { offsetInCU: 0x104866, offset: 0x49AA38, size: 0x8, addend: 0x0, symName: __ZN19llm_build_starcoderD0Ev, symObjAddr: 0x39B70, symBinAddr: 0x992D8, symSize: 0x4 }
  - { offsetInCU: 0x104892, offset: 0x49AA64, size: 0x8, addend: 0x0, symName: __ZN16llm_build_refactD1Ev, symObjAddr: 0x3A018, symBinAddr: 0x99780, symSize: 0x4 }
  - { offsetInCU: 0x1048BE, offset: 0x49AA90, size: 0x8, addend: 0x0, symName: __ZN16llm_build_refactD0Ev, symObjAddr: 0x3A01C, symBinAddr: 0x99784, symSize: 0x4 }
  - { offsetInCU: 0x10490C, offset: 0x49AADE, size: 0x8, addend: 0x0, symName: __ZN14llm_build_bertD1Ev, symObjAddr: 0x3A890, symBinAddr: 0x99FF8, symSize: 0x4 }
  - { offsetInCU: 0x104938, offset: 0x49AB0A, size: 0x8, addend: 0x0, symName: __ZN14llm_build_bertD0Ev, symObjAddr: 0x3A894, symBinAddr: 0x99FFC, symSize: 0x4 }
  - { offsetInCU: 0x104964, offset: 0x49AB36, size: 0x8, addend: 0x0, symName: __ZN18llm_build_neo_bertD1Ev, symObjAddr: 0x3AD2C, symBinAddr: 0x9A494, symSize: 0x4 }
  - { offsetInCU: 0x104990, offset: 0x49AB62, size: 0x8, addend: 0x0, symName: __ZN18llm_build_neo_bertD0Ev, symObjAddr: 0x3AD30, symBinAddr: 0x9A498, symSize: 0x4 }
  - { offsetInCU: 0x1049BC, offset: 0x49AB8E, size: 0x8, addend: 0x0, symName: __ZN15llm_build_bloomD1Ev, symObjAddr: 0x3B284, symBinAddr: 0x9A9EC, symSize: 0x4 }
  - { offsetInCU: 0x1049E8, offset: 0x49ABBA, size: 0x8, addend: 0x0, symName: __ZN15llm_build_bloomD0Ev, symObjAddr: 0x3B288, symBinAddr: 0x9A9F0, symSize: 0x4 }
  - { offsetInCU: 0x104A36, offset: 0x49AC08, size: 0x8, addend: 0x0, symName: __ZN13llm_build_mptD1Ev, symObjAddr: 0x3B958, symBinAddr: 0x9B0C0, symSize: 0x4 }
  - { offsetInCU: 0x104A62, offset: 0x49AC34, size: 0x8, addend: 0x0, symName: __ZN13llm_build_mptD0Ev, symObjAddr: 0x3B95C, symBinAddr: 0x9B0C4, symSize: 0x4 }
  - { offsetInCU: 0x104A8E, offset: 0x49AC60, size: 0x8, addend: 0x0, symName: __ZN18llm_build_stablelmD1Ev, symObjAddr: 0x3BFF4, symBinAddr: 0x9B75C, symSize: 0x4 }
  - { offsetInCU: 0x104ABA, offset: 0x49AC8C, size: 0x8, addend: 0x0, symName: __ZN18llm_build_stablelmD0Ev, symObjAddr: 0x3BFF8, symBinAddr: 0x9B760, symSize: 0x4 }
  - { offsetInCU: 0x104AE6, offset: 0x49ACB8, size: 0x8, addend: 0x0, symName: __ZN14llm_build_qwenD1Ev, symObjAddr: 0x3C504, symBinAddr: 0x9BC6C, symSize: 0x4 }
  - { offsetInCU: 0x104B12, offset: 0x49ACE4, size: 0x8, addend: 0x0, symName: __ZN14llm_build_qwenD0Ev, symObjAddr: 0x3C508, symBinAddr: 0x9BC70, symSize: 0x4 }
  - { offsetInCU: 0x104B3E, offset: 0x49AD10, size: 0x8, addend: 0x0, symName: __ZN15llm_build_qwen2D1Ev, symObjAddr: 0x3CAA8, symBinAddr: 0x9C210, symSize: 0x4 }
  - { offsetInCU: 0x104B6A, offset: 0x49AD3C, size: 0x8, addend: 0x0, symName: __ZN15llm_build_qwen2D0Ev, symObjAddr: 0x3CAAC, symBinAddr: 0x9C214, symSize: 0x4 }
  - { offsetInCU: 0x104B96, offset: 0x49AD68, size: 0x8, addend: 0x0, symName: __ZN15llm_build_dreamD1Ev, symObjAddr: 0x3D034, symBinAddr: 0x9C79C, symSize: 0x4 }
  - { offsetInCU: 0x104BC2, offset: 0x49AD94, size: 0x8, addend: 0x0, symName: __ZN15llm_build_dreamD0Ev, symObjAddr: 0x3D038, symBinAddr: 0x9C7A0, symSize: 0x4 }
  - { offsetInCU: 0x104BEE, offset: 0x49ADC0, size: 0x8, addend: 0x0, symName: __ZN15llm_build_lladaD1Ev, symObjAddr: 0x3D578, symBinAddr: 0x9CCE0, symSize: 0x4 }
  - { offsetInCU: 0x104C1A, offset: 0x49ADEC, size: 0x8, addend: 0x0, symName: __ZN15llm_build_lladaD0Ev, symObjAddr: 0x3D57C, symBinAddr: 0x9CCE4, symSize: 0x4 }
  - { offsetInCU: 0x104CE9, offset: 0x49AEBB, size: 0x8, addend: 0x0, symName: __ZN17llm_build_qwen2vlD1Ev, symObjAddr: 0x3DB48, symBinAddr: 0x9D2B0, symSize: 0x4 }
  - { offsetInCU: 0x104D15, offset: 0x49AEE7, size: 0x8, addend: 0x0, symName: __ZN17llm_build_qwen2vlD0Ev, symObjAddr: 0x3DB4C, symBinAddr: 0x9D2B4, symSize: 0x4 }
  - { offsetInCU: 0x104D59, offset: 0x49AF2B, size: 0x8, addend: 0x0, symName: __ZN18llm_build_qwen2moeD1Ev, symObjAddr: 0x3E25C, symBinAddr: 0x9D9C4, symSize: 0x4 }
  - { offsetInCU: 0x104D85, offset: 0x49AF57, size: 0x8, addend: 0x0, symName: __ZN18llm_build_qwen2moeD0Ev, symObjAddr: 0x3E260, symBinAddr: 0x9D9C8, symSize: 0x4 }
  - { offsetInCU: 0x104DB1, offset: 0x49AF83, size: 0x8, addend: 0x0, symName: __ZN15llm_build_qwen3D1Ev, symObjAddr: 0x3E824, symBinAddr: 0x9DF8C, symSize: 0x4 }
  - { offsetInCU: 0x104DDD, offset: 0x49AFAF, size: 0x8, addend: 0x0, symName: __ZN15llm_build_qwen3D0Ev, symObjAddr: 0x3E828, symBinAddr: 0x9DF90, symSize: 0x4 }
  - { offsetInCU: 0x104E09, offset: 0x49AFDB, size: 0x8, addend: 0x0, symName: __ZN18llm_build_qwen3moeD1Ev, symObjAddr: 0x3EDEC, symBinAddr: 0x9E554, symSize: 0x4 }
  - { offsetInCU: 0x104E35, offset: 0x49B007, size: 0x8, addend: 0x0, symName: __ZN18llm_build_qwen3moeD0Ev, symObjAddr: 0x3EDF0, symBinAddr: 0x9E558, symSize: 0x4 }
  - { offsetInCU: 0x104E61, offset: 0x49B033, size: 0x8, addend: 0x0, symName: __ZN14llm_build_phi2D1Ev, symObjAddr: 0x3F49C, symBinAddr: 0x9EC04, symSize: 0x4 }
  - { offsetInCU: 0x104E8D, offset: 0x49B05F, size: 0x8, addend: 0x0, symName: __ZN14llm_build_phi2D0Ev, symObjAddr: 0x3F4A0, symBinAddr: 0x9EC08, symSize: 0x4 }
  - { offsetInCU: 0x104EB9, offset: 0x49B08B, size: 0x8, addend: 0x0, symName: __ZN14llm_build_phi3ILb1EED1Ev, symObjAddr: 0x3FC20, symBinAddr: 0x9F388, symSize: 0x4 }
  - { offsetInCU: 0x104EE5, offset: 0x49B0B7, size: 0x8, addend: 0x0, symName: __ZN14llm_build_phi3ILb1EED0Ev, symObjAddr: 0x3FC24, symBinAddr: 0x9F38C, symSize: 0x4 }
  - { offsetInCU: 0x104F11, offset: 0x49B0E3, size: 0x8, addend: 0x0, symName: __ZN14llm_build_phi3ILb0EED1Ev, symObjAddr: 0x403A4, symBinAddr: 0x9FB0C, symSize: 0x4 }
  - { offsetInCU: 0x104F3D, offset: 0x49B10F, size: 0x8, addend: 0x0, symName: __ZN14llm_build_phi3ILb0EED0Ev, symObjAddr: 0x403A8, symBinAddr: 0x9FB10, symSize: 0x4 }
  - { offsetInCU: 0x104F69, offset: 0x49B13B, size: 0x8, addend: 0x0, symName: __ZN15llm_build_plamoD1Ev, symObjAddr: 0x40890, symBinAddr: 0x9FFF8, symSize: 0x4 }
  - { offsetInCU: 0x104F95, offset: 0x49B167, size: 0x8, addend: 0x0, symName: __ZN15llm_build_plamoD0Ev, symObjAddr: 0x40894, symBinAddr: 0x9FFFC, symSize: 0x4 }
  - { offsetInCU: 0x105053, offset: 0x49B225, size: 0x8, addend: 0x0, symName: __ZN16llm_build_plamo223build_plamo2_attn_layerEP31llm_graph_input_attn_kv_unifiedP11ggml_tensorS3_RK11llama_modeli, symObjAddr: 0x41838, symBinAddr: 0xA0FA0, symSize: 0x33C }
  - { offsetInCU: 0x105C03, offset: 0x49BDD5, size: 0x8, addend: 0x0, symName: __ZN16llm_build_plamo2D1Ev, symObjAddr: 0x41B74, symBinAddr: 0xA12DC, symSize: 0x4 }
  - { offsetInCU: 0x105C2F, offset: 0x49BE01, size: 0x8, addend: 0x0, symName: __ZN16llm_build_plamo2D0Ev, symObjAddr: 0x41B78, symBinAddr: 0xA12E0, symSize: 0x4 }
  - { offsetInCU: 0x105C5B, offset: 0x49BE2D, size: 0x8, addend: 0x0, symName: __ZNSt3__110__function6__funcIZN16llm_build_plamo224build_plamo2_mamba_layerEP18llm_graph_input_rsP11ggml_tensorRK11llama_modelRK12llama_ubatchiEUlP12ggml_contextS6_S6_E_NS_9allocatorISF_EEFS6_SE_S6_S6_EED1Ev, symObjAddr: 0x41C70, symBinAddr: 0xA12E4, symSize: 0x4 }
  - { offsetInCU: 0x105C87, offset: 0x49BE59, size: 0x8, addend: 0x0, symName: __ZNSt3__110__function6__funcIZN16llm_build_plamo224build_plamo2_mamba_layerEP18llm_graph_input_rsP11ggml_tensorRK11llama_modelRK12llama_ubatchiEUlP12ggml_contextS6_S6_E_NS_9allocatorISF_EEFS6_SE_S6_S6_EED0Ev, symObjAddr: 0x41C74, symBinAddr: 0xA12E8, symSize: 0x4 }
  - { offsetInCU: 0x105E65, offset: 0x49C037, size: 0x8, addend: 0x0, symName: __ZNKSt3__110__function6__funcIZN16llm_build_plamo224build_plamo2_mamba_layerEP18llm_graph_input_rsP11ggml_tensorRK11llama_modelRK12llama_ubatchiEUlP12ggml_contextS6_S6_E_NS_9allocatorISF_EEFS6_SE_S6_S6_EE7__cloneEv, symObjAddr: 0x41C78, symBinAddr: 0xA12EC, symSize: 0x5C }
  - { offsetInCU: 0x10618F, offset: 0x49C361, size: 0x8, addend: 0x0, symName: __ZNKSt3__110__function6__funcIZN16llm_build_plamo224build_plamo2_mamba_layerEP18llm_graph_input_rsP11ggml_tensorRK11llama_modelRK12llama_ubatchiEUlP12ggml_contextS6_S6_E_NS_9allocatorISF_EEFS6_SE_S6_S6_EE7__cloneEPNS0_6__baseISI_EE, symObjAddr: 0x41CD4, symBinAddr: 0xA1348, symSize: 0x3C }
  - { offsetInCU: 0x1061C7, offset: 0x49C399, size: 0x8, addend: 0x0, symName: __ZNKSt3__110__function6__funcIZN16llm_build_plamo224build_plamo2_mamba_layerEP18llm_graph_input_rsP11ggml_tensorRK11llama_modelRK12llama_ubatchiEUlP12ggml_contextS6_S6_E_NS_9allocatorISF_EEFS6_SE_S6_S6_EE7__cloneEPNS0_6__baseISI_EE, symObjAddr: 0x41CD4, symBinAddr: 0xA1348, symSize: 0x3C }
  - { offsetInCU: 0x1061F5, offset: 0x49C3C7, size: 0x8, addend: 0x0, symName: __ZNKSt3__110__function6__funcIZN16llm_build_plamo224build_plamo2_mamba_layerEP18llm_graph_input_rsP11ggml_tensorRK11llama_modelRK12llama_ubatchiEUlP12ggml_contextS6_S6_E_NS_9allocatorISF_EEFS6_SE_S6_S6_EE7__cloneEPNS0_6__baseISI_EE, symObjAddr: 0x41CD4, symBinAddr: 0xA1348, symSize: 0x3C }
  - { offsetInCU: 0x10630F, offset: 0x49C4E1, size: 0x8, addend: 0x0, symName: __ZNSt3__110__function6__funcIZN16llm_build_plamo224build_plamo2_mamba_layerEP18llm_graph_input_rsP11ggml_tensorRK11llama_modelRK12llama_ubatchiEUlP12ggml_contextS6_S6_E_NS_9allocatorISF_EEFS6_SE_S6_S6_EE7destroyEv, symObjAddr: 0x41D10, symBinAddr: 0xA1384, symSize: 0x4 }
  - { offsetInCU: 0x106362, offset: 0x49C534, size: 0x8, addend: 0x0, symName: __ZNSt3__110__function6__funcIZN16llm_build_plamo224build_plamo2_mamba_layerEP18llm_graph_input_rsP11ggml_tensorRK11llama_modelRK12llama_ubatchiEUlP12ggml_contextS6_S6_E_NS_9allocatorISF_EEFS6_SE_S6_S6_EE18destroy_deallocateEv, symObjAddr: 0x41D14, symBinAddr: 0xA1388, symSize: 0x4 }
  - { offsetInCU: 0x106397, offset: 0x49C569, size: 0x8, addend: 0x0, symName: __ZNSt3__110__function6__funcIZN16llm_build_plamo224build_plamo2_mamba_layerEP18llm_graph_input_rsP11ggml_tensorRK11llama_modelRK12llama_ubatchiEUlP12ggml_contextS6_S6_E_NS_9allocatorISF_EEFS6_SE_S6_S6_EE18destroy_deallocateEv, symObjAddr: 0x41D14, symBinAddr: 0xA1388, symSize: 0x4 }
  - { offsetInCU: 0x1063BB, offset: 0x49C58D, size: 0x8, addend: 0x0, symName: __ZNSt3__110__function6__funcIZN16llm_build_plamo224build_plamo2_mamba_layerEP18llm_graph_input_rsP11ggml_tensorRK11llama_modelRK12llama_ubatchiEUlP12ggml_contextS6_S6_E_NS_9allocatorISF_EEFS6_SE_S6_S6_EE18destroy_deallocateEv, symObjAddr: 0x41D14, symBinAddr: 0xA1388, symSize: 0x4 }
  - { offsetInCU: 0x1063E8, offset: 0x49C5BA, size: 0x8, addend: 0x0, symName: __ZNSt3__110__function6__funcIZN16llm_build_plamo224build_plamo2_mamba_layerEP18llm_graph_input_rsP11ggml_tensorRK11llama_modelRK12llama_ubatchiEUlP12ggml_contextS6_S6_E_NS_9allocatorISF_EEFS6_SE_S6_S6_EE18destroy_deallocateEv, symObjAddr: 0x41D14, symBinAddr: 0xA1388, symSize: 0x4 }
  - { offsetInCU: 0x10640F, offset: 0x49C5E1, size: 0x8, addend: 0x0, symName: __ZNSt3__110__function6__funcIZN16llm_build_plamo224build_plamo2_mamba_layerEP18llm_graph_input_rsP11ggml_tensorRK11llama_modelRK12llama_ubatchiEUlP12ggml_contextS6_S6_E_NS_9allocatorISF_EEFS6_SE_S6_S6_EE18destroy_deallocateEv, symObjAddr: 0x41D14, symBinAddr: 0xA1388, symSize: 0x4 }
  - { offsetInCU: 0x106511, offset: 0x49C6E3, size: 0x8, addend: 0x0, symName: __ZNSt3__110__function6__funcIZN16llm_build_plamo224build_plamo2_mamba_layerEP18llm_graph_input_rsP11ggml_tensorRK11llama_modelRK12llama_ubatchiEUlP12ggml_contextS6_S6_E_NS_9allocatorISF_EEFS6_SE_S6_S6_EEclEOSE_OS6_SL_, symObjAddr: 0x41D18, symBinAddr: 0xA138C, symSize: 0xA4 }
  - { offsetInCU: 0x1066A2, offset: 0x49C874, size: 0x8, addend: 0x0, symName: __ZNKSt3__110__function6__funcIZN16llm_build_plamo224build_plamo2_mamba_layerEP18llm_graph_input_rsP11ggml_tensorRK11llama_modelRK12llama_ubatchiEUlP12ggml_contextS6_S6_E_NS_9allocatorISF_EEFS6_SE_S6_S6_EE6targetERKSt9type_info, symObjAddr: 0x41DBC, symBinAddr: 0xA1430, symSize: 0x74 }
  - { offsetInCU: 0x106727, offset: 0x49C8F9, size: 0x8, addend: 0x0, symName: __ZNKSt3__110__function6__funcIZN16llm_build_plamo224build_plamo2_mamba_layerEP18llm_graph_input_rsP11ggml_tensorRK11llama_modelRK12llama_ubatchiEUlP12ggml_contextS6_S6_E_NS_9allocatorISF_EEFS6_SE_S6_S6_EE11target_typeEv, symObjAddr: 0x41E30, symBinAddr: 0xA14A4, symSize: 0xC }
  - { offsetInCU: 0x106750, offset: 0x49C922, size: 0x8, addend: 0x0, symName: __ZN14llm_build_gpt2D1Ev, symObjAddr: 0x423B4, symBinAddr: 0xA1A28, symSize: 0x4 }
  - { offsetInCU: 0x10677C, offset: 0x49C94E, size: 0x8, addend: 0x0, symName: __ZN14llm_build_gpt2D0Ev, symObjAddr: 0x423B8, symBinAddr: 0xA1A2C, symSize: 0x4 }
  - { offsetInCU: 0x1067A8, offset: 0x49C97A, size: 0x8, addend: 0x0, symName: __ZN19llm_build_codeshellD1Ev, symObjAddr: 0x42928, symBinAddr: 0xA1F9C, symSize: 0x4 }
  - { offsetInCU: 0x1067D4, offset: 0x49C9A6, size: 0x8, addend: 0x0, symName: __ZN19llm_build_codeshellD0Ev, symObjAddr: 0x4292C, symBinAddr: 0xA1FA0, symSize: 0x4 }
  - { offsetInCU: 0x106800, offset: 0x49C9D2, size: 0x8, addend: 0x0, symName: __ZN15llm_build_orionD1Ev, symObjAddr: 0x42E6C, symBinAddr: 0xA24E0, symSize: 0x4 }
  - { offsetInCU: 0x10682C, offset: 0x49C9FE, size: 0x8, addend: 0x0, symName: __ZN15llm_build_orionD0Ev, symObjAddr: 0x42E70, symBinAddr: 0xA24E4, symSize: 0x4 }
  - { offsetInCU: 0x106858, offset: 0x49CA2A, size: 0x8, addend: 0x0, symName: __ZN19llm_build_internlm2D1Ev, symObjAddr: 0x4345C, symBinAddr: 0xA2AD0, symSize: 0x4 }
  - { offsetInCU: 0x106884, offset: 0x49CA56, size: 0x8, addend: 0x0, symName: __ZN19llm_build_internlm2D0Ev, symObjAddr: 0x43460, symBinAddr: 0xA2AD4, symSize: 0x4 }
  - { offsetInCU: 0x1068E5, offset: 0x49CAB7, size: 0x8, addend: 0x0, symName: __ZN18llm_build_minicpm3D1Ev, symObjAddr: 0x43E48, symBinAddr: 0xA34BC, symSize: 0x4 }
  - { offsetInCU: 0x106911, offset: 0x49CAE3, size: 0x8, addend: 0x0, symName: __ZN18llm_build_minicpm3D0Ev, symObjAddr: 0x43E4C, symBinAddr: 0xA34C0, symSize: 0x4 }
  - { offsetInCU: 0x10693D, offset: 0x49CB0F, size: 0x8, addend: 0x0, symName: __ZN15llm_build_gemmaD1Ev, symObjAddr: 0x44388, symBinAddr: 0xA39FC, symSize: 0x4 }
  - { offsetInCU: 0x106969, offset: 0x49CB3B, size: 0x8, addend: 0x0, symName: __ZN15llm_build_gemmaD0Ev, symObjAddr: 0x4438C, symBinAddr: 0xA3A00, symSize: 0x4 }
  - { offsetInCU: 0x1069AD, offset: 0x49CB7F, size: 0x8, addend: 0x0, symName: __ZN21llm_build_gemma2_iswaD1Ev, symObjAddr: 0x44958, symBinAddr: 0xA3FCC, symSize: 0x4 }
  - { offsetInCU: 0x1069D9, offset: 0x49CBAB, size: 0x8, addend: 0x0, symName: __ZN21llm_build_gemma2_iswaD0Ev, symObjAddr: 0x4495C, symBinAddr: 0xA3FD0, symSize: 0x4 }
  - { offsetInCU: 0x106A67, offset: 0x49CC39, size: 0x8, addend: 0x0, symName: __ZN21llm_build_gemma3_iswaD1Ev, symObjAddr: 0x44FF8, symBinAddr: 0xA466C, symSize: 0x4 }
  - { offsetInCU: 0x106A93, offset: 0x49CC65, size: 0x8, addend: 0x0, symName: __ZN21llm_build_gemma3_iswaD0Ev, symObjAddr: 0x44FFC, symBinAddr: 0xA4670, symSize: 0x4 }
  - { offsetInCU: 0x106B49, offset: 0x49CD1B, size: 0x8, addend: 0x0, symName: __ZN22llm_build_gemma3n_iswa20get_per_layer_inputsEv, symObjAddr: 0x46120, symBinAddr: 0xA5794, symSize: 0x164 }
  - { offsetInCU: 0x106E8F, offset: 0x49D061, size: 0x8, addend: 0x0, symName: __ZN22llm_build_gemma3n_iswa24project_per_layer_inputsEP11ggml_tensorS1_, symObjAddr: 0x45FF8, symBinAddr: 0xA566C, symSize: 0x128 }
  - { offsetInCU: 0x107019, offset: 0x49D1EB, size: 0x8, addend: 0x0, symName: __ZN22llm_build_gemma3n_iswa13altup_predictEP11ggml_tensori, symObjAddr: 0x46284, symBinAddr: 0xA58F8, symSize: 0x238 }
  - { offsetInCU: 0x1072B8, offset: 0x49D48A, size: 0x8, addend: 0x0, symName: __ZN22llm_build_gemma3n_iswa13gaussian_topkEP11ggml_tensor, symObjAddr: 0x464BC, symBinAddr: 0xA5B30, symSize: 0xCC }
  - { offsetInCU: 0x1072CA, offset: 0x49D49C, size: 0x8, addend: 0x0, symName: __ZN22llm_build_gemma3n_iswa13gaussian_topkEP11ggml_tensor, symObjAddr: 0x464BC, symBinAddr: 0xA5B30, symSize: 0xCC }
  - { offsetInCU: 0x10742E, offset: 0x49D600, size: 0x8, addend: 0x0, symName: __ZN22llm_build_gemma3n_iswa13altup_correctEP11ggml_tensorS1_i, symObjAddr: 0x46588, symBinAddr: 0xA5BFC, symSize: 0x26C }
  - { offsetInCU: 0x1076C4, offset: 0x49D896, size: 0x8, addend: 0x0, symName: __ZN22llm_build_gemma3n_iswaD1Ev, symObjAddr: 0x467F4, symBinAddr: 0xA5E68, symSize: 0x4 }
  - { offsetInCU: 0x107A11, offset: 0x49DBE3, size: 0x8, addend: 0x0, symName: __ZN22llm_build_gemma3n_iswaD1Ev, symObjAddr: 0x467F4, symBinAddr: 0xA5E68, symSize: 0x4 }
  - { offsetInCU: 0x107A3D, offset: 0x49DC0F, size: 0x8, addend: 0x0, symName: __ZN22llm_build_gemma3n_iswaD0Ev, symObjAddr: 0x467F8, symBinAddr: 0xA5E6C, symSize: 0x4 }
  - { offsetInCU: 0x107A69, offset: 0x49DC3B, size: 0x8, addend: 0x0, symName: __ZN20llm_build_starcoder2D1Ev, symObjAddr: 0x46DF0, symBinAddr: 0xA6464, symSize: 0x4 }
  - { offsetInCU: 0x107A95, offset: 0x49DC67, size: 0x8, addend: 0x0, symName: __ZN20llm_build_starcoder2D0Ev, symObjAddr: 0x46DF4, symBinAddr: 0xA6468, symSize: 0x4 }
  - { offsetInCU: 0x10828C, offset: 0x49E45E, size: 0x8, addend: 0x0, symName: __ZN15llm_build_mambaD1Ev, symObjAddr: 0x47FEC, symBinAddr: 0xA7660, symSize: 0x4 }
  - { offsetInCU: 0x1082B8, offset: 0x49E48A, size: 0x8, addend: 0x0, symName: __ZN15llm_build_mambaD0Ev, symObjAddr: 0x47FF0, symBinAddr: 0xA7664, symSize: 0x4 }
  - { offsetInCU: 0x1082E4, offset: 0x49E4B6, size: 0x8, addend: 0x0, symName: __ZNSt3__110__function6__funcIZNK23llm_graph_context_mamba18build_mamba2_layerEP18llm_graph_input_rsP11ggml_tensorRK11llama_modelRK12llama_ubatchiEUlP12ggml_contextS6_S6_E_NS_9allocatorISF_EEFS6_SE_S6_S6_EED1Ev, symObjAddr: 0x47FF4, symBinAddr: 0xA7668, symSize: 0x4 }
  - { offsetInCU: 0x108310, offset: 0x49E4E2, size: 0x8, addend: 0x0, symName: __ZNSt3__110__function6__funcIZNK23llm_graph_context_mamba18build_mamba2_layerEP18llm_graph_input_rsP11ggml_tensorRK11llama_modelRK12llama_ubatchiEUlP12ggml_contextS6_S6_E_NS_9allocatorISF_EEFS6_SE_S6_S6_EED0Ev, symObjAddr: 0x47FF8, symBinAddr: 0xA766C, symSize: 0x4 }
  - { offsetInCU: 0x1084EE, offset: 0x49E6C0, size: 0x8, addend: 0x0, symName: __ZNKSt3__110__function6__funcIZNK23llm_graph_context_mamba18build_mamba2_layerEP18llm_graph_input_rsP11ggml_tensorRK11llama_modelRK12llama_ubatchiEUlP12ggml_contextS6_S6_E_NS_9allocatorISF_EEFS6_SE_S6_S6_EE7__cloneEv, symObjAddr: 0x47FFC, symBinAddr: 0xA7670, symSize: 0x5C }
  - { offsetInCU: 0x108818, offset: 0x49E9EA, size: 0x8, addend: 0x0, symName: __ZNKSt3__110__function6__funcIZNK23llm_graph_context_mamba18build_mamba2_layerEP18llm_graph_input_rsP11ggml_tensorRK11llama_modelRK12llama_ubatchiEUlP12ggml_contextS6_S6_E_NS_9allocatorISF_EEFS6_SE_S6_S6_EE7__cloneEPNS0_6__baseISI_EE, symObjAddr: 0x48058, symBinAddr: 0xA76CC, symSize: 0x3C }
  - { offsetInCU: 0x108850, offset: 0x49EA22, size: 0x8, addend: 0x0, symName: __ZNKSt3__110__function6__funcIZNK23llm_graph_context_mamba18build_mamba2_layerEP18llm_graph_input_rsP11ggml_tensorRK11llama_modelRK12llama_ubatchiEUlP12ggml_contextS6_S6_E_NS_9allocatorISF_EEFS6_SE_S6_S6_EE7__cloneEPNS0_6__baseISI_EE, symObjAddr: 0x48058, symBinAddr: 0xA76CC, symSize: 0x3C }
  - { offsetInCU: 0x10887E, offset: 0x49EA50, size: 0x8, addend: 0x0, symName: __ZNKSt3__110__function6__funcIZNK23llm_graph_context_mamba18build_mamba2_layerEP18llm_graph_input_rsP11ggml_tensorRK11llama_modelRK12llama_ubatchiEUlP12ggml_contextS6_S6_E_NS_9allocatorISF_EEFS6_SE_S6_S6_EE7__cloneEPNS0_6__baseISI_EE, symObjAddr: 0x48058, symBinAddr: 0xA76CC, symSize: 0x3C }
  - { offsetInCU: 0x108998, offset: 0x49EB6A, size: 0x8, addend: 0x0, symName: __ZNSt3__110__function6__funcIZNK23llm_graph_context_mamba18build_mamba2_layerEP18llm_graph_input_rsP11ggml_tensorRK11llama_modelRK12llama_ubatchiEUlP12ggml_contextS6_S6_E_NS_9allocatorISF_EEFS6_SE_S6_S6_EE7destroyEv, symObjAddr: 0x48094, symBinAddr: 0xA7708, symSize: 0x4 }
  - { offsetInCU: 0x1089EB, offset: 0x49EBBD, size: 0x8, addend: 0x0, symName: __ZNSt3__110__function6__funcIZNK23llm_graph_context_mamba18build_mamba2_layerEP18llm_graph_input_rsP11ggml_tensorRK11llama_modelRK12llama_ubatchiEUlP12ggml_contextS6_S6_E_NS_9allocatorISF_EEFS6_SE_S6_S6_EE18destroy_deallocateEv, symObjAddr: 0x48098, symBinAddr: 0xA770C, symSize: 0x4 }
  - { offsetInCU: 0x108A20, offset: 0x49EBF2, size: 0x8, addend: 0x0, symName: __ZNSt3__110__function6__funcIZNK23llm_graph_context_mamba18build_mamba2_layerEP18llm_graph_input_rsP11ggml_tensorRK11llama_modelRK12llama_ubatchiEUlP12ggml_contextS6_S6_E_NS_9allocatorISF_EEFS6_SE_S6_S6_EE18destroy_deallocateEv, symObjAddr: 0x48098, symBinAddr: 0xA770C, symSize: 0x4 }
  - { offsetInCU: 0x108A44, offset: 0x49EC16, size: 0x8, addend: 0x0, symName: __ZNSt3__110__function6__funcIZNK23llm_graph_context_mamba18build_mamba2_layerEP18llm_graph_input_rsP11ggml_tensorRK11llama_modelRK12llama_ubatchiEUlP12ggml_contextS6_S6_E_NS_9allocatorISF_EEFS6_SE_S6_S6_EE18destroy_deallocateEv, symObjAddr: 0x48098, symBinAddr: 0xA770C, symSize: 0x4 }
  - { offsetInCU: 0x108A71, offset: 0x49EC43, size: 0x8, addend: 0x0, symName: __ZNSt3__110__function6__funcIZNK23llm_graph_context_mamba18build_mamba2_layerEP18llm_graph_input_rsP11ggml_tensorRK11llama_modelRK12llama_ubatchiEUlP12ggml_contextS6_S6_E_NS_9allocatorISF_EEFS6_SE_S6_S6_EE18destroy_deallocateEv, symObjAddr: 0x48098, symBinAddr: 0xA770C, symSize: 0x4 }
  - { offsetInCU: 0x108A98, offset: 0x49EC6A, size: 0x8, addend: 0x0, symName: __ZNSt3__110__function6__funcIZNK23llm_graph_context_mamba18build_mamba2_layerEP18llm_graph_input_rsP11ggml_tensorRK11llama_modelRK12llama_ubatchiEUlP12ggml_contextS6_S6_E_NS_9allocatorISF_EEFS6_SE_S6_S6_EE18destroy_deallocateEv, symObjAddr: 0x48098, symBinAddr: 0xA770C, symSize: 0x4 }
  - { offsetInCU: 0x108B9A, offset: 0x49ED6C, size: 0x8, addend: 0x0, symName: __ZNSt3__110__function6__funcIZNK23llm_graph_context_mamba18build_mamba2_layerEP18llm_graph_input_rsP11ggml_tensorRK11llama_modelRK12llama_ubatchiEUlP12ggml_contextS6_S6_E_NS_9allocatorISF_EEFS6_SE_S6_S6_EEclEOSE_OS6_SL_, symObjAddr: 0x4809C, symBinAddr: 0xA7710, symSize: 0xA4 }
  - { offsetInCU: 0x108D2B, offset: 0x49EEFD, size: 0x8, addend: 0x0, symName: __ZNKSt3__110__function6__funcIZNK23llm_graph_context_mamba18build_mamba2_layerEP18llm_graph_input_rsP11ggml_tensorRK11llama_modelRK12llama_ubatchiEUlP12ggml_contextS6_S6_E_NS_9allocatorISF_EEFS6_SE_S6_S6_EE6targetERKSt9type_info, symObjAddr: 0x48140, symBinAddr: 0xA77B4, symSize: 0x74 }
  - { offsetInCU: 0x108DB0, offset: 0x49EF82, size: 0x8, addend: 0x0, symName: __ZNKSt3__110__function6__funcIZNK23llm_graph_context_mamba18build_mamba2_layerEP18llm_graph_input_rsP11ggml_tensorRK11llama_modelRK12llama_ubatchiEUlP12ggml_contextS6_S6_E_NS_9allocatorISF_EEFS6_SE_S6_S6_EE11target_typeEv, symObjAddr: 0x481B4, symBinAddr: 0xA7828, symSize: 0xC }
  - { offsetInCU: 0x108DD9, offset: 0x49EFAB, size: 0x8, addend: 0x0, symName: __ZNSt3__110__function6__funcIZN23llm_graph_context_mamba17build_mamba_layerEP18llm_graph_input_rsP11ggml_tensorRK11llama_modelRK12llama_ubatchiEUlP12ggml_contextS6_S6_E_NS_9allocatorISF_EEFS6_SE_S6_S6_EED1Ev, symObjAddr: 0x481C0, symBinAddr: 0xA7834, symSize: 0x4 }
  - { offsetInCU: 0x108E05, offset: 0x49EFD7, size: 0x8, addend: 0x0, symName: __ZNSt3__110__function6__funcIZN23llm_graph_context_mamba17build_mamba_layerEP18llm_graph_input_rsP11ggml_tensorRK11llama_modelRK12llama_ubatchiEUlP12ggml_contextS6_S6_E_NS_9allocatorISF_EEFS6_SE_S6_S6_EED0Ev, symObjAddr: 0x481C4, symBinAddr: 0xA7838, symSize: 0x4 }
  - { offsetInCU: 0x108FE3, offset: 0x49F1B5, size: 0x8, addend: 0x0, symName: __ZNKSt3__110__function6__funcIZN23llm_graph_context_mamba17build_mamba_layerEP18llm_graph_input_rsP11ggml_tensorRK11llama_modelRK12llama_ubatchiEUlP12ggml_contextS6_S6_E_NS_9allocatorISF_EEFS6_SE_S6_S6_EE7__cloneEv, symObjAddr: 0x481C8, symBinAddr: 0xA783C, symSize: 0x54 }
  - { offsetInCU: 0x10930D, offset: 0x49F4DF, size: 0x8, addend: 0x0, symName: __ZNKSt3__110__function6__funcIZN23llm_graph_context_mamba17build_mamba_layerEP18llm_graph_input_rsP11ggml_tensorRK11llama_modelRK12llama_ubatchiEUlP12ggml_contextS6_S6_E_NS_9allocatorISF_EEFS6_SE_S6_S6_EE7__cloneEPNS0_6__baseISI_EE, symObjAddr: 0x4821C, symBinAddr: 0xA7890, symSize: 0x34 }
  - { offsetInCU: 0x109345, offset: 0x49F517, size: 0x8, addend: 0x0, symName: __ZNKSt3__110__function6__funcIZN23llm_graph_context_mamba17build_mamba_layerEP18llm_graph_input_rsP11ggml_tensorRK11llama_modelRK12llama_ubatchiEUlP12ggml_contextS6_S6_E_NS_9allocatorISF_EEFS6_SE_S6_S6_EE7__cloneEPNS0_6__baseISI_EE, symObjAddr: 0x4821C, symBinAddr: 0xA7890, symSize: 0x34 }
  - { offsetInCU: 0x109373, offset: 0x49F545, size: 0x8, addend: 0x0, symName: __ZNKSt3__110__function6__funcIZN23llm_graph_context_mamba17build_mamba_layerEP18llm_graph_input_rsP11ggml_tensorRK11llama_modelRK12llama_ubatchiEUlP12ggml_contextS6_S6_E_NS_9allocatorISF_EEFS6_SE_S6_S6_EE7__cloneEPNS0_6__baseISI_EE, symObjAddr: 0x4821C, symBinAddr: 0xA7890, symSize: 0x34 }
  - { offsetInCU: 0x10948D, offset: 0x49F65F, size: 0x8, addend: 0x0, symName: __ZNSt3__110__function6__funcIZN23llm_graph_context_mamba17build_mamba_layerEP18llm_graph_input_rsP11ggml_tensorRK11llama_modelRK12llama_ubatchiEUlP12ggml_contextS6_S6_E_NS_9allocatorISF_EEFS6_SE_S6_S6_EE7destroyEv, symObjAddr: 0x48250, symBinAddr: 0xA78C4, symSize: 0x4 }
  - { offsetInCU: 0x1094E0, offset: 0x49F6B2, size: 0x8, addend: 0x0, symName: __ZNSt3__110__function6__funcIZN23llm_graph_context_mamba17build_mamba_layerEP18llm_graph_input_rsP11ggml_tensorRK11llama_modelRK12llama_ubatchiEUlP12ggml_contextS6_S6_E_NS_9allocatorISF_EEFS6_SE_S6_S6_EE18destroy_deallocateEv, symObjAddr: 0x48254, symBinAddr: 0xA78C8, symSize: 0x4 }
  - { offsetInCU: 0x109515, offset: 0x49F6E7, size: 0x8, addend: 0x0, symName: __ZNSt3__110__function6__funcIZN23llm_graph_context_mamba17build_mamba_layerEP18llm_graph_input_rsP11ggml_tensorRK11llama_modelRK12llama_ubatchiEUlP12ggml_contextS6_S6_E_NS_9allocatorISF_EEFS6_SE_S6_S6_EE18destroy_deallocateEv, symObjAddr: 0x48254, symBinAddr: 0xA78C8, symSize: 0x4 }
  - { offsetInCU: 0x109539, offset: 0x49F70B, size: 0x8, addend: 0x0, symName: __ZNSt3__110__function6__funcIZN23llm_graph_context_mamba17build_mamba_layerEP18llm_graph_input_rsP11ggml_tensorRK11llama_modelRK12llama_ubatchiEUlP12ggml_contextS6_S6_E_NS_9allocatorISF_EEFS6_SE_S6_S6_EE18destroy_deallocateEv, symObjAddr: 0x48254, symBinAddr: 0xA78C8, symSize: 0x4 }
  - { offsetInCU: 0x109566, offset: 0x49F738, size: 0x8, addend: 0x0, symName: __ZNSt3__110__function6__funcIZN23llm_graph_context_mamba17build_mamba_layerEP18llm_graph_input_rsP11ggml_tensorRK11llama_modelRK12llama_ubatchiEUlP12ggml_contextS6_S6_E_NS_9allocatorISF_EEFS6_SE_S6_S6_EE18destroy_deallocateEv, symObjAddr: 0x48254, symBinAddr: 0xA78C8, symSize: 0x4 }
  - { offsetInCU: 0x10958D, offset: 0x49F75F, size: 0x8, addend: 0x0, symName: __ZNSt3__110__function6__funcIZN23llm_graph_context_mamba17build_mamba_layerEP18llm_graph_input_rsP11ggml_tensorRK11llama_modelRK12llama_ubatchiEUlP12ggml_contextS6_S6_E_NS_9allocatorISF_EEFS6_SE_S6_S6_EE18destroy_deallocateEv, symObjAddr: 0x48254, symBinAddr: 0xA78C8, symSize: 0x4 }
  - { offsetInCU: 0x10968F, offset: 0x49F861, size: 0x8, addend: 0x0, symName: __ZNSt3__110__function6__funcIZN23llm_graph_context_mamba17build_mamba_layerEP18llm_graph_input_rsP11ggml_tensorRK11llama_modelRK12llama_ubatchiEUlP12ggml_contextS6_S6_E_NS_9allocatorISF_EEFS6_SE_S6_S6_EEclEOSE_OS6_SL_, symObjAddr: 0x48258, symBinAddr: 0xA78CC, symSize: 0x98 }
  - { offsetInCU: 0x10981F, offset: 0x49F9F1, size: 0x8, addend: 0x0, symName: __ZNKSt3__110__function6__funcIZN23llm_graph_context_mamba17build_mamba_layerEP18llm_graph_input_rsP11ggml_tensorRK11llama_modelRK12llama_ubatchiEUlP12ggml_contextS6_S6_E_NS_9allocatorISF_EEFS6_SE_S6_S6_EE6targetERKSt9type_info, symObjAddr: 0x482F0, symBinAddr: 0xA7964, symSize: 0x74 }
  - { offsetInCU: 0x1098A4, offset: 0x49FA76, size: 0x8, addend: 0x0, symName: __ZNKSt3__110__function6__funcIZN23llm_graph_context_mamba17build_mamba_layerEP18llm_graph_input_rsP11ggml_tensorRK11llama_modelRK12llama_ubatchiEUlP12ggml_contextS6_S6_E_NS_9allocatorISF_EEFS6_SE_S6_S6_EE11target_typeEv, symObjAddr: 0x48364, symBinAddr: 0xA79D8, symSize: 0xC }
  - { offsetInCU: 0x1098CD, offset: 0x49FA9F, size: 0x8, addend: 0x0, symName: __ZN15llm_build_jambaD1Ev, symObjAddr: 0x48880, symBinAddr: 0xA7EF4, symSize: 0x4 }
  - { offsetInCU: 0x1098F9, offset: 0x49FACB, size: 0x8, addend: 0x0, symName: __ZN15llm_build_jambaD0Ev, symObjAddr: 0x48884, symBinAddr: 0xA7EF8, symSize: 0x4 }
  - { offsetInCU: 0x109925, offset: 0x49FAF7, size: 0x8, addend: 0x0, symName: __ZN16llm_build_xverseD1Ev, symObjAddr: 0x48DC4, symBinAddr: 0xA8438, symSize: 0x4 }
  - { offsetInCU: 0x109951, offset: 0x49FB23, size: 0x8, addend: 0x0, symName: __ZN16llm_build_xverseD0Ev, symObjAddr: 0x48DC8, symBinAddr: 0xA843C, symSize: 0x4 }
  - { offsetInCU: 0x10997D, offset: 0x49FB4F, size: 0x8, addend: 0x0, symName: __ZN19llm_build_command_rD1Ev, symObjAddr: 0x4940C, symBinAddr: 0xA8A80, symSize: 0x4 }
  - { offsetInCU: 0x1099A9, offset: 0x49FB7B, size: 0x8, addend: 0x0, symName: __ZN19llm_build_command_rD0Ev, symObjAddr: 0x49410, symBinAddr: 0xA8A84, symSize: 0x4 }
  - { offsetInCU: 0x1099D5, offset: 0x49FBA7, size: 0x8, addend: 0x0, symName: __ZN22llm_build_cohere2_iswaD1Ev, symObjAddr: 0x49A40, symBinAddr: 0xA90B4, symSize: 0x4 }
  - { offsetInCU: 0x109A01, offset: 0x49FBD3, size: 0x8, addend: 0x0, symName: __ZN22llm_build_cohere2_iswaD0Ev, symObjAddr: 0x49A44, symBinAddr: 0xA90B8, symSize: 0x4 }
  - { offsetInCU: 0x109A2D, offset: 0x49FBFF, size: 0x8, addend: 0x0, symName: __ZN14llm_build_dbrxD1Ev, symObjAddr: 0x49FC0, symBinAddr: 0xA9634, symSize: 0x4 }
  - { offsetInCU: 0x109A59, offset: 0x49FC2B, size: 0x8, addend: 0x0, symName: __ZN14llm_build_dbrxD0Ev, symObjAddr: 0x49FC4, symBinAddr: 0xA9638, symSize: 0x4 }
  - { offsetInCU: 0x109A85, offset: 0x49FC57, size: 0x8, addend: 0x0, symName: __ZN14llm_build_olmoD1Ev, symObjAddr: 0x4A5CC, symBinAddr: 0xA9C40, symSize: 0x4 }
  - { offsetInCU: 0x109AB1, offset: 0x49FC83, size: 0x8, addend: 0x0, symName: __ZN14llm_build_olmoD0Ev, symObjAddr: 0x4A5D0, symBinAddr: 0xA9C44, symSize: 0x4 }
  - { offsetInCU: 0x109ADD, offset: 0x49FCAF, size: 0x8, addend: 0x0, symName: __ZN15llm_build_olmo2D1Ev, symObjAddr: 0x4ABA0, symBinAddr: 0xAA214, symSize: 0x4 }
  - { offsetInCU: 0x109B09, offset: 0x49FCDB, size: 0x8, addend: 0x0, symName: __ZN15llm_build_olmo2D0Ev, symObjAddr: 0x4ABA4, symBinAddr: 0xAA218, symSize: 0x4 }
  - { offsetInCU: 0x109B35, offset: 0x49FD07, size: 0x8, addend: 0x0, symName: __ZN15llm_build_olmoeD1Ev, symObjAddr: 0x4B16C, symBinAddr: 0xAA7E0, symSize: 0x4 }
  - { offsetInCU: 0x109B61, offset: 0x49FD33, size: 0x8, addend: 0x0, symName: __ZN15llm_build_olmoeD0Ev, symObjAddr: 0x4B170, symBinAddr: 0xAA7E4, symSize: 0x4 }
  - { offsetInCU: 0x109B8D, offset: 0x49FD5F, size: 0x8, addend: 0x0, symName: __ZN17llm_build_openelmD1Ev, symObjAddr: 0x4B764, symBinAddr: 0xAADD8, symSize: 0x4 }
  - { offsetInCU: 0x109BB9, offset: 0x49FD8B, size: 0x8, addend: 0x0, symName: __ZN17llm_build_openelmD0Ev, symObjAddr: 0x4B768, symBinAddr: 0xAADDC, symSize: 0x4 }
  - { offsetInCU: 0x109BE5, offset: 0x49FDB7, size: 0x8, addend: 0x0, symName: __ZN17llm_build_gptneoxD1Ev, symObjAddr: 0x4BD80, symBinAddr: 0xAB3F4, symSize: 0x4 }
  - { offsetInCU: 0x109C11, offset: 0x49FDE3, size: 0x8, addend: 0x0, symName: __ZN17llm_build_gptneoxD0Ev, symObjAddr: 0x4BD84, symBinAddr: 0xAB3F8, symSize: 0x4 }
  - { offsetInCU: 0x109C3D, offset: 0x49FE0F, size: 0x8, addend: 0x0, symName: __ZN16llm_build_arcticD1Ev, symObjAddr: 0x4C3A0, symBinAddr: 0xABA14, symSize: 0x4 }
  - { offsetInCU: 0x109C69, offset: 0x49FE3B, size: 0x8, addend: 0x0, symName: __ZN16llm_build_arcticD0Ev, symObjAddr: 0x4C3A4, symBinAddr: 0xABA18, symSize: 0x4 }
  - { offsetInCU: 0x109C95, offset: 0x49FE67, size: 0x8, addend: 0x0, symName: __ZN18llm_build_deepseekD1Ev, symObjAddr: 0x4CAC4, symBinAddr: 0xAC138, symSize: 0x4 }
  - { offsetInCU: 0x109CC1, offset: 0x49FE93, size: 0x8, addend: 0x0, symName: __ZN18llm_build_deepseekD0Ev, symObjAddr: 0x4CAC8, symBinAddr: 0xAC13C, symSize: 0x4 }
  - { offsetInCU: 0x109CED, offset: 0x49FEBF, size: 0x8, addend: 0x0, symName: __ZN19llm_build_deepseek2D1Ev, symObjAddr: 0x4D6B0, symBinAddr: 0xACD24, symSize: 0x4 }
  - { offsetInCU: 0x109D19, offset: 0x49FEEB, size: 0x8, addend: 0x0, symName: __ZN19llm_build_deepseek2D0Ev, symObjAddr: 0x4D6B4, symBinAddr: 0xACD28, symSize: 0x4 }
  - { offsetInCU: 0x109D45, offset: 0x49FF17, size: 0x8, addend: 0x0, symName: __ZN17llm_build_chatglmD1Ev, symObjAddr: 0x4DCE0, symBinAddr: 0xAD354, symSize: 0x4 }
  - { offsetInCU: 0x109D71, offset: 0x49FF43, size: 0x8, addend: 0x0, symName: __ZN17llm_build_chatglmD0Ev, symObjAddr: 0x4DCE4, symBinAddr: 0xAD358, symSize: 0x4 }
  - { offsetInCU: 0x109D9D, offset: 0x49FF6F, size: 0x8, addend: 0x0, symName: __ZN14llm_build_glm4D1Ev, symObjAddr: 0x4E394, symBinAddr: 0xADA08, symSize: 0x4 }
  - { offsetInCU: 0x109DC9, offset: 0x49FF9B, size: 0x8, addend: 0x0, symName: __ZN14llm_build_glm4D0Ev, symObjAddr: 0x4E398, symBinAddr: 0xADA0C, symSize: 0x4 }
  - { offsetInCU: 0x109DF5, offset: 0x49FFC7, size: 0x8, addend: 0x0, symName: __ZN18llm_build_glm4_moeD1Ev, symObjAddr: 0x4EA84, symBinAddr: 0xAE0F8, symSize: 0x4 }
  - { offsetInCU: 0x109E21, offset: 0x49FFF3, size: 0x8, addend: 0x0, symName: __ZN18llm_build_glm4_moeD0Ev, symObjAddr: 0x4EA88, symBinAddr: 0xAE0FC, symSize: 0x4 }
  - { offsetInCU: 0x109E4D, offset: 0x4A001F, size: 0x8, addend: 0x0, symName: __ZN16llm_build_bitnetD1Ev, symObjAddr: 0x4F200, symBinAddr: 0xAE874, symSize: 0x4 }
  - { offsetInCU: 0x109E79, offset: 0x4A004B, size: 0x8, addend: 0x0, symName: __ZN16llm_build_bitnetD0Ev, symObjAddr: 0x4F204, symBinAddr: 0xAE878, symSize: 0x4 }
  - { offsetInCU: 0x109EA5, offset: 0x4A0077, size: 0x8, addend: 0x0, symName: __ZN16llm_build_t5_encD1Ev, symObjAddr: 0x4F684, symBinAddr: 0xAECF8, symSize: 0x4 }
  - { offsetInCU: 0x109ED1, offset: 0x4A00A3, size: 0x8, addend: 0x0, symName: __ZN16llm_build_t5_encD0Ev, symObjAddr: 0x4F688, symBinAddr: 0xAECFC, symSize: 0x4 }
  - { offsetInCU: 0x109EFD, offset: 0x4A00CF, size: 0x8, addend: 0x0, symName: __ZN16llm_build_t5_decD1Ev, symObjAddr: 0x4FD30, symBinAddr: 0xAF3A4, symSize: 0x4 }
  - { offsetInCU: 0x109F29, offset: 0x4A00FB, size: 0x8, addend: 0x0, symName: __ZN16llm_build_t5_decD0Ev, symObjAddr: 0x4FD34, symBinAddr: 0xAF3A8, symSize: 0x4 }
  - { offsetInCU: 0x109F55, offset: 0x4A0127, size: 0x8, addend: 0x0, symName: __ZN14llm_build_jaisD1Ev, symObjAddr: 0x50240, symBinAddr: 0xAF8B4, symSize: 0x4 }
  - { offsetInCU: 0x109F81, offset: 0x4A0153, size: 0x8, addend: 0x0, symName: __ZN14llm_build_jaisD0Ev, symObjAddr: 0x50244, symBinAddr: 0xAF8B8, symSize: 0x4 }
  - { offsetInCU: 0x109FAD, offset: 0x4A017F, size: 0x8, addend: 0x0, symName: __ZN18llm_build_nemotronD1Ev, symObjAddr: 0x50814, symBinAddr: 0xAFE88, symSize: 0x4 }
  - { offsetInCU: 0x109FD9, offset: 0x4A01AB, size: 0x8, addend: 0x0, symName: __ZN18llm_build_nemotronD0Ev, symObjAddr: 0x50818, symBinAddr: 0xAFE8C, symSize: 0x4 }
  - { offsetInCU: 0x10A005, offset: 0x4A01D7, size: 0x8, addend: 0x0, symName: __ZN16llm_build_exaoneD1Ev, symObjAddr: 0x50E90, symBinAddr: 0xB0504, symSize: 0x4 }
  - { offsetInCU: 0x10A031, offset: 0x4A0203, size: 0x8, addend: 0x0, symName: __ZN16llm_build_exaoneD0Ev, symObjAddr: 0x50E94, symBinAddr: 0xB0508, symSize: 0x4 }
  - { offsetInCU: 0x10A05D, offset: 0x4A022F, size: 0x8, addend: 0x0, symName: __ZN17llm_build_exaone4ILb1EED1Ev, symObjAddr: 0x51504, symBinAddr: 0xB0B78, symSize: 0x4 }
  - { offsetInCU: 0x10A089, offset: 0x4A025B, size: 0x8, addend: 0x0, symName: __ZN17llm_build_exaone4ILb1EED0Ev, symObjAddr: 0x51508, symBinAddr: 0xB0B7C, symSize: 0x4 }
  - { offsetInCU: 0x10A0B5, offset: 0x4A0287, size: 0x8, addend: 0x0, symName: __ZN17llm_build_exaone4ILb0EED1Ev, symObjAddr: 0x51B78, symBinAddr: 0xB11EC, symSize: 0x4 }
  - { offsetInCU: 0x10A0E1, offset: 0x4A02B3, size: 0x8, addend: 0x0, symName: __ZN17llm_build_exaone4ILb0EED0Ev, symObjAddr: 0x51B7C, symBinAddr: 0xB11F0, symSize: 0x4 }
  - { offsetInCU: 0x10A144, offset: 0x4A0316, size: 0x8, addend: 0x0, symName: __ZNK20llm_build_rwkv6_base20build_rwkv6_time_mixEP18llm_graph_input_rsP11ggml_tensorS3_RK12llama_ubatchi, symObjAddr: 0x5211C, symBinAddr: 0xB1790, symSize: 0xA7C }
  - { offsetInCU: 0x10AF25, offset: 0x4A10F7, size: 0x8, addend: 0x0, symName: __ZNK20llm_build_rwkv6_base23build_rwkv6_channel_mixEPK11llama_layerP11ggml_tensorS4_8llm_arch, symObjAddr: 0x52B98, symBinAddr: 0xB220C, symSize: 0x124 }
  - { offsetInCU: 0x10B0CE, offset: 0x4A12A0, size: 0x8, addend: 0x0, symName: __ZN15llm_build_rwkv6D1Ev, symObjAddr: 0x52CBC, symBinAddr: 0xB2330, symSize: 0x4 }
  - { offsetInCU: 0x10B1B2, offset: 0x4A1384, size: 0x8, addend: 0x0, symName: __ZN15llm_build_rwkv6D1Ev, symObjAddr: 0x52CBC, symBinAddr: 0xB2330, symSize: 0x4 }
  - { offsetInCU: 0x10B1DE, offset: 0x4A13B0, size: 0x8, addend: 0x0, symName: __ZN15llm_build_rwkv6D0Ev, symObjAddr: 0x52CC0, symBinAddr: 0xB2334, symSize: 0x4 }
  - { offsetInCU: 0x10B20A, offset: 0x4A13DC, size: 0x8, addend: 0x0, symName: __ZN20llm_build_rwkv6qwen2D1Ev, symObjAddr: 0x53108, symBinAddr: 0xB277C, symSize: 0x4 }
  - { offsetInCU: 0x10B236, offset: 0x4A1408, size: 0x8, addend: 0x0, symName: __ZN20llm_build_rwkv6qwen2D0Ev, symObjAddr: 0x5310C, symBinAddr: 0xB2780, symSize: 0x4 }
  - { offsetInCU: 0x10B30A, offset: 0x4A14DC, size: 0x8, addend: 0x0, symName: __ZNK20llm_build_rwkv7_base20build_rwkv7_time_mixEP18llm_graph_input_rsP11ggml_tensorS3_RS3_RK12llama_ubatchi, symObjAddr: 0x536D0, symBinAddr: 0xB2D44, symSize: 0x8C0 }
  - { offsetInCU: 0x10BF8D, offset: 0x4A215F, size: 0x8, addend: 0x0, symName: __ZN15llm_build_rwkv7D1Ev, symObjAddr: 0x53F90, symBinAddr: 0xB3604, symSize: 0x4 }
  - { offsetInCU: 0x10BFB9, offset: 0x4A218B, size: 0x8, addend: 0x0, symName: __ZN15llm_build_rwkv7D0Ev, symObjAddr: 0x53F94, symBinAddr: 0xB3608, symSize: 0x4 }
  - { offsetInCU: 0x10BFE5, offset: 0x4A21B7, size: 0x8, addend: 0x0, symName: __ZN16llm_build_arwkv7D1Ev, symObjAddr: 0x543E4, symBinAddr: 0xB3A58, symSize: 0x4 }
  - { offsetInCU: 0x10C011, offset: 0x4A21E3, size: 0x8, addend: 0x0, symName: __ZN16llm_build_arwkv7D0Ev, symObjAddr: 0x543E8, symBinAddr: 0xB3A5C, symSize: 0x4 }
  - { offsetInCU: 0x10C03D, offset: 0x4A220F, size: 0x8, addend: 0x0, symName: __ZN17llm_build_granite15build_layer_ffnEP11ggml_tensorS1_RK11llama_modeli, symObjAddr: 0x54AB0, symBinAddr: 0xB4124, symSize: 0x290 }
  - { offsetInCU: 0x10C194, offset: 0x4A2366, size: 0x8, addend: 0x0, symName: __ZN17llm_build_granite21build_attention_layerEP11ggml_tensorS1_P31llm_graph_input_attn_kv_unifiedRK11llama_modelxi, symObjAddr: 0x54714, symBinAddr: 0xB3D88, symSize: 0x39C }
  - { offsetInCU: 0x10C457, offset: 0x4A2629, size: 0x8, addend: 0x0, symName: __ZN17llm_build_graniteD1Ev, symObjAddr: 0x54D40, symBinAddr: 0xB43B4, symSize: 0x4 }
  - { offsetInCU: 0x10C483, offset: 0x4A2655, size: 0x8, addend: 0x0, symName: __ZN17llm_build_graniteD0Ev, symObjAddr: 0x54D44, symBinAddr: 0xB43B8, symSize: 0x4 }
  - { offsetInCU: 0x10C4AF, offset: 0x4A2681, size: 0x8, addend: 0x0, symName: __ZN24llm_build_granite_hybrid15build_layer_ffnEP11ggml_tensorS1_RK11llama_modeli, symObjAddr: 0x553B0, symBinAddr: 0xB4A24, symSize: 0x290 }
  - { offsetInCU: 0x10C606, offset: 0x4A27D8, size: 0x8, addend: 0x0, symName: __ZN24llm_build_granite_hybrid21build_attention_layerEP11ggml_tensorS1_P31llm_graph_input_attn_kv_unifiedRK11llama_modelxi, symObjAddr: 0x55014, symBinAddr: 0xB4688, symSize: 0x39C }
  - { offsetInCU: 0x10C8C9, offset: 0x4A2A9B, size: 0x8, addend: 0x0, symName: __ZN24llm_build_granite_hybridD1Ev, symObjAddr: 0x55640, symBinAddr: 0xB4CB4, symSize: 0x4 }
  - { offsetInCU: 0x10C8F5, offset: 0x4A2AC7, size: 0x8, addend: 0x0, symName: __ZN24llm_build_granite_hybridD0Ev, symObjAddr: 0x55644, symBinAddr: 0xB4CB8, symSize: 0x4 }
  - { offsetInCU: 0x10C943, offset: 0x4A2B15, size: 0x8, addend: 0x0, symName: __ZN19llm_build_chameleonD1Ev, symObjAddr: 0x55EA4, symBinAddr: 0xB5518, symSize: 0x4 }
  - { offsetInCU: 0x10C96F, offset: 0x4A2B41, size: 0x8, addend: 0x0, symName: __ZN19llm_build_chameleonD0Ev, symObjAddr: 0x55EA8, symBinAddr: 0xB551C, symSize: 0x4 }
  - { offsetInCU: 0x10CA10, offset: 0x4A2BE2, size: 0x8, addend: 0x0, symName: __ZN26llm_build_wavtokenizer_decD1Ev, symObjAddr: 0x56428, symBinAddr: 0xB5A9C, symSize: 0x4 }
  - { offsetInCU: 0x10CA3C, offset: 0x4A2C0E, size: 0x8, addend: 0x0, symName: __ZN26llm_build_wavtokenizer_decD0Ev, symObjAddr: 0x5642C, symBinAddr: 0xB5AA0, symSize: 0x4 }
  - { offsetInCU: 0x10CA68, offset: 0x4A2C3A, size: 0x8, addend: 0x0, symName: __ZN13llm_build_plmD1Ev, symObjAddr: 0x56CB8, symBinAddr: 0xB632C, symSize: 0x4 }
  - { offsetInCU: 0x10CA94, offset: 0x4A2C66, size: 0x8, addend: 0x0, symName: __ZN13llm_build_plmD0Ev, symObjAddr: 0x56CBC, symBinAddr: 0xB6330, symSize: 0x4 }
  - { offsetInCU: 0x10CAC0, offset: 0x4A2C92, size: 0x8, addend: 0x0, symName: __ZN20llm_build_bailingmoeD1Ev, symObjAddr: 0x57318, symBinAddr: 0xB698C, symSize: 0x4 }
  - { offsetInCU: 0x10CAEC, offset: 0x4A2CBE, size: 0x8, addend: 0x0, symName: __ZN20llm_build_bailingmoeD0Ev, symObjAddr: 0x5731C, symBinAddr: 0xB6990, symSize: 0x4 }
  - { offsetInCU: 0x10CB18, offset: 0x4A2CEA, size: 0x8, addend: 0x0, symName: __ZN15llm_build_dots1D1Ev, symObjAddr: 0x579C8, symBinAddr: 0xB703C, symSize: 0x4 }
  - { offsetInCU: 0x10CB44, offset: 0x4A2D16, size: 0x8, addend: 0x0, symName: __ZN15llm_build_dots1D0Ev, symObjAddr: 0x579CC, symBinAddr: 0xB7040, symSize: 0x4 }
  - { offsetInCU: 0x10CB70, offset: 0x4A2D42, size: 0x8, addend: 0x0, symName: __ZN15llm_build_arceeD1Ev, symObjAddr: 0x58068, symBinAddr: 0xB76DC, symSize: 0x4 }
  - { offsetInCU: 0x10CB9C, offset: 0x4A2D6E, size: 0x8, addend: 0x0, symName: __ZN15llm_build_arceeD0Ev, symObjAddr: 0x5806C, symBinAddr: 0xB76E0, symSize: 0x4 }
  - { offsetInCU: 0x10CBC8, offset: 0x4A2D9A, size: 0x8, addend: 0x0, symName: __ZN18llm_build_ernie4_5D1Ev, symObjAddr: 0x5864C, symBinAddr: 0xB7CC0, symSize: 0x4 }
  - { offsetInCU: 0x10CBF4, offset: 0x4A2DC6, size: 0x8, addend: 0x0, symName: __ZN18llm_build_ernie4_5D0Ev, symObjAddr: 0x58650, symBinAddr: 0xB7CC4, symSize: 0x4 }
  - { offsetInCU: 0x10CC20, offset: 0x4A2DF2, size: 0x8, addend: 0x0, symName: __ZN22llm_build_ernie4_5_moeD1Ev, symObjAddr: 0x58DF4, symBinAddr: 0xB8468, symSize: 0x4 }
  - { offsetInCU: 0x10CC4C, offset: 0x4A2E1E, size: 0x8, addend: 0x0, symName: __ZN22llm_build_ernie4_5_moeD0Ev, symObjAddr: 0x58DF8, symBinAddr: 0xB846C, symSize: 0x4 }
  - { offsetInCU: 0x10CC78, offset: 0x4A2E4A, size: 0x8, addend: 0x0, symName: __ZN21llm_build_hunyuan_moeD1Ev, symObjAddr: 0x59570, symBinAddr: 0xB8BE4, symSize: 0x4 }
  - { offsetInCU: 0x10CCA4, offset: 0x4A2E76, size: 0x8, addend: 0x0, symName: __ZN21llm_build_hunyuan_moeD0Ev, symObjAddr: 0x59574, symBinAddr: 0xB8BE8, symSize: 0x4 }
  - { offsetInCU: 0x10CCD0, offset: 0x4A2EA2, size: 0x8, addend: 0x0, symName: __ZN23llm_build_hunyuan_denseD1Ev, symObjAddr: 0x59C84, symBinAddr: 0xB92F8, symSize: 0x4 }
  - { offsetInCU: 0x10CCFC, offset: 0x4A2ECE, size: 0x8, addend: 0x0, symName: __ZN23llm_build_hunyuan_denseD0Ev, symObjAddr: 0x59C88, symBinAddr: 0xB92FC, symSize: 0x4 }
  - { offsetInCU: 0x10CD28, offset: 0x4A2EFA, size: 0x8, addend: 0x0, symName: __ZN17llm_build_smollm3D1Ev, symObjAddr: 0x5A2F4, symBinAddr: 0xB9968, symSize: 0x4 }
  - { offsetInCU: 0x10CD54, offset: 0x4A2F26, size: 0x8, addend: 0x0, symName: __ZN17llm_build_smollm3D0Ev, symObjAddr: 0x5A2F8, symBinAddr: 0xB996C, symSize: 0x4 }
  - { offsetInCU: 0x10CD80, offset: 0x4A2F52, size: 0x8, addend: 0x0, symName: __ZN25llm_build_openai_moe_iswaD1Ev, symObjAddr: 0x5A8E4, symBinAddr: 0xB9F58, symSize: 0x4 }
  - { offsetInCU: 0x10CDAC, offset: 0x4A2F7E, size: 0x8, addend: 0x0, symName: __ZN25llm_build_openai_moe_iswaD0Ev, symObjAddr: 0x5A8E8, symBinAddr: 0xB9F5C, symSize: 0x4 }
  - { offsetInCU: 0x10CDD8, offset: 0x4A2FAA, size: 0x8, addend: 0x0, symName: __ZN19llm_build_falcon_h1D1Ev, symObjAddr: 0x5AE98, symBinAddr: 0xBA50C, symSize: 0x4 }
  - { offsetInCU: 0x10CE04, offset: 0x4A2FD6, size: 0x8, addend: 0x0, symName: __ZN19llm_build_falcon_h1D0Ev, symObjAddr: 0x5AE9C, symBinAddr: 0xBA510, symSize: 0x4 }
  - { offsetInCU: 0x10CE30, offset: 0x4A3002, size: 0x8, addend: 0x0, symName: __ZNK14llm_build_lfm218build_feed_forwardEP11ggml_tensori, symObjAddr: 0x5B970, symBinAddr: 0xBAFE4, symSize: 0x158 }
  - { offsetInCU: 0x10CEE6, offset: 0x4A30B8, size: 0x8, addend: 0x0, symName: __ZN14llm_build_lfm2D1Ev, symObjAddr: 0x5BAC8, symBinAddr: 0xBB13C, symSize: 0x4 }
  - { offsetInCU: 0x10CEF9, offset: 0x4A30CB, size: 0x8, addend: 0x0, symName: __ZN14llm_build_lfm221build_shortconv_blockEP11ggml_tensorP18llm_graph_input_rsi, symObjAddr: 0x5B10C, symBinAddr: 0xBA780, symSize: 0x564 }
  - { offsetInCU: 0x10D6B7, offset: 0x4A3889, size: 0x8, addend: 0x0, symName: __ZNK14llm_build_lfm216build_attn_blockEP11ggml_tensorS1_P31llm_graph_input_attn_kv_unifiedi, symObjAddr: 0x5B670, symBinAddr: 0xBACE4, symSize: 0x300 }
  - { offsetInCU: 0x10D8CE, offset: 0x4A3AA0, size: 0x8, addend: 0x0, symName: __ZNK14llm_build_lfm218build_feed_forwardEP11ggml_tensori, symObjAddr: 0x5B970, symBinAddr: 0xBAFE4, symSize: 0x158 }
  - { offsetInCU: 0x10D8F9, offset: 0x4A3ACB, size: 0x8, addend: 0x0, symName: __ZN14llm_build_lfm2D1Ev, symObjAddr: 0x5BAC8, symBinAddr: 0xBB13C, symSize: 0x4 }
  - { offsetInCU: 0x10D925, offset: 0x4A3AF7, size: 0x8, addend: 0x0, symName: __ZN14llm_build_lfm2D0Ev, symObjAddr: 0x5BACC, symBinAddr: 0xBB140, symSize: 0x4 }
  - { offsetInCU: 0x10D951, offset: 0x4A3B23, size: 0x8, addend: 0x0, symName: __ZN22llm_build_smallthinkerILb1EED1Ev, symObjAddr: 0x5C06C, symBinAddr: 0xBB6E0, symSize: 0x4 }
  - { offsetInCU: 0x10D97D, offset: 0x4A3B4F, size: 0x8, addend: 0x0, symName: __ZN22llm_build_smallthinkerILb1EED0Ev, symObjAddr: 0x5C070, symBinAddr: 0xBB6E4, symSize: 0x4 }
  - { offsetInCU: 0x10D9A9, offset: 0x4A3B7B, size: 0x8, addend: 0x0, symName: __ZN22llm_build_smallthinkerILb0EED1Ev, symObjAddr: 0x5C610, symBinAddr: 0xBBC84, symSize: 0x4 }
  - { offsetInCU: 0x10D9D5, offset: 0x4A3BA7, size: 0x8, addend: 0x0, symName: __ZN22llm_build_smallthinkerILb0EED0Ev, symObjAddr: 0x5C614, symBinAddr: 0xBBC88, symSize: 0x4 }
  - { offsetInCU: 0x46, offset: 0x4A4235, size: 0x8, addend: 0x0, symName: __ZL25llama_model_quantize_implRKNSt3__112basic_stringIcNS_11char_traitsIcEENS_9allocatorIcEEEES7_PK27llama_model_quantize_params, symObjAddr: 0x24C, symBinAddr: 0xBC1AC, symSize: 0x6890 }
  - { offsetInCU: 0x3AA1E, offset: 0x4DEC0D, size: 0x8, addend: 0x0, symName: '__ZNSt3__111__introsortINS_17_ClassicAlgPolicyERZL25llama_model_quantize_implRKNS_12basic_stringIcNS_11char_traitsIcEENS_9allocatorIcEEEES9_PK27llama_model_quantize_paramsE3$_2PPKN18llama_model_loader19llama_tensor_weightELb0EEEvT1_SK_T0_NS_15iterator_traitsISK_E15difference_typeEb', symObjAddr: 0x13840, symBinAddr: 0xC3524, symSize: 0x990 }
  - { offsetInCU: 0x3B726, offset: 0x4DF915, size: 0x8, addend: 0x0, symName: '__ZNSt3__127__insertion_sort_incompleteB8ue170006INS_17_ClassicAlgPolicyERZL25llama_model_quantize_implRKNS_12basic_stringIcNS_11char_traitsIcEENS_9allocatorIcEEEES9_PK27llama_model_quantize_paramsE3$_2PPKN18llama_model_loader19llama_tensor_weightEEEbT1_SK_T0_', symObjAddr: 0x14440, symBinAddr: 0xC4124, symSize: 0x298 }
  - { offsetInCU: 0x5298E, offset: 0x4F6B7D, size: 0x8, addend: 0x0, symName: '__ZNSt3__17__sort3B8ue170006INS_17_ClassicAlgPolicyERZL25llama_model_quantize_implRKNS_12basic_stringIcNS_11char_traitsIcEENS_9allocatorIcEEEES9_PK27llama_model_quantize_paramsE3$_2PPKN18llama_model_loader19llama_tensor_weightEEEjT1_SK_SK_T0_', symObjAddr: 0x14360, symBinAddr: 0xC4044, symSize: 0xE0 }
  - { offsetInCU: 0x52CC2, offset: 0x4F6EB1, size: 0x8, addend: 0x0, symName: '__ZNSt3__124__sort5_maybe_branchlessB8ue170006INS_17_ClassicAlgPolicyERZL25llama_model_quantize_implRKNS_12basic_stringIcNS_11char_traitsIcEENS_9allocatorIcEEEES9_PK27llama_model_quantize_paramsE3$_2PPKN18llama_model_loader19llama_tensor_weightEEENS_9enable_ifIXntsr21__use_branchless_sortIT0_T1_EE5valueEvE4typeESM_SM_SM_SM_SM_SL_', symObjAddr: 0x141D0, symBinAddr: 0xC3EB4, symSize: 0x190 }
  - { offsetInCU: 0x53AF5, offset: 0x4F7CE4, size: 0x8, addend: 0x0, symName: '__ZNSt3__114__thread_proxyB8ue170006INS_5tupleIJNS_10unique_ptrINS_15__thread_structENS_14default_deleteIS3_EEEEZL28llama_tensor_dequantize_implP11ggml_tensorRNS_6vectorI7no_initIfENS_9allocatorISB_EEEERNS9_INS_6threadENSC_ISG_EEEEmiE3$_09ggml_typePhPfmEEEEEPvSP_', symObjAddr: 0x18A70, symBinAddr: 0xC4A30, symSize: 0xB4 }
  - { offsetInCU: 0x53F2E, offset: 0x4F811D, size: 0x8, addend: 0x0, symName: '__ZNSt3__114__thread_proxyB8ue170006INS_5tupleIJNS_10unique_ptrINS_15__thread_structENS_14default_deleteIS3_EEEEZL26llama_tensor_quantize_impl9ggml_typePKfPvxxxS9_RNS_6vectorINS_6threadENS_9allocatorISC_EEEEiE3$_1EEEEESA_SA_', symObjAddr: 0x18C6C, symBinAddr: 0xC4C2C, symSize: 0x78 }
  - { offsetInCU: 0x59D4A, offset: 0x4FDF39, size: 0x8, addend: 0x0, symName: _llama_model_quantize_default_params, symObjAddr: 0x0, symBinAddr: 0xBBF60, symSize: 0x30 }
  - { offsetInCU: 0x5A039, offset: 0x4FE228, size: 0x8, addend: 0x0, symName: _llama_model_quantize, symObjAddr: 0x30, symBinAddr: 0xBBF90, symSize: 0x21C }
  - { offsetInCU: 0x5AC58, offset: 0x4FEE47, size: 0x8, addend: 0x0, symName: __ZNSt3__111basic_regexIcNS_12regex_traitsIcEEEC2B8ue170006EPKcNS_15regex_constants18syntax_option_typeE, symObjAddr: 0x77D0, symBinAddr: 0xC3464, symSize: 0xC0 }
  - { offsetInCU: 0x61EE1, offset: 0x5060D0, size: 0x8, addend: 0x0, symName: __ZNSt3__16vectorIiNS_9allocatorIiEEE18__assign_with_sizeB8ue170006IPiS5_EEvT_T0_l, symObjAddr: 0x75B4, symBinAddr: 0xC330C, symSize: 0x144 }
  - { offsetInCU: 0x6318D, offset: 0x50737C, size: 0x8, addend: 0x0, symName: __ZNSt3__111basic_regexIcNS_12regex_traitsIcEEEC2B8ue170006EPKcNS_15regex_constants18syntax_option_typeE, symObjAddr: 0x77D0, symBinAddr: 0xC3464, symSize: 0xC0 }
  - { offsetInCU: 0x6334C, offset: 0x50753B, size: 0x8, addend: 0x0, symName: __ZNSt3__16vectorINS_6threadENS_9allocatorIS1_EEE7reserveEm, symObjAddr: 0x6BDC, symBinAddr: 0xC2A3C, symSize: 0xD4 }
  - { offsetInCU: 0x6373F, offset: 0x50792E, size: 0x8, addend: 0x0, symName: __ZNSt3__16vectorINS_10unique_ptrI12gguf_context20gguf_context_deleterEENS_9allocatorIS4_EEEC1Em, symObjAddr: 0x6CB0, symBinAddr: 0xC2B10, symSize: 0xCC }
  - { offsetInCU: 0x63751, offset: 0x507940, size: 0x8, addend: 0x0, symName: __ZNSt3__16vectorINS_10unique_ptrI12gguf_context20gguf_context_deleterEENS_9allocatorIS4_EEEC1Em, symObjAddr: 0x6CB0, symBinAddr: 0xC2B10, symSize: 0xCC }
  - { offsetInCU: 0x63BED, offset: 0x507DDC, size: 0x8, addend: 0x0, symName: '__ZZL25llama_model_quantize_implRKNSt3__112basic_stringIcNS_11char_traitsIcEENS_9allocatorIcEEEES7_PK27llama_model_quantize_paramsENK3$_4clEi', symObjAddr: 0x6D7C, symBinAddr: 0xC2BDC, symSize: 0x414 }
  - { offsetInCU: 0x64EE5, offset: 0x5090D4, size: 0x8, addend: 0x0, symName: '__ZZL25llama_model_quantize_implRKNSt3__112basic_stringIcNS_11char_traitsIcEENS_9allocatorIcEEEES7_PK27llama_model_quantize_paramsENK3$_3clEv', symObjAddr: 0x7190, symBinAddr: 0xC2FF0, symSize: 0x1FC }
  - { offsetInCU: 0x65875, offset: 0x509A64, size: 0x8, addend: 0x0, symName: '__ZZL21llama_tensor_get_typeR19quantize_state_impl9ggml_typePK11ggml_tensor11llama_ftypeENK3$_6clEiiPKc', symObjAddr: 0x1483C, symBinAddr: 0xC44F8, symSize: 0x164 }
  - { offsetInCU: 0x65B0B, offset: 0x509CFA, size: 0x8, addend: 0x0, symName: __ZNKSt3__112__hash_tableINS_17__hash_value_typeINS_12basic_stringIcNS_11char_traitsIcEENS_9allocatorIcEEEENS_6vectorIfNS5_IfEEEEEENS_22__unordered_map_hasherIS7_SB_NS_4hashIS7_EENS_8equal_toIS7_EELb1EEENS_21__unordered_map_equalIS7_SB_SG_SE_Lb1EEENS5_ISB_EEE4findIS7_EENS_21__hash_const_iteratorIPNS_11__hash_nodeISB_PvEEEERKT_, symObjAddr: 0x18200, symBinAddr: 0xC465C, symSize: 0x23C }
  - { offsetInCU: 0x65D95, offset: 0x509F84, size: 0x8, addend: 0x0, symName: __ZNSt3__16vectorI7no_initIfENS_9allocatorIS2_EEE8__appendEm, symObjAddr: 0x188D8, symBinAddr: 0xC4898, symSize: 0x184 }
  - { offsetInCU: 0x66168, offset: 0x50A357, size: 0x8, addend: 0x0, symName: __ZNKSt3__16vectorI7no_initIfENS_9allocatorIS2_EEE20__throw_length_errorB8ue170006Ev, symObjAddr: 0x18A5C, symBinAddr: 0xC4A1C, symSize: 0x14 }
  - { offsetInCU: 0x662E3, offset: 0x50A4D2, size: 0x8, addend: 0x0, symName: __ZNSt3__16__treeINS_12__value_typeIiNS_12basic_stringIcNS_11char_traitsIcEENS_9allocatorIcEEEEEENS_19__map_value_compareIiS8_NS_4lessIiEELb1EEENS5_IS8_EEE7destroyEPNS_11__tree_nodeIS8_PvEE, symObjAddr: 0x18D40, symBinAddr: 0xC4CEC, symSize: 0x60 }
  - { offsetInCU: 0x66553, offset: 0x50A742, size: 0x8, addend: 0x0, symName: __ZN18llama_model_loaderD2Ev, symObjAddr: 0x18DA0, symBinAddr: 0xC4D4C, symSize: 0x1AC }
  - { offsetInCU: 0x67373, offset: 0x50B562, size: 0x8, addend: 0x0, symName: __ZNKSt3__16vectorINS_6threadENS_9allocatorIS1_EEE20__throw_length_errorB8ue170006Ev, symObjAddr: 0x146D8, symBinAddr: 0xC43BC, symSize: 0x14 }
  - { offsetInCU: 0x6739C, offset: 0x50B58B, size: 0x8, addend: 0x0, symName: __ZNKSt3__16vectorINS_10unique_ptrI12gguf_context20gguf_context_deleterEENS_9allocatorIS4_EEE20__throw_length_errorB8ue170006Ev, symObjAddr: 0x146EC, symBinAddr: 0xC43D0, symSize: 0x14 }
  - { offsetInCU: 0x673BF, offset: 0x50B5AE, size: 0x8, addend: 0x0, symName: __ZNSt3__16__treeINS_12__value_typeIiNS_12basic_stringIcNS_11char_traitsIcEENS_9allocatorIcEEEEEENS_19__map_value_compareIiS8_NS_4lessIiEELb1EEENS5_IS8_EEE7destroyEPNS_11__tree_nodeIS8_PvEE, symObjAddr: 0x18D40, symBinAddr: 0xC4CEC, symSize: 0x60 }
  - { offsetInCU: 0x673E5, offset: 0x50B5D4, size: 0x8, addend: 0x0, symName: __ZNKSt3__16vectorIPKN18llama_model_loader19llama_tensor_weightENS_9allocatorIS4_EEE20__throw_length_errorB8ue170006Ev, symObjAddr: 0x77A8, symBinAddr: 0xC3450, symSize: 0x14 }
  - { offsetInCU: 0x67431, offset: 0x50B620, size: 0x8, addend: 0x0, symName: '__ZZL21llama_tensor_get_typeR19quantize_state_impl9ggml_typePK11ggml_tensor11llama_ftypeENK3$_6clEiiPKc', symObjAddr: 0x1483C, symBinAddr: 0xC44F8, symSize: 0x164 }
  - { offsetInCU: 0x674E6, offset: 0x50B6D5, size: 0x8, addend: 0x0, symName: __ZNSt3__114basic_ofstreamIcNS_11char_traitsIcEEED1Ev, symObjAddr: 0x73EC, symBinAddr: 0xC31EC, symSize: 0x58 }
  - { offsetInCU: 0x6752E, offset: 0x50B71D, size: 0x8, addend: 0x0, symName: __ZNSt3__16vectorINS_10unique_ptrI12gguf_context20gguf_context_deleterEENS_9allocatorIS4_EEED1B8ue170006Ev, symObjAddr: 0x7444, symBinAddr: 0xC3244, symSize: 0x70 }
  - { offsetInCU: 0x67730, offset: 0x50B91F, size: 0x8, addend: 0x0, symName: __ZNSt3__16vectorINS_6threadENS_9allocatorIS1_EEED1B8ue170006Ev, symObjAddr: 0x74B4, symBinAddr: 0xC32B4, symSize: 0x58 }
  - { offsetInCU: 0x67D73, offset: 0x50BF62, size: 0x8, addend: 0x0, symName: __ZNKSt3__16vectorINS_10unique_ptrI12gguf_context20gguf_context_deleterEENS_9allocatorIS4_EEE20__throw_length_errorB8ue170006Ev, symObjAddr: 0x146EC, symBinAddr: 0xC43D0, symSize: 0x14 }
  - { offsetInCU: 0x67D9C, offset: 0x50BF8B, size: 0x8, addend: 0x0, symName: __ZNSt3__114basic_ofstreamIcNS_11char_traitsIcEEEC1ERKNS_12basic_stringIcS2_NS_9allocatorIcEEEEj, symObjAddr: 0x14700, symBinAddr: 0xC43E4, symSize: 0x114 }
  - { offsetInCU: 0x68197, offset: 0x50C386, size: 0x8, addend: 0x0, symName: __ZNSt3__114basic_ofstreamIcNS_11char_traitsIcEEEC1ERKNS_12basic_stringIcS2_NS_9allocatorIcEEEEj, symObjAddr: 0x14700, symBinAddr: 0xC43E4, symSize: 0x114 }
  - { offsetInCU: 0x866E2, offset: 0x52A8D1, size: 0x8, addend: 0x0, symName: __ZNKSt3__16vectorI7no_initIfENS_9allocatorIS2_EEE20__throw_length_errorB8ue170006Ev, symObjAddr: 0x18A5C, symBinAddr: 0xC4A1C, symSize: 0x14 }
